 shodan_gp2

 Timestamp is 40994c26 (Wed May 05 16:18:46 2004)

 Preferred load address is 10000000

 Start         Length     Name                   Class
 0001:00000000 000449d9H .text                   CODE
 0001:000449e0 000004bdH .text$x                 CODE
 0002:00000000 00000134H .idata$5                DATA
 0002:00000138 00000bf0H .rdata                  DATA
 0002:00000d28 00000654H .rdata$r                DATA
 0002:00001380 000007f8H .xdata$x                DATA
 0002:00001b78 00000028H .idata$2                DATA
 0002:00001ba0 00000014H .idata$3                DATA
 0002:00001bb4 00000134H .idata$4                DATA
 0002:00001ce8 000004c8H .idata$6                DATA
 0002:000021b0 00001fa4H .edata                  DATA
 0003:00000000 00000004H .CRT$XCA                DATA
 0003:00000004 00000074H .CRT$XCU                DATA
 0003:00000078 00000004H .CRT$XCZ                DATA
 0003:0000007c 00000004H .CRT$XIA                DATA
 0003:00000080 0000000cH .CRT$XIC                DATA
 0003:0000008c 00000004H .CRT$XIY                DATA
 0003:00000090 00000004H .CRT$XIZ                DATA
 0003:00000094 00000004H .CRT$XPA                DATA
 0003:00000098 00000004H .CRT$XPX                DATA
 0003:0000009c 00000004H .CRT$XPZ                DATA
 0003:000000a0 00000004H .CRT$XTA                DATA
 0003:000000a4 00000004H .CRT$XTB                DATA
 0003:000000a8 00000004H .CRT$XTZ                DATA
 0003:000000b0 0001a840H .data                   DATA
 0003:0001a8f0 00015c39H .bss                    DATA
 0004:00000000 00000058H .rsrc$01                DATA
 0004:00000060 000003b0H .rsrc$02                DATA

  Address         Publics by Value              Rva+Base     Lib:Object

 0001:00000000       ?Start3rdPerson@@YAXPAUedict_s@@@Z 10001000 f   3rdperson.obj
 0001:00000180       ?CameraThink@@YA_NPAUedict_s@@@Z 10001180 f   3rdperson.obj
 0001:00000350       ?End3rdPerson@@YAXPAUedict_s@@@Z 10001350 f   3rdperson.obj
 0001:000003f0       ?SUB_CallUseToggle@CBaseEntity@@QAEXXZ 100013f0 f i 3rdperson.obj
 0001:00000400       ?SwitchToBlaster@@YAXPAUedict_s@@@Z 10001400 f   ablaster.obj
 0001:000004d0       ?FireBlaster@@YAXPAUedict_s@@@Z 100014d0 f   ablaster.obj
 0001:000009c0       ?TFXAdminCommand@@YA_NPAUedict_s@@PBD1111@Z 100019c0 f   admincommands.obj
 0001:000013b0       ?GetCommandIndex@@YAHPBD@Z 100023b0 f   admincommands.obj
 0001:00001420       ?TFXAdminCommandHelp@@YA_NPAUedict_s@@PBD@Z 10002420 f   admincommands.obj
 0001:000014f0       ?TFXListCommands@@YA_NPAUedict_s@@PBD@Z 100024f0 f   admincommands.obj
 0001:000015b0       ?LoadCommandLevels@@YAXXZ  100025b0 f   admincommands.obj
 0001:000016c0       ?PlantMarker@@YAXPAUedict_s@@@Z 100026c0 f   airstrike.obj
 0001:00001b50       ?SendStrike@@YAXPAUedict_s@@@Z 10002b50 f   airstrike.obj
 0001:00001e50       ?StartStrikeThink@@YA_NPAUedict_s@@@Z 10002e50 f   airstrike.obj
 0001:00001fb0       ?CancelLaunch@@YAXPAUedict_s@@@Z 10002fb0 f   airstrike.obj
 0001:00002040       ?DoTheStrike@@YAXVVector@@@Z 10003040 f   airstrike.obj
 0001:000021d0       ?AirStrikeCounterThink@@YA_NPAUedict_s@@@Z 100031d0 f   airstrike.obj
 0001:00002230       ??0Vector@@QAE@ABV0@@Z     10003230 f i airstrike.obj
 0001:00002250       ?StrikeLocation@@YAXVVector@@H@Z 10003250 f   airstrike.obj
 0001:00002610       ?CreateGargCoords@@YAX_NHHH@Z 10003610 f   aogarg.obj
 0001:000027a0       ?CreateGarg@@YAXPAUedict_s@@_N@Z 100037a0 f   aogarg.obj
 0001:00002930       ?GargThink@@YA_NPAUedict_s@@@Z 10003930 f   aogarg.obj
 0001:00002e70       ?GargAttackEnemy@@YAXPAUedict_s@@@Z 10003e70 f   aogarg.obj
 0001:00003360       ?CreateGruntCoords@@YAX_NHHH@Z 10004360 f   aohgrunt.obj
 0001:00003520       ?CreateGrunt@@YAXPAUedict_s@@_N@Z 10004520 f   aohgrunt.obj
 0001:000036e0       ?GruntThink@@YA_NPAUedict_s@@@Z 100046e0 f   aohgrunt.obj
 0001:00003d00       ?GruntAttackEnemy@@YAXPAUedict_s@@@Z 10004d00 f   aohgrunt.obj
 0001:00003ee0       ?MonsterChangeYaw@@YAMPAUedict_s@@M@Z 10004ee0 f   aomonsters.obj
 0001:00003fe0       ?MonsterFindEnemy@@YAPAUedict_s@@PAU1@@Z 10004fe0 f   aomonsters.obj
 0001:000040d0       ?MonsterCanSeeEnemy@@YA_NPAUedict_s@@@Z 100050d0 f   aomonsters.obj
 0001:00004140       ?MonsterMove@@YAXPAUedict_s@@HHH@Z 10005140 f   aomonsters.obj
 0001:000044c0       ?MonsterFixIdealYaw@@YAXPAUedict_s@@@Z 100054c0 f   aomonsters.obj
 0001:00004520       ?MonsterBleed@@YAXPAUedict_s@@H@Z 10005520 f   aomonsters.obj
 0001:000046d0       ?AdmBan@@YAXPAUedict_s@@PBD11@Z 100056d0 f   basiccommands.obj
 0001:00004aa0       ?AdmKick@@YAXPAUedict_s@@PBD1@Z 10005aa0 f   basiccommands.obj
 0001:00004d80       ?AdmSay@@YAXPAUedict_s@@PBD@Z 10005d80 f   basiccommands.obj
 0001:00004db0       ?AdmTeamplay@@YAXPAUedict_s@@PBD@Z 10005db0 f   basiccommands.obj
 0001:00004df0       ?AdmSpecttalk@@YAXPAUedict_s@@PBD@Z 10005df0 f   basiccommands.obj
 0001:00004e50       ?AdmGravity@@YAXPAUedict_s@@PBD@Z 10005e50 f   basiccommands.obj
 0001:00004e90       ?AdmGodMessage@@YAXPAUedict_s@@PBD@Z 10005e90 f   basiccommands.obj
 0001:00004f20       ?AdmGag@@YAXPAUedict_s@@PBD@Z 10005f20 f   basiccommands.obj
 0001:00005000       ?AdmMap@@YAXPAUedict_s@@PBD@Z 10006000 f   basiccommands.obj
 0001:000050b0       ?TimeLeft@@YAXXZ           100060b0 f   basiccommands.obj
 0001:00005220       ?AdmSetAdminTalk@@YAXPAUedict_s@@@Z 10006220 f   basiccommands.obj
 0001:00005260       ?AdmAdminChat@@YAXPAUedict_s@@PBD@Z 10006260 f   basiccommands.obj
 0001:00005360       ?AdmForceWriteBack@@YAXPAUedict_s@@@Z 10006360 f   basiccommands.obj
 0001:00005390       ?AdmClientPrint@@YAXPAUedict_s@@PBD1@Z 10006390 f   basiccommands.obj
 0001:00005420       ?AdmDisinfectPlayer@@YAXPAUedict_s@@PBD@Z 10006420 f   basiccommands.obj
 0001:00005490       ?AdmChangeCreds@@YAXPAUedict_s@@PBD1@Z 10006490 f   basiccommands.obj
 0001:00005540       ?AdmAdminList@@YAXPAUedict_s@@@Z 10006540 f   basiccommands.obj
 0001:000055e0       ?AdmExtendMap@@YAXPAUedict_s@@@Z 100065e0 f   basiccommands.obj
 0001:00005660       ?AdmICQ@@YAXPAUedict_s@@PBD@Z 10006660 f   basiccommands.obj
 0001:000056f0       ?BuildGun@@YAXPAUedict_s@@@Z 100066f0 f   biggun.obj
 0001:00005b90       ?BigGunThink@@YA_NPAUedict_s@@@Z 10006b90 f   biggun.obj
 0001:00005e00       ?UseGun@@YAXPAUedict_s@@@Z 10006e00 f   biggun.obj
 0001:00006080       ?DestroyPlayersGun@@YAXPAUedict_s@@@Z 10007080 f   biggun.obj
 0001:00006250       ?DestroyGun@@YAXPAUedict_s@@@Z 10007250 f   biggun.obj
 0001:000063f0       ?SentryShoot@@YAXPAUedict_s@@@Z 100073f0 f   biggun.obj
 0001:00006670       ?ShowSGOptions@@YAXPAUedict_s@@@Z 10007670 f   buying.obj
 0001:000066b0       ?ShowBuyMenu@@YAXPAUedict_s@@@Z 100076b0 f   buying.obj
 0001:00006770       ?BuyMenuSelect@@YAXPAUedict_s@@HH@Z 10007770 f   buying.obj
 0001:00008580       ?PlaceC4@@YAXPAUedict_s@@H@Z 10009580 f   c4.obj
 0001:00008cf0       ?HasAlreadyPlaced@@YAHPAUedict_s@@@Z 10009cf0 f   c4.obj
 0001:00008d30       ?C4Think@@YA_NPAUedict_s@@@Z 10009d30 f   c4.obj
 0001:00008e70       ?DetonateC4@@YAXPAUedict_s@@H@Z 10009e70 f   c4.obj
 0001:000090c0       ?C4BombCounterThink@@YA_NPAUedict_s@@@Z 1000a0c0 f   c4.obj
 0001:000094a0       ?AdmGod@@YAXPAUedict_s@@PBD1@Z 1000a4a0 f   cheatcommands.obj
 0001:000095f0       ?AdmNoclip@@YAXPAUedict_s@@PBD1@Z 1000a5f0 f   cheatcommands.obj
 0001:00009740       ?AdmHologram@@YAXPAUedict_s@@PBD1@Z 1000a740 f   cheatcommands.obj
 0001:000098c0       ?AdmInvis@@YAXPAUedict_s@@PBD1@Z 1000a8c0 f   cheatcommands.obj
 0001:00009a00       ?AdmHealth@@YAXPAUedict_s@@PBD1@Z 1000aa00 f   cheatcommands.obj
 0001:00009ac0       ?AdmChangeSpeed@@YAXPAUedict_s@@PBD1@Z 1000aac0 f   cheatcommands.obj
 0001:00009b80       ?AdmGiveAllGuns@@YAXPAUedict_s@@PBD@Z 1000ab80 f   cheatcommands.obj
 0001:00009bf0       ?AdmArmor@@YAXPAUedict_s@@PBD1@Z 1000abf0 f   cheatcommands.obj
 0001:00009cb0       ?AdmChangeAmmo@@YAXPAUedict_s@@PBD11@Z 1000acb0 f   cheatcommands.obj
 0001:00009dc0       ?AdmMultiBuild@@YAXPAUedict_s@@PBD1@Z 1000adc0 f   cheatcommands.obj
 0001:00009e50       ??0CIniFile@@QAE@XZ        1000ae50 f   CIniFile.obj
 0001:00009f60       ??1CIniFile@@QAE@XZ        1000af60 f   CIniFile.obj
 0001:00009fa0       ?SetFileName@CIniFile@@QAEXPAD@Z 1000afa0 f   CIniFile.obj
 0001:0000a050       ?GetStringD@CIniFile@@QAEIPAD00H0@Z 1000b050 f   CIniFile.obj
 0001:0000a0f0       ?GetIntD@CIniFile@@QAEIPAD0H@Z 1000b0f0 f   CIniFile.obj
 0001:0000a190       ?GetFloatD@CIniFile@@QAEMPAD00@Z 1000b190 f   CIniFile.obj
 0001:0000a240       ?GetInt@CIniFile@@QAEIPAD0@Z 1000b240 f   CIniFile.obj
 0001:0000a2e0       ??1?$basic_string@DU?$char_traits@D@std@@V?$allocator@D@2@@std@@QAE@XZ 1000b2e0 f i CIniFile.obj
 0001:0000a320       ?_Tidy@?$basic_string@DU?$char_traits@D@std@@V?$allocator@D@2@@std@@AAEX_N@Z 1000b320 f i CIniFile.obj
 0001:0000a370       ?_Eos@?$basic_string@DU?$char_traits@D@std@@V?$allocator@D@2@@std@@AAEXI@Z 1000b370 f i CIniFile.obj
 0001:0000a390       ?_Grow@?$basic_string@DU?$char_traits@D@std@@V?$allocator@D@2@@std@@AAE_NI_N@Z 1000b390 f i CIniFile.obj
 0001:0000a4b0       ?_Copy@?$basic_string@DU?$char_traits@D@std@@V?$allocator@D@2@@std@@AAEXI@Z 1000b4b0 f i CIniFile.obj
 0001:0000a5c0       ?_Split@?$basic_string@DU?$char_traits@D@std@@V?$allocator@D@2@@std@@AAEXXZ 1000b5c0 f i CIniFile.obj
 0001:0000a6c0       ?TFXPlayerCommand@@YA_NPAUedict_s@@PBD11111@Z 1000b6c0 f   commands.obj
 0001:0000c6e0       ?PlayerCurrentWeapon@@YAHPAUedict_s@@PBD@Z 1000d6e0 f   commands.obj
 0001:0000c890       ?TFXLoadPlayerInfo@@YAXPAUedict_s@@PBD@Z 1000d890 f   credits.obj
 0001:0000d0a0       ?TFXResetPlayerInfo@@YAXPAUedict_s@@@Z 1000e0a0 f   credits.obj
 0001:0000d420       ?TFXPlayerDisconnect@@YAXPAUedict_s@@@Z 1000e420 f   credits.obj
 0001:0000d850       ?TFXClientConnectionMsg@@YAXPAUedict_s@@PBD@Z 1000e850 f   credits.obj
 0001:0000dfd0       ?CreditThink@@YAXXZ        1000efd0 f   credits.obj
 0001:0000e170       ?PlayerCredInfo@@YAXPBD@Z  1000f170 f   credits.obj
 0001:0000e310       ?PlayerTimeInfo@@YAXPBD@Z  1000f310 f   credits.obj
 0001:0000e440       ?PlayerCheck@@YAXPBD@Z     1000f440 f   credits.obj
 0001:0000e520       ?PlayerWhois@@YAXPBD@Z     1000f520 f   credits.obj
 0001:0000e620       ?PlayerWarnings@@YAXPBD@Z  1000f620 f   credits.obj
 0001:0000e6f0       ?PlayerRankInfo@@YAXPBD@Z  1000f6f0 f   credits.obj
 0001:0000e850       ?GiveCredits@@YAXPAUedict_s@@PBDH@Z 1000f850 f   credits.obj
 0001:0000ea00       ?WriteBackFiles@@YAXXZ     1000fa00 f   credits.obj
 0001:0000eea0       ?AdminAuth@@YAXPAUedict_s@@H@Z 1000fea0 f   credits.obj
 0001:0000ef90       ?AdminDeAuth@@YAXPAUedict_s@@@Z 1000ff90 f   credits.obj
 0001:0000f0c0       ?CheckClientPack@@YAXPAUedict_s@@@Z 100100c0 f   credits.obj
 0001:0000f1a0       ?GameDLLInit@@YAXXZ        100101a0 f   dll.obj
 0001:0000f520       ?DispatchSpawn@@YAHPAUedict_s@@@Z 10010520 f   dll.obj
 0001:0000f660       ?DispatchThink@@YAXPAUedict_s@@@Z 10010660 f   dll.obj
 0001:0000f680       ?DispatchUse@@YAXPAUedict_s@@0@Z 10010680 f   dll.obj
 0001:0000f690       ?DispatchTouch@@YAXPAUedict_s@@0@Z 10010690 f   dll.obj
 0001:0000f920       ?DispatchBlocked@@YAXPAUedict_s@@0@Z 10010920 f   dll.obj
 0001:0000f930       ?DispatchKeyValue@@YAXPAUedict_s@@PAUKeyValueData_s@@@Z 10010930 f   dll.obj
 0001:0000fd20       ??0Vector@@QAE@MMM@Z       10010d20 f i dll.obj
 0001:0000fd40       ?DispatchSave@@YAXPAUedict_s@@PAUsaverestore_s@@@Z 10010d40 f   dll.obj
 0001:0000fd50       ?DispatchRestore@@YAHPAUedict_s@@PAUsaverestore_s@@H@Z 10010d50 f   dll.obj
 0001:0000fd60       ?DispatchObjectCollsionBox@@YAXPAUedict_s@@@Z 10010d60 f   dll.obj
 0001:0000fd70       ?SaveWriteFields@@YAXPAUsaverestore_s@@PBDPAXPAUTYPEDESCRIPTION@@H@Z 10010d70 f   dll.obj
 0001:0000fd80       ?SaveReadFields@@YAXPAUsaverestore_s@@PBDPAXPAUTYPEDESCRIPTION@@H@Z 10010d80 f   dll.obj
 0001:0000fd90       ?SaveGlobalState@@YAXPAUsaverestore_s@@@Z 10010d90 f   dll.obj
 0001:0000fda0       ?RestoreGlobalState@@YAXPAUsaverestore_s@@@Z 10010da0 f   dll.obj
 0001:0000fdb0       ?ResetGlobalState@@YAXXZ   10010db0 f   dll.obj
 0001:0000fdc0       ?ClientConnect@@YAHPAUedict_s@@PBD1QAD@Z 10010dc0 f   dll.obj
 0001:0000ffd0       ?ClientDisconnect@@YAXPAUedict_s@@@Z 10010fd0 f   dll.obj
 0001:00010000       ?ClientKill@@YAXPAUedict_s@@@Z 10011000 f   dll.obj
 0001:00010010       ?ClientPutInServer@@YAXPAUedict_s@@@Z 10011010 f   dll.obj
 0001:00010110       ?ClientCommand@@YAXPAUedict_s@@@Z 10011110 f   dll.obj
 0001:000102d0       ?ClientUserInfoChanged@@YAXPAUedict_s@@PAD@Z 100112d0 f   dll.obj
 0001:00010320       ?ServerActivate@@YAXPAUedict_s@@HH@Z 10011320 f   dll.obj
 0001:00010330       ?ServerDeactivate@@YAXXZ   10011330 f   dll.obj
 0001:00010340       ?PlayerPreThink@@YAXPAUedict_s@@@Z 10011340 f   dll.obj
 0001:00010360       ?PlayerPostThink@@YAXPAUedict_s@@@Z 10011360 f   dll.obj
 0001:00010370       ?StartFrame@@YAXXZ         10011370 f   dll.obj
 0001:00011230       ?ParmsNewLevel@@YAXXZ      10012230 f   dll.obj
 0001:00011240       ?ParmsChangeLevel@@YAXXZ   10012240 f   dll.obj
 0001:00011250       ?GetGameDescription@@YAPBDXZ 10012250 f   dll.obj
 0001:00011260       ?PlayerCustomization@@YAXPAUedict_s@@PAUcustomization_s@@@Z 10012260 f   dll.obj
 0001:00011270       ?SpectatorConnect@@YAXPAUedict_s@@@Z 10012270 f   dll.obj
 0001:00011280       ?SpectatorDisconnect@@YAXPAUedict_s@@@Z 10012280 f   dll.obj
 0001:00011290       ?SpectatorThink@@YAXPAUedict_s@@@Z 10012290 f   dll.obj
 0001:000112a0       ?Sys_Error@@YAXPBD@Z       100122a0 f   dll.obj
 0001:000112f0       ?PM_Move@@YAXPAUplayermove_s@@H@Z 100122f0 f   dll.obj
 0001:00011300       ?PM_Init@@YAXPAUplayermove_s@@@Z 10012300 f   dll.obj
 0001:00011310       ?PM_FindTextureType@@YADPAD@Z 10012310 f   dll.obj
 0001:00011320       ?SetupVisibility@@YAXPAUedict_s@@0PAPAE1@Z 10012320 f   dll.obj
 0001:00011330       ?UpdateClientData@@YAXPBUedict_s@@HPAUclientdata_s@@@Z 10012330 f   dll.obj
 0001:00011340       ?AddToFullPack@@YAHPAUentity_state_s@@HPAUedict_s@@1HHPAE@Z 10012340 f   dll.obj
 0001:00011350       ?CreateBaseline@@YAXHHPAUentity_state_s@@PAUedict_s@@HVVector@@2@Z 10012350 f   dll.obj
 0001:000113a0       ?RegisterEncoders@@YAXXZ   100123a0 f   dll.obj
 0001:000113b0       ?GetWeaponData@@YAHPAUedict_s@@PAUweapon_data_s@@@Z 100123b0 f   dll.obj
 0001:000113c0       ?CmdStart@@YAXPBUedict_s@@PBUusercmd_s@@I@Z 100123c0 f   dll.obj
 0001:000113d0       ?CmdEnd@@YAXPBUedict_s@@@Z 100123d0 f   dll.obj
 0001:000113e0       ?ConnectionlessPacket@@YAHPBUnetadr_s@@PBDPADPAH@Z 100123e0 f   dll.obj
 0001:000113f0       ?GetHullBounds@@YAHHPAM0@Z 100123f0 f   dll.obj
 0001:00011400       ?CreateInstancedBaselines@@YAXXZ 10012400 f   dll.obj
 0001:00011410       ?InconsistentFile@@YAHPBUedict_s@@PBDPAD@Z 10012410 f   dll.obj
 0001:00011420       ?AllowLagCompensation@@YAHXZ 10012420 f   dll.obj
 0001:00011430       _GetEntityAPI              10012430 f   dll.obj
 0001:00011470       ?TFXDispatchThink@@YAHPAUedict_s@@@Z 10012470 f   dll.obj
 0001:000117f0       ?SwingDualBar@@YAXPAUedict_s@@@Z 100127f0 f   dualbar.obj
 0001:00011b10       ?SwitchToEnergyGun@@YAXPAUedict_s@@@Z 10012b10 f   energyblast.obj
 0001:00011be0       ?FireEnergy@@YAXPAUedict_s@@@Z 10012be0 f   energyblast.obj
 0001:00012080       ?EnergyBlastThink@@YA_NPAUedict_s@@@Z 10013080 f   energyblast.obj
 0001:00012420       ?KillEnergyBlast@@YAXPAUedict_s@@H@Z 10013420 f   energyblast.obj
 0001:00012600       ?pfnRegUserMsg@@YAHPBDH@Z  10013600 f   engine.obj
 0001:000126a0       ?pfnMessageBegin@@YAXHHPBMPAUedict_s@@@Z 100136a0 f   engine.obj
 0001:00012820       ?pfnMessageEnd@@YAXXZ      10013820 f   engine.obj
 0001:000128a0       ?pfnWriteByte@@YAXH@Z      100138a0 f   engine.obj
 0001:00012910       ?pfnWriteChar@@YAXH@Z      10013910 f   engine.obj
 0001:00012980       ?pfnWriteShort@@YAXH@Z     10013980 f   engine.obj
 0001:000129f0       ?pfnWriteLong@@YAXH@Z      100139f0 f   engine.obj
 0001:00012a60       ?pfnWriteAngle@@YAXM@Z     10013a60 f   engine.obj
 0001:00012ad0       ?pfnWriteCoord@@YAXM@Z     10013ad0 f   engine.obj
 0001:00012b40       ?pfnWriteString@@YAXPBD@Z  10013b40 f   engine.obj
 0001:00012bb0       ?pfnWriteEntity@@YAXH@Z    10013bb0 f   engine.obj
 0001:00012c20       ?MsgDeath@@YAXPAXH@Z       10013c20 f   engine.obj
 0001:00012cd0       ?StatusText@@YAXPAXH@Z     10013cd0 f   engine.obj
 0001:00012d80       ?TossFlashBang@@YAXPAUedict_s@@@Z 10013d80 f   flashbang.obj
 0001:00013030       ?FBThink@@YA_NPAUedict_s@@@Z 10014030 f   flashbang.obj
 0001:00013240       ?AdmCreateLight@@YAXPAUedict_s@@PBD111@Z 10014240 f   funcommands.obj
 0001:00013320       ?AdmRing@@YAXPAUedict_s@@PBD1@Z 10014320 f   funcommands.obj
 0001:00013470       ?AdmScreenShake@@YAXPAUedict_s@@@Z 10014470 f   funcommands.obj
 0001:000134b0       ?AdmScreenFade@@YAXPAUedict_s@@PBD11@Z 100144b0 f   funcommands.obj
 0001:00013520       ?AdmSpawnGrunt@@YAXPAUedict_s@@PBD@Z 10014520 f   funcommands.obj
 0001:00013550       ?AdmSpawnGarg@@YAXPAUedict_s@@PBD@Z 10014550 f   funcommands.obj
 0001:00013580       ?AdmTrail@@YAXPAUedict_s@@PBD111@Z 10014580 f   funcommands.obj
 0001:00013660       ?AdmDizzyness@@YAXPAUedict_s@@PBD1@Z 10014660 f   funcommands.obj
 0001:000136b0       ?AdmDropModel@@YAXPAUedict_s@@PBD1@Z 100146b0 f   funcommands.obj
 0001:000137d0       ?AdmAdminStrike@@YAXPAUedict_s@@PBD@Z 100147d0 f   funcommands.obj
 0001:00013820       ?AdmEntCreate@@YAXPAUedict_s@@PBD@Z 10014820 f   funcommands.obj
 0001:000139d0       ?AdmToss@@YAXPAUedict_s@@PBD@Z 100149d0 f   funcommands.obj
 0001:00013b20       ?AdmKillTrail@@YAXPAUedict_s@@PBD@Z 10014b20 f   funcommands.obj
 0001:00013b80       ?AdmPlaySound@@YAXPAUedict_s@@PBD@Z 10014b80 f   funcommands.obj
 0001:00013c80       ?AdmPermLight@@YAXPAUedict_s@@PBD11@Z 10014c80 f   funcommands.obj
 0001:00013e50       ?DropWeapon@@YAXPAUedict_s@@PBD@Z 10014e50 f   funcommands.obj
 0001:00014350       ?AdmVEffect@@YAXPAUedict_s@@PBD1@Z 10015350 f   funcommands.obj
 0001:000143a0       ?AdmResetBuild@@YAXPAUedict_s@@@Z 100153a0 f   funcommands.obj
 0001:000143e0       ?LogoText@@YAXXZ           100153e0 f   generalstuff.obj
 0001:00014510       ?AdminGreenNames@@YAXXZ    10015510 f   generalstuff.obj
 0001:00014580       ?UserLogger@@YAXPAUedict_s@@PBD1@Z 10015580 f   generalstuff.obj
 0001:00014750       ?UserLogEncryption@@YAPADPBD0@Z 10015750 f   generalstuff.obj
 0001:000148a0       ?AddAdmin@@YAXPAUedict_s@@PBD1@Z 100158a0 f   generalstuff.obj
 0001:00014960       ?DelAdmin@@YAXPAUedict_s@@PBD@Z 10015960 f   generalstuff.obj
 0001:00014a20       ?FakeGib@@YAXPAUedict_s@@@Z 10015a20 f   generalstuff.obj
 0001:00014e30       ?GibThink@@YA_NPAUedict_s@@@Z 10015e30 f   generalstuff.obj
 0001:00014e70       ?FreqCheck@@YAHPAUedict_s@@@Z 10015e70 f   generalstuff.obj
 0001:00015020       ?FakeScoreColor@@YAXPAUedict_s@@H@Z 10016020 f   generalstuff.obj
 0001:000150c0       ?MoveToDest@@YAXMMMMPAUedict_s@@@Z 100160c0 f   grapple.obj
 0001:00015290       ?PlayerMovedtoDest@@YAXPAUedict_s@@@Z 10016290 f   grapple.obj
 0001:000154d0       ?PlayerDrops@@YAXPAUedict_s@@H@Z 100164d0 f   grapple.obj
 0001:000155c0       ?TossGrapple@@YAXPAUedict_s@@@Z 100165c0 f   grapple.obj
 0001:00015800       ?BeamRedraw@@YAXPAUedict_s@@@Z 10016800 f   grapple.obj
 0001:00015a20       ?ThrowGrapple@@YAXPAUedict_s@@@Z 10016a20 f   grapple.obj
 0001:00015d10       ?GrappleTouch@@YAXPAUedict_s@@0@Z 10016d10 f   grapple.obj
 0001:00016070       ?GrappleHookThink@@YA_NPAUedict_s@@@Z 10017070 f   grapple.obj
 0001:000165d0       ?KillGrapple@@YAXPAUedict_s@@@Z 100175d0 f   grapple.obj
 0001:00016690       ?DropGun@@YAXPAUedict_s@@@Z 10017690 f   gundrop.obj
 0001:00016b20       ?DroppedGunThink@@YA_NPAUedict_s@@@Z 10017b20 f   gundrop.obj
 0001:00016d60       ?UserPickedMeUp@@YAXPAUedict_s@@PAVCBaseEntity@@@Z 10017d60 f   gundrop.obj
 0001:00016fb0       ?StartingWeapon@@YAHPAUedict_s@@@Z 10017fb0 f   gundrop.obj
 0001:00017020       _DllMain@12                10018020 f   h_export.obj
 0001:00017050       ?GiveFnptrsToDll@@YGXPAUenginefuncs_s@@PAUglobalvars_t@@@Z 10018050 f   h_export.obj
 0001:00017250       ?ShowHelp@@YAXPAUedict_s@@PBD@Z 10018250 f   helpsystem.obj
 0001:00018de0       ?DoRadar@@YAXPAUedict_s@@@Z 10019de0 f   hwradar.obj
 0001:00019100       ?ApplyIcon@@YAXPAUedict_s@@PBD@Z 1001a100 f   icons.obj
 0001:00019730       ?LoadGameSettings@@YAXXZ   1001a730 f   inisettings.obj
 0001:0001a0b0       ??0CIniFile@@QAE@ABV0@@Z   1001b0b0 f i inisettings.obj
 0001:0001a1d0       ?LoadINITextString@@YAXVCIniFile@@PAD1@Z 1001b1d0 f   inisettings.obj
 0001:0001a300       ?CastKickVote@@YAXPAUedict_s@@PBD@Z 1001b300 f   kickvote.obj
 0001:0001a420       ?EndTheVote@@YAXXZ         1001b420 f   kickvote.obj
 0001:0001a590       ?BuildLaserFence@@YAXPAUedict_s@@@Z 1001b590 f   laserfence.obj
 0001:0001aa20       ?LaserFenceThink@@YA_NPAUedict_s@@@Z 1001ba20 f   laserfence.obj
 0001:0001b350       ?DetonateFencePost@@YAXPAUedict_s@@@Z 1001c350 f   laserfence.obj
 0001:0001b4b0       ?SensorDisconnect@@YAXPAUedict_s@@@Z 1001c4b0 f   laserfence.obj
 0001:0001b520       ?SelectEntity@@YAXPAUedict_s@@@Z 1001c520 f   leveleditor.obj
 0001:0001b7e0       ?IsValidEnt@@YAHPAUedict_s@@@Z 1001c7e0 f   leveleditor.obj
 0001:0001bad0       ?FindFreeSlot@@YAHPAUedict_s@@@Z 1001cad0 f   leveleditor.obj
 0001:0001bb10       ?DeselectEntity@@YAXPAUedict_s@@@Z 1001cb10 f   leveleditor.obj
 0001:0001bd30       ?PointTransEnt@@YAXPAUedict_s@@H@Z 1001cd30 f   leveleditor.obj
 0001:0001bfc0       ?PointColorEnt@@YAXPAUedict_s@@VVector@@@Z 1001cfc0 f   leveleditor.obj
 0001:0001c150       ?MoveEnt@@YAXPAUedict_s@@H@Z 1001d150 f   leveleditor.obj
 0001:0001c2c0       ?CloneEnt@@YAXPAUedict_s@@@Z 1001d2c0 f   leveleditor.obj
 0001:0001c4b0       ?DeselectAll@@YAXPAUedict_s@@@Z 1001d4b0 f   leveleditor.obj
 0001:0001c5b0       ?DeleteEntity@@YAXPAUedict_s@@@Z 1001d5b0 f   leveleditor.obj
 0001:0001c640       ?QuickMove@@YAXPAUedict_s@@@Z 1001d640 f   leveleditor.obj
 0001:0001c800       ?QuickMoveX@@YAXPAUedict_s@@@Z 1001d800 f   leveleditor.obj
 0001:0001c980       ?QuickMoveY@@YAXPAUedict_s@@@Z 1001d980 f   leveleditor.obj
 0001:0001cb00       ?QuickMoveZ@@YAXPAUedict_s@@@Z 1001db00 f   leveleditor.obj
 0001:0001cc80       ?RotatePoint@@YAXPAUedict_s@@@Z 1001dc80 f   leveleditor.obj
 0001:0001cd20       ?ChangeKeyValue@@YAXPAUedict_s@@PBD1@Z 1001dd20 f   leveleditor.obj
 0001:0001ce20       ?TriggerEntity@@YAXPAUedict_s@@@Z 1001de20 f   leveleditor.obj
 0001:0001cfb0       ?SelectClass@@YAXPAUedict_s@@PBD1@Z 1001dfb0 f   leveleditor.obj
 0001:0001d210       ?ScanRadius@@YAXPAUedict_s@@H@Z 1001e210 f   leveleditor.obj
 0001:0001d370       ?StartPull@@YAXPAUedict_s@@@Z 1001e370 f   leveleditor.obj
 0001:0001d400       ?PullThink@@YAXPAUedict_s@@@Z 1001e400 f   leveleditor.obj
 0001:0001d4d0       ?EndPull@@YAXPAUedict_s@@@Z 1001e4d0 f   leveleditor.obj
 0001:0001d550       ?SaveEnts@@YA_NPAUedict_s@@PBD@Z 1001e550 f   leveleditor.obj
 0001:0001d950       ?LoadEnts@@YA_NPAUedict_s@@PBD@Z 1001e950 f   leveleditor.obj
 0001:0001e0c0       ?KillAEFEnts@@YAXPAUedict_s@@PBD@Z 1001f0c0 f   leveleditor.obj
 0001:0001e260       ?SelectLoaded@@YAXPAUedict_s@@PBD@Z 1001f260 f   leveleditor.obj
 0001:0001e540       ?LightThink@@YA_NPAUedict_s@@@Z 1001f540 f   lights.obj
 0001:0001e630       _aiscripted_sequence       1001f630 f   linkfunc.obj
 0001:0001e670       _ambient_generic           1001f670 f   linkfunc.obj
 0001:0001e6b0       _ammo_357                  1001f6b0 f   linkfunc.obj
 0001:0001e6f0       _ammo_9mmAR                1001f6f0 f   linkfunc.obj
 0001:0001e730       _ammo_9mmbox               1001f730 f   linkfunc.obj
 0001:0001e770       _ammo_9mmclip              1001f770 f   linkfunc.obj
 0001:0001e7b0       _ammo_ARgrenades           1001f7b0 f   linkfunc.obj
 0001:0001e7f0       _ammo_buckshot             1001f7f0 f   linkfunc.obj
 0001:0001e830       _ammo_crossbow             1001f830 f   linkfunc.obj
 0001:0001e870       _ammo_egonclip             1001f870 f   linkfunc.obj
 0001:0001e8b0       _ammo_gaussclip            1001f8b0 f   linkfunc.obj
 0001:0001e8f0       _ammo_glockclip            1001f8f0 f   linkfunc.obj
 0001:0001e930       _ammo_mp5clip              1001f930 f   linkfunc.obj
 0001:0001e970       _ammo_mp5grenades          1001f970 f   linkfunc.obj
 0001:0001e9b0       _ammo_rpgclip              1001f9b0 f   linkfunc.obj
 0001:0001e9f0       _beam                      1001f9f0 f   linkfunc.obj
 0001:0001ea30       _bmortar                   1001fa30 f   linkfunc.obj
 0001:0001ea70       _bodyque                   1001fa70 f   linkfunc.obj
 0001:0001eab0       _button_target             1001fab0 f   linkfunc.obj
 0001:0001eaf0       _cine_blood                1001faf0 f   linkfunc.obj
 0001:0001eb30       _controller_energy_ball    1001fb30 f   linkfunc.obj
 0001:0001eb70       _controller_head_ball      1001fb70 f   linkfunc.obj
 0001:0001ebb0       _crossbow_bolt             1001fbb0 f   linkfunc.obj
 0001:0001ebf0       _cycler                    1001fbf0 f   linkfunc.obj
 0001:0001ec30       _cycler_prdroid            1001fc30 f   linkfunc.obj
 0001:0001ec70       _cycler_sprite             1001fc70 f   linkfunc.obj
 0001:0001ecb0       _cycler_weapon             1001fcb0 f   linkfunc.obj
 0001:0001ecf0       _cycler_wreckage           1001fcf0 f   linkfunc.obj
 0001:0001ed30       _DelayedUse                1001fd30 f   linkfunc.obj
 0001:0001ed70       _env_beam                  1001fd70 f   linkfunc.obj
 0001:0001edb0       _env_beverage              1001fdb0 f   linkfunc.obj
 0001:0001edf0       _env_blood                 1001fdf0 f   linkfunc.obj
 0001:0001ee30       _env_bubbles               1001fe30 f   linkfunc.obj
 0001:0001ee70       _env_debris                1001fe70 f   linkfunc.obj
 0001:0001eeb0       _env_explosion             1001feb0 f   linkfunc.obj
 0001:0001eef0       _env_fade                  1001fef0 f   linkfunc.obj
 0001:0001ef30       _env_funnel                1001ff30 f   linkfunc.obj
 0001:0001ef70       _env_global                1001ff70 f   linkfunc.obj
 0001:0001efb0       _env_glow                  1001ffb0 f   linkfunc.obj
 0001:0001eff0       _env_laser                 1001fff0 f   linkfunc.obj
 0001:0001f030       _env_lightning             10020030 f   linkfunc.obj
 0001:0001f070       _env_message               10020070 f   linkfunc.obj
 0001:0001f0b0       _env_render                100200b0 f   linkfunc.obj
 0001:0001f0f0       _env_shake                 100200f0 f   linkfunc.obj
 0001:0001f130       _env_shooter               10020130 f   linkfunc.obj
 0001:0001f170       _env_smoker                10020170 f   linkfunc.obj
 0001:0001f1b0       _env_sound                 100201b0 f   linkfunc.obj
 0001:0001f1f0       _env_spark                 100201f0 f   linkfunc.obj
 0001:0001f230       _env_sprite                10020230 f   linkfunc.obj
 0001:0001f270       _fireanddie                10020270 f   linkfunc.obj
 0001:0001f2b0       _func_breakable            100202b0 f   linkfunc.obj
 0001:0001f2f0       _func_button               100202f0 f   linkfunc.obj
 0001:0001f330       _func_conveyor             10020330 f   linkfunc.obj
 0001:0001f370       _func_door                 10020370 f   linkfunc.obj
 0001:0001f3b0       _func_door_rotating        100203b0 f   linkfunc.obj
 0001:0001f3f0       _func_friction             100203f0 f   linkfunc.obj
 0001:0001f430       _func_guntarget            10020430 f   linkfunc.obj
 0001:0001f470       _func_healthcharger        10020470 f   linkfunc.obj
 0001:0001f4b0       _func_illusionary          100204b0 f   linkfunc.obj
 0001:0001f4f0       _func_ladder               100204f0 f   linkfunc.obj
 0001:0001f530       _func_monsterclip          10020530 f   linkfunc.obj
 0001:0001f570       _func_mortar_field         10020570 f   linkfunc.obj
 0001:0001f5b0       _func_pendulum             100205b0 f   linkfunc.obj
 0001:0001f5f0       _func_plat                 100205f0 f   linkfunc.obj
 0001:0001f630       _func_platrot              10020630 f   linkfunc.obj
 0001:0001f670       _func_pushable             10020670 f   linkfunc.obj
 0001:0001f6b0       _func_recharge             100206b0 f   linkfunc.obj
 0001:0001f6f0       _func_rotating             100206f0 f   linkfunc.obj
 0001:0001f730       _func_rot_button           10020730 f   linkfunc.obj
 0001:0001f770       _func_tank                 10020770 f   linkfunc.obj
 0001:0001f7b0       _func_tankcontrols         100207b0 f   linkfunc.obj
 0001:0001f7f0       _func_tanklaser            100207f0 f   linkfunc.obj
 0001:0001f830       _func_tankmortar           10020830 f   linkfunc.obj
 0001:0001f870       _func_tankrocket           10020870 f   linkfunc.obj
 0001:0001f8b0       _func_trackautochange      100208b0 f   linkfunc.obj
 0001:0001f8f0       _func_trackchange          100208f0 f   linkfunc.obj
 0001:0001f930       _func_tracktrain           10020930 f   linkfunc.obj
 0001:0001f970       _func_train                10020970 f   linkfunc.obj
 0001:0001f9b0       _func_traincontrols        100209b0 f   linkfunc.obj
 0001:0001f9f0       _func_wall                 100209f0 f   linkfunc.obj
 0001:0001fa30       _func_wall_toggle          10020a30 f   linkfunc.obj
 0001:0001fa70       _func_water                10020a70 f   linkfunc.obj
 0001:0001fab0       _game_counter              10020ab0 f   linkfunc.obj
 0001:0001faf0       _game_counter_set          10020af0 f   linkfunc.obj
 0001:0001fb30       _game_end                  10020b30 f   linkfunc.obj
 0001:0001fb70       _game_player_equip         10020b70 f   linkfunc.obj
 0001:0001fbb0       _game_player_hurt          10020bb0 f   linkfunc.obj
 0001:0001fbf0       _game_player_team          10020bf0 f   linkfunc.obj
 0001:0001fc30       _game_score                10020c30 f   linkfunc.obj
 0001:0001fc70       _game_team_master          10020c70 f   linkfunc.obj
 0001:0001fcb0       _game_team_set             10020cb0 f   linkfunc.obj
 0001:0001fcf0       _game_text                 10020cf0 f   linkfunc.obj
 0001:0001fd30       _game_zone_player          10020d30 f   linkfunc.obj
 0001:0001fd70       _garg_stomp                10020d70 f   linkfunc.obj
 0001:0001fdb0       _gibshooter                10020db0 f   linkfunc.obj
 0001:0001fdf0       _grenade                   10020df0 f   linkfunc.obj
 0001:0001fe30       _hornet                    10020e30 f   linkfunc.obj
 0001:0001fe70       _hvr_rocket                10020e70 f   linkfunc.obj
 0001:0001feb0       _info_bigmomma             10020eb0 f   linkfunc.obj
 0001:0001fef0       _info_intermission         10020ef0 f   linkfunc.obj
 0001:0001ff30       _info_landmark             10020f30 f   linkfunc.obj
 0001:0001ff70       _info_node                 10020f70 f   linkfunc.obj
 0001:0001ffb0       _info_node_air             10020fb0 f   linkfunc.obj
 0001:0001fff0       _info_null                 10020ff0 f   linkfunc.obj
 0001:00020030       _info_player_deathmatch    10021030 f   linkfunc.obj
 0001:00020070       _info_player_start         10021070 f   linkfunc.obj
 0001:000200b0       _info_target               100210b0 f   linkfunc.obj
 0001:000200f0       _info_teleport_destination 100210f0 f   linkfunc.obj
 0001:00020130       _infodecal                 10021130 f   linkfunc.obj
 0001:00020170       _item_airtank              10021170 f   linkfunc.obj
 0001:000201b0       _item_antidote             100211b0 f   linkfunc.obj
 0001:000201f0       _item_battery              100211f0 f   linkfunc.obj
 0001:00020230       _item_healthkit            10021230 f   linkfunc.obj
 0001:00020270       _item_longjump             10021270 f   linkfunc.obj
 0001:000202b0       _item_security             100212b0 f   linkfunc.obj
 0001:000202f0       _item_sodacan              100212f0 f   linkfunc.obj
 0001:00020330       _item_suit                 10021330 f   linkfunc.obj
 0001:00020370       _laser_spot                10021370 f   linkfunc.obj
 0001:000203b0       _light                     100213b0 f   linkfunc.obj
 0001:000203f0       _light_environment         100213f0 f   linkfunc.obj
 0001:00020430       _light_spot                10021430 f   linkfunc.obj
 0001:00020470       _momentary_door            10021470 f   linkfunc.obj
 0001:000204b0       _momentary_rot_button      100214b0 f   linkfunc.obj
 0001:000204f0       _monstermaker              100214f0 f   linkfunc.obj
 0001:00020530       _monster_alien_controller  10021530 f   linkfunc.obj
 0001:00020570       _monster_alien_grunt       10021570 f   linkfunc.obj
 0001:000205b0       _monster_alien_slave       100215b0 f   linkfunc.obj
 0001:000205f0       _monster_apache            100215f0 f   linkfunc.obj
 0001:00020630       _monster_babycrab          10021630 f   linkfunc.obj
 0001:00020670       _monster_barnacle          10021670 f   linkfunc.obj
 0001:000206b0       _monster_barney            100216b0 f   linkfunc.obj
 0001:000206f0       _monster_barney_dead       100216f0 f   linkfunc.obj
 0001:00020730       _monster_bigmomma          10021730 f   linkfunc.obj
 0001:00020770       _monster_bloater           10021770 f   linkfunc.obj
 0001:000207b0       _monster_bullchicken       100217b0 f   linkfunc.obj
 0001:000207f0       _monster_cine2_hvyweapons  100217f0 f   linkfunc.obj
 0001:00020830       _monster_cine2_scientist   10021830 f   linkfunc.obj
 0001:00020870       _monster_cine2_slave       10021870 f   linkfunc.obj
 0001:000208b0       _monster_cine3_barney      100218b0 f   linkfunc.obj
 0001:000208f0       _monster_cine3_scientist   100218f0 f   linkfunc.obj
 0001:00020930       _monster_cine_barney       10021930 f   linkfunc.obj
 0001:00020970       _monster_cine_panther      10021970 f   linkfunc.obj
 0001:000209b0       _monster_cine_scientist    100219b0 f   linkfunc.obj
 0001:000209f0       _monster_cockroach         100219f0 f   linkfunc.obj
 0001:00020a30       _monster_flyer             10021a30 f   linkfunc.obj
 0001:00020a70       _monster_flyer_flock       10021a70 f   linkfunc.obj
 0001:00020ab0       _monster_furniture         10021ab0 f   linkfunc.obj
 0001:00020af0       _monster_gargantua         10021af0 f   linkfunc.obj
 0001:00020b30       _monster_generic           10021b30 f   linkfunc.obj
 0001:00020b70       _monster_gman              10021b70 f   linkfunc.obj
 0001:00020bb0       _monster_grunt_repel       10021bb0 f   linkfunc.obj
 0001:00020bf0       _monster_headcrab          10021bf0 f   linkfunc.obj
 0001:00020c30       _monster_hevsuit_dead      10021c30 f   linkfunc.obj
 0001:00020c70       _monster_hgrunt_dead       10021c70 f   linkfunc.obj
 0001:00020cb0       _monster_houndeye          10021cb0 f   linkfunc.obj
 0001:00020cf0       _monster_human_assassin    10021cf0 f   linkfunc.obj
 0001:00020d30       _monster_human_grunt       10021d30 f   linkfunc.obj
 0001:00020d70       _monster_ichthyosaur       10021d70 f   linkfunc.obj
 0001:00020db0       _monster_leech             10021db0 f   linkfunc.obj
 0001:00020df0       _monster_miniturret        10021df0 f   linkfunc.obj
 0001:00020e30       _monster_mortar            10021e30 f   linkfunc.obj
 0001:00020e70       _monster_nihilanth         10021e70 f   linkfunc.obj
 0001:00020eb0       _monster_osprey            10021eb0 f   linkfunc.obj
 0001:00020ef0       _monster_rat               10021ef0 f   linkfunc.obj
 0001:00020f30       _monster_satchel           10021f30 f   linkfunc.obj
 0001:00020f70       _monster_scientist         10021f70 f   linkfunc.obj
 0001:00020fb0       _monster_scientist_dead    10021fb0 f   linkfunc.obj
 0001:00020ff0       _monster_sentry            10021ff0 f   linkfunc.obj
 0001:00021030       _monster_sitting_scientist 10022030 f   linkfunc.obj
 0001:00021070       _monster_snark             10022070 f   linkfunc.obj
 0001:000210b0       _monster_tentacle          100220b0 f   linkfunc.obj
 0001:000210f0       _monster_tentaclemaw       100220f0 f   linkfunc.obj
 0001:00021130       _monster_tripmine          10022130 f   linkfunc.obj
 0001:00021170       _monster_turret            10022170 f   linkfunc.obj
 0001:000211b0       _monster_vortigaunt        100221b0 f   linkfunc.obj
 0001:000211f0       _monster_zombie            100221f0 f   linkfunc.obj
 0001:00021230       _multisource               10022230 f   linkfunc.obj
 0001:00021270       _multi_manager             10022270 f   linkfunc.obj
 0001:000212b0       _nihilanth_energy_ball     100222b0 f   linkfunc.obj
 0001:000212f0       _node_viewer               100222f0 f   linkfunc.obj
 0001:00021330       _node_viewer_fly           10022330 f   linkfunc.obj
 0001:00021370       _node_viewer_human         10022370 f   linkfunc.obj
 0001:000213b0       _node_viewer_large         100223b0 f   linkfunc.obj
 0001:000213f0       _path_corner               100223f0 f   linkfunc.obj
 0001:00021430       _path_track                10022430 f   linkfunc.obj
 0001:00021470       _player                    10022470 f   linkfunc.obj
 0001:000214b0       _player_loadsaved          100224b0 f   linkfunc.obj
 0001:000214f0       _player_weaponstrip        100224f0 f   linkfunc.obj
 0001:00021530       _rpg_rocket                10022530 f   linkfunc.obj
 0001:00021570       _scripted_sentence         10022570 f   linkfunc.obj
 0001:000215b0       _scripted_sequence         100225b0 f   linkfunc.obj
 0001:000215f0       _soundent                  100225f0 f   linkfunc.obj
 0001:00021630       _spark_shower              10022630 f   linkfunc.obj
 0001:00021670       _speaker                   10022670 f   linkfunc.obj
 0001:000216b0       _squidspit                 100226b0 f   linkfunc.obj
 0001:000216f0       _streak_spiral             100226f0 f   linkfunc.obj
 0001:00021730       _target_cdaudio            10022730 f   linkfunc.obj
 0001:00021770       _test_effect               10022770 f   linkfunc.obj
 0001:000217b0       _testhull                  100227b0 f   linkfunc.obj
 0001:000217f0       _trigger                   100227f0 f   linkfunc.obj
 0001:00021830       _trigger_auto              10022830 f   linkfunc.obj
 0001:00021870       _trigger_autosave          10022870 f   linkfunc.obj
 0001:000218b0       _trigger_camera            100228b0 f   linkfunc.obj
 0001:000218f0       _trigger_cdaudio           100228f0 f   linkfunc.obj
 0001:00021930       _trigger_changelevel       10022930 f   linkfunc.obj
 0001:00021970       _trigger_changetarget      10022970 f   linkfunc.obj
 0001:000219b0       _trigger_counter           100229b0 f   linkfunc.obj
 0001:000219f0       _trigger_endsection        100229f0 f   linkfunc.obj
 0001:00021a30       _trigger_gravity           10022a30 f   linkfunc.obj
 0001:00021a70       _trigger_hurt              10022a70 f   linkfunc.obj
 0001:00021ab0       _trigger_monsterjump       10022ab0 f   linkfunc.obj
 0001:00021af0       _trigger_multiple          10022af0 f   linkfunc.obj
 0001:00021b30       _trigger_once              10022b30 f   linkfunc.obj
 0001:00021b70       _trigger_push              10022b70 f   linkfunc.obj
 0001:00021bb0       _trigger_relay             10022bb0 f   linkfunc.obj
 0001:00021bf0       _trigger_teleport          10022bf0 f   linkfunc.obj
 0001:00021c30       _trigger_transition        10022c30 f   linkfunc.obj
 0001:00021c70       _weapon_357                10022c70 f   linkfunc.obj
 0001:00021cb0       _weapon_9mmAR              10022cb0 f   linkfunc.obj
 0001:00021cf0       _weapon_9mmhandgun         10022cf0 f   linkfunc.obj
 0001:00021d30       _weapon_crossbow           10022d30 f   linkfunc.obj
 0001:00021d70       _weapon_crowbar            10022d70 f   linkfunc.obj
 0001:00021db0       _weapon_egon               10022db0 f   linkfunc.obj
 0001:00021df0       _weapon_gauss              10022df0 f   linkfunc.obj
 0001:00021e30       _weapon_glock              10022e30 f   linkfunc.obj
 0001:00021e70       _weapon_handgrenade        10022e70 f   linkfunc.obj
 0001:00021eb0       _weapon_hornetgun          10022eb0 f   linkfunc.obj
 0001:00021ef0       _weapon_mp5                10022ef0 f   linkfunc.obj
 0001:00021f30       _weapon_python             10022f30 f   linkfunc.obj
 0001:00021f70       _weapon_rpg                10022f70 f   linkfunc.obj
 0001:00021fb0       _weapon_satchel            10022fb0 f   linkfunc.obj
 0001:00021ff0       _weapon_shotgun            10022ff0 f   linkfunc.obj
 0001:00022030       _weapon_snark              10023030 f   linkfunc.obj
 0001:00022070       _weapon_tripmine           10023070 f   linkfunc.obj
 0001:000220b0       _weaponbox                 100230b0 f   linkfunc.obj
 0001:000220f0       _worldspawn                100230f0 f   linkfunc.obj
 0001:00022130       _world_items               10023130 f   linkfunc.obj
 0001:00022170       _xen_hair                  10023170 f   linkfunc.obj
 0001:000221b0       _xen_hull                  100231b0 f   linkfunc.obj
 0001:000221f0       _xen_plantlight            100231f0 f   linkfunc.obj
 0001:00022230       _xen_spore_large           10023230 f   linkfunc.obj
 0001:00022270       _xen_spore_medium          10023270 f   linkfunc.obj
 0001:000222b0       _xen_spore_small           100232b0 f   linkfunc.obj
 0001:000222f0       _xen_tree                  100232f0 f   linkfunc.obj
 0001:00022330       _xen_ttrigger              10023330 f   linkfunc.obj
 0001:00022370       _entity_botcam             10023370 f   linkfunc.obj
 0001:000223b0       _CTF_Map                   100233b0 f   linkfunc.obj
 0001:000223f0       _info_areadef              100233f0 f   linkfunc.obj
 0001:00022430       _info_tf_teamcheck         10023430 f   linkfunc.obj
 0001:00022470       _info_tf_teamset           10023470 f   linkfunc.obj
 0001:000224b0       _func_nogrenades           100234b0 f   linkfunc.obj
 0001:000224f0       _building_dispenser        100234f0 f   linkfunc.obj
 0001:00022530       _building_sentrygun        10023530 f   linkfunc.obj
 0001:00022570       _building_sentrygun_base   10023570 f   linkfunc.obj
 0001:000225b0       _detpack                   100235b0 f   linkfunc.obj
 0001:000225f0       _func_nobuild              100235f0 f   linkfunc.obj
 0001:00022630       _ghost                     10023630 f   linkfunc.obj
 0001:00022670       _info_player_teamspawn     10023670 f   linkfunc.obj
 0001:000226b0       _info_tfdetect             100236b0 f   linkfunc.obj
 0001:000226f0       _info_tfgoal               100236f0 f   linkfunc.obj
 0001:00022730       _info_tfgoal_timer         10023730 f   linkfunc.obj
 0001:00022770       _item_armor1               10023770 f   linkfunc.obj
 0001:000227b0       _item_armor2               100237b0 f   linkfunc.obj
 0001:000227f0       _item_armor3               100237f0 f   linkfunc.obj
 0001:00022830       _item_artifact_envirosuit  10023830 f   linkfunc.obj
 0001:00022870       _item_artifact_invisibility 10023870 f   linkfunc.obj
 0001:000228b0       _item_artifact_invulnerability 100238b0 f   linkfunc.obj
 0001:000228f0       _item_artifact_super_damage 100238f0 f   linkfunc.obj
 0001:00022930       _item_cells                10023930 f   linkfunc.obj
 0001:00022970       _item_health               10023970 f   linkfunc.obj
 0001:000229b0       _item_rockets              100239b0 f   linkfunc.obj
 0001:000229f0       _item_shells               100239f0 f   linkfunc.obj
 0001:00022a30       _item_spikes               10023a30 f   linkfunc.obj
 0001:00022a70       _item_tfgoal               10023a70 f   linkfunc.obj
 0001:00022ab0       _i_p_t                     10023ab0 f   linkfunc.obj
 0001:00022af0       _i_t_g                     10023af0 f   linkfunc.obj
 0001:00022b30       _i_t_t                     10023b30 f   linkfunc.obj
 0001:00022b70       _teledeath                 10023b70 f   linkfunc.obj
 0001:00022bb0       _tf_ammo_rpgclip           10023bb0 f   linkfunc.obj
 0001:00022bf0       _tf_flame                  10023bf0 f   linkfunc.obj
 0001:00022c30       _tf_flamethrower_burst     10023c30 f   linkfunc.obj
 0001:00022c70       _tf_gl_grenade             10023c70 f   linkfunc.obj
 0001:00022cb0       _tf_ic_rocket              10023cb0 f   linkfunc.obj
 0001:00022cf0       _tf_nailgun_nail           10023cf0 f   linkfunc.obj
 0001:00022d30       _tf_rpg_rocket             10023d30 f   linkfunc.obj
 0001:00022d70       _tf_weapon_ac              10023d70 f   linkfunc.obj
 0001:00022db0       _tf_weapon_autorifle       10023db0 f   linkfunc.obj
 0001:00022df0       _tf_weapon_axe             10023df0 f   linkfunc.obj
 0001:00022e30       _tf_weapon_caltrop         10023e30 f   linkfunc.obj
 0001:00022e70       _tf_weapon_caltropgrenade  10023e70 f   linkfunc.obj
 0001:00022eb0       _tf_weapon_concussiongrenade 10023eb0 f   linkfunc.obj
 0001:00022ef0       _tf_weapon_empgrenade      10023ef0 f   linkfunc.obj
 0001:00022f30       _tf_weapon_flamethrower    10023f30 f   linkfunc.obj
 0001:00022f70       _tf_weapon_gasgrenade      10023f70 f   linkfunc.obj
 0001:00022fb0       _tf_weapon_genericprimedgrenade 10023fb0 f   linkfunc.obj
 0001:00022ff0       _tf_weapon_gl              10023ff0 f   linkfunc.obj
 0001:00023030       _tf_weapon_ic              10024030 f   linkfunc.obj
 0001:00023070       _tf_weapon_knife           10024070 f   linkfunc.obj
 0001:000230b0       _tf_weapon_medikit         100240b0 f   linkfunc.obj
 0001:000230f0       _tf_weapon_mirvbomblet     100240f0 f   linkfunc.obj
 0001:00023130       _tf_weapon_mirvgrenade     10024130 f   linkfunc.obj
 0001:00023170       _tf_weapon_nailgrenade     10024170 f   linkfunc.obj
 0001:000231b0       _tf_weapon_napalmgrenade   100241b0 f   linkfunc.obj
 0001:000231f0       _tf_weapon_ng              100241f0 f   linkfunc.obj
 0001:00023230       _tf_weapon_normalgrenade   10024230 f   linkfunc.obj
 0001:00023270       _tf_weapon_pl              10024270 f   linkfunc.obj
 0001:000232b0       _tf_weapon_railgun         100242b0 f   linkfunc.obj
 0001:000232f0       _tf_weapon_rpg             100242f0 f   linkfunc.obj
 0001:00023330       _tf_weapon_shotgun         10024330 f   linkfunc.obj
 0001:00023370       _tf_weapon_sniperrifle     10024370 f   linkfunc.obj
 0001:000233b0       _tf_weapon_spanner         100243b0 f   linkfunc.obj
 0001:000233f0       _tf_weapon_superng         100243f0 f   linkfunc.obj
 0001:00023430       _tf_weapon_supershotgun    10024430 f   linkfunc.obj
 0001:00023470       _tf_weapon_tranq           10024470 f   linkfunc.obj
 0001:000234b0       _timer                     100244b0 f   linkfunc.obj
 0001:000234f0       ?CheckMap@@YAHPBD@Z        100244f0 f   mapvoting.obj
 0001:00023560       ?VoteCast@@YAXPAUedict_s@@PBD@Z 10024560 f   mapvoting.obj
 0001:000237a0       ?VoteStart@@YAXPAUedict_s@@@Z 100247a0 f   mapvoting.obj
 0001:00023b10       ?VoteEnd@@YAXXZ            10024b10 f   mapvoting.obj
 0001:00023d30       ?CancelMapVote@@YAXXZ      10024d30 f   mapvoting.obj
 0001:00023d90       ?SayWinningMap@@YAXXZ      10024d90 f   mapvoting.obj
 0001:00023f50       ?SayNextMap@@YAXXZ         10024f50 f   mapvoting.obj
 0001:00023f90       ?DropFlag@@YAXPAUedict_s@@@Z 10024f90 f   mediflag.obj
 0001:00024230       ?MediFlagThink@@YA_NPAUedict_s@@@Z 10025230 f   mediflag.obj
 0001:000243e0       ?DestroyFlag@@YAXPAUedict_s@@H@Z 100253e0 f   mediflag.obj
 0001:000244e0       ?DropMailFlag@@YAXPAUedict_s@@PBD@Z 100254e0 f   messageflag.obj
 0001:000247f0       ?MailFlagThink@@YA_NPAUedict_s@@@Z 100257f0 f   messageflag.obj
 0001:000248e0       ?DestroyMailFlag@@YAXPAUedict_s@@@Z 100258e0 f   messageflag.obj
 0001:00024980       ?PrecacheResources@@YAXXZ  10025980 f   modelprecache.obj
 0001:00026b80       ?MakePlayersShine@@YAXXZ   10027b80 f   nightgame.obj
 0001:00026c00       ?NAOChecks@@YAXXZ          10027c00 f   nightgame.obj
 0001:00026cb0       ?BLDChecks@@YAXXZ          10027cb0 f   nightgame.obj
 0001:00026cf0       ?AdmForceBlue@@YAXPAUedict_s@@PBD@Z 10027cf0 f   playercommands.obj
 0001:00026dd0       ?AdmForceRed@@YAXPAUedict_s@@PBD@Z 10027dd0 f   playercommands.obj
 0001:00026eb0       ?AdmForceYellow@@YAXPAUedict_s@@PBD@Z 10027eb0 f   playercommands.obj
 0001:00026f90       ?AdmForceGreen@@YAXPAUedict_s@@PBD@Z 10027f90 f   playercommands.obj
 0001:00027070       ?AdmClientExecute@@YAXPAUedict_s@@PBD1@Z 10028070 f   playercommands.obj
 0001:00027130       ?AdmVoxToEveryone@@YAXPAUedict_s@@PBD@Z 10028130 f   playercommands.obj
 0001:000271e0       ?AdmExecuteToAll@@YAXPAUedict_s@@PBD@Z 100281e0 f   playercommands.obj
 0001:00027280       ?AdmMoveHere@@YAXPAUedict_s@@PBD@Z 10028280 f   playercommands.obj
 0001:00027330       ?AdmMoveThere@@YAXPAUedict_s@@PBD@Z 10028330 f   playercommands.obj
 0001:000273e0       ?AdmChangeClass@@YAXPAUedict_s@@PBD1@Z 100283e0 f   playercommands.obj
 0001:00027490       ?AdmTakeGuns@@YAXPAUedict_s@@PBD@Z 10028490 f   playercommands.obj
 0001:00027590       ?AdmSpray@@YAXPAUedict_s@@PBD@Z 10028590 f   playercommands.obj
 0001:00027630       ?AdmAllowVote@@YAXPAUedict_s@@PBD@Z 10028630 f   playercommands.obj
 0001:000276d0       ?AdmWarn@@YAXPAUedict_s@@PBD@Z 100286d0 f   playercommands.obj
 0001:00027780       ?AdmSetCustomSpawn@@YAXPAUedict_s@@PBD@Z 10028780 f   playercommands.obj
 0001:00027840       ?AdmKillCustomSpawn@@YAXPAUedict_s@@PBD@Z 10028840 f   playercommands.obj
 0001:00027910       ?AdmSetTime@@YAXPAUedict_s@@PBDH@Z 10028910 f   playercommands.obj
 0001:00027990       ?PrivateMessage@@YAXPAUedict_s@@PBD1@Z 10028990 f   playercommands.obj
 0001:00027bf0       ?AdmAllowSpec@@YAXPAUedict_s@@PBD@Z 10028bf0 f   playercommands.obj
 0001:00027c50       ?AdmMsgBox@@YAXPAUedict_s@@PBD@Z 10028c50 f   playercommands.obj
 0001:00027cf0       ?TFXPlayerPreThink@@YAHPAUedict_s@@@Z 10028cf0 f   playerstuff.obj
 0001:00028cd0       ?AntiCamp@@YAXPAUedict_s@@@Z 10029cd0 f   playerstuff.obj
 0001:00028d60       ?AntiCampOver@@YAXPAUedict_s@@@Z 10029d60 f   playerstuff.obj
 0001:00028db0       ?CustomGunModelSwitch@@YAXPAUedict_s@@@Z 10029db0 f   playerstuff.obj
 0001:00029060       ?InitInterface@@YAXXZ      1002a060 f   plugin_api.obj
 0001:00029443       ?GetPlayerFromIndex@@YAPAUedict_s@@H@Z 1002a443 f   plugin_api.obj
 0001:0002946e       ?GetPluginInterfaceVer@@YAMXZ 1002a46e f   plugin_api.obj
 0001:00029479       ?GetName@@YAPADH@Z         1002a479 f   plugin_api.obj
 0001:000294c5       ?GetAuthID@@YAPADH@Z       1002a4c5 f   plugin_api.obj
 0001:00029509       ?GetUserID@@YAHH@Z         1002a509 f   plugin_api.obj
 0001:00029546       ?IndexFromText@@YAHPAD@Z   1002a546 f   plugin_api.obj
 0001:00029559       ?GetCredits@@YAHH@Z        1002a559 f   plugin_api.obj
 0001:0002958a       ?SetCredits@@YAHHH@Z       1002a58a f   plugin_api.obj
 0001:000295c0       ?GetTime@@YAJH@Z           1002a5c0 f   plugin_api.obj
 0001:000295f1       ?GetOrigName@@YAPADH@Z     1002a5f1 f   plugin_api.obj
 0001:00029637       ?PluginGetRank@@YAPADH@Z   1002a637 f   plugin_api.obj
 0001:00029694       ?Set_Ammo_Shells@@YAHHH@Z  1002a694 f   plugin_api.obj
 0001:000296cd       ?Get_Ammo_Shells@@YAHH@Z   1002a6cd f   plugin_api.obj
 0001:00029700       ?Set_Ammo_Nails@@YAHHH@Z   1002a700 f   plugin_api.obj
 0001:00029739       ?Get_Ammo_Nails@@YAHH@Z    1002a739 f   plugin_api.obj
 0001:0002976c       ?Set_Ammo_Rockets@@YAHHH@Z 1002a76c f   plugin_api.obj
 0001:000297a5       ?Get_Ammo_Rockets@@YAHH@Z  1002a7a5 f   plugin_api.obj
 0001:000297d8       ?Set_Ammo_Cells@@YAHHH@Z   1002a7d8 f   plugin_api.obj
 0001:00029811       ?Get_Ammo_Cells@@YAHH@Z    1002a811 f   plugin_api.obj
 0001:00029844       ?Set_Ammo_Gren1@@YAHHH@Z   1002a844 f   plugin_api.obj
 0001:0002987a       ?Get_Ammo_Gren1@@YAHH@Z    1002a87a f   plugin_api.obj
 0001:000298aa       ?Set_Ammo_Gren2@@YAHHH@Z   1002a8aa f   plugin_api.obj
 0001:000298e0       ?Get_Ammo_Gren2@@YAHH@Z    1002a8e0 f   plugin_api.obj
 0001:00029910       ?Set_Ammo_Proxmine@@YAHHH@Z 1002a910 f   plugin_api.obj
 0001:00029946       ?Get_Ammo_Proxmine@@YAHH@Z 1002a946 f   plugin_api.obj
 0001:00029977       ?Set_Ammo_Snarks@@YAHHH@Z  1002a977 f   plugin_api.obj
 0001:000299ad       ?Get_Ammo_Snarks@@YAHH@Z   1002a9ad f   plugin_api.obj
 0001:000299de       ?Set_Ammo_C4@@YAHHH@Z      1002a9de f   plugin_api.obj
 0001:00029a14       ?Get_Ammo_C4@@YAHH@Z       1002aa14 f   plugin_api.obj
 0001:00029a45       ?Set_Ammo_Tripmine@@YAHHH@Z 1002aa45 f   plugin_api.obj
 0001:00029a7b       ?Get_Ammo_Tripmine@@YAHH@Z 1002aa7b f   plugin_api.obj
 0001:00029aac       ?ResetBuild@@YAHHH@Z       1002aaac f   plugin_api.obj
 0001:00029b4d       ?Plugin_Gag@@YAHH@Z        1002ab4d f   plugin_api.obj
 0001:00029b84       ?Plugin_UnGag@@YAHH@Z      1002ab84 f   plugin_api.obj
 0001:00029bbb       ?Plugin_Invis@@YAHHH@Z     1002abbb f   plugin_api.obj
 0001:00029c33       ?Plugin_Godmode@@YAHHH@Z   1002ac33 f   plugin_api.obj
 0001:00029c79       ?Plugin_Noclip@@YAHHH@Z    1002ac79 f   plugin_api.obj
 0001:00029cbf       ?Plugin_Glow@@YAHHHHHH@Z   1002acbf f   plugin_api.obj
 0001:00029d2d       ?Set_Playerclass@@YAHHH@Z  1002ad2d f   plugin_api.obj
 0001:00029d5d       ?Get_Playerclass@@YAHH@Z   1002ad5d f   plugin_api.obj
 0001:00029d88       ?Set_Armor@@YAHHH@Z        1002ad88 f   plugin_api.obj
 0001:00029db8       ?Get_Armor@@YAHH@Z         1002adb8 f   plugin_api.obj
 0001:00029de8       ?Set_Health@@YAHHH@Z       1002ade8 f   plugin_api.obj
 0001:00029e18       ?Get_Health@@YAHH@Z        1002ae18 f   plugin_api.obj
 0001:00029e48       ?Set_CustomSkin@@YAHHH@Z   1002ae48 f   plugin_api.obj
 0001:00029e7c       ?Get_CustomSkin@@YAHH@Z    1002ae7c f   plugin_api.obj
 0001:00029eaa       ?Set_AdminAccess@@YAHHH@Z  1002aeaa f   plugin_api.obj
 0001:00029ee0       ?Get_AdminAccess@@YAHH@Z   1002aee0 f   plugin_api.obj
 0001:00029f11       ?Set_View@@YAHHH@Z         1002af11 f   plugin_api.obj
 0001:00029f55       ?Plugin_Color_Trail@@YAHHHHH@Z 1002af55 f   plugin_api.obj
 0001:0002a04a       ?Plugin_Client_Command@@YAHHPAD@Z 1002b04a f   plugin_api.obj
 0001:0002a07f       ?Plugin_Set_Origin@@YAHHHHH@Z 1002b07f f   plugin_api.obj
 0001:0002a0c7       ?Plugin_Get_Origin@@YAHHAAH00@Z 1002b0c7 f   plugin_api.obj
 0001:0002a124       ?Plugin_Hurt@@YAHHHH@Z     1002b124 f   plugin_api.obj
 0001:0002a161       ?Plugin_Set_Velocity@@YAHHMMM@Z 1002b161 f   plugin_api.obj
 0001:0002a1a9       ?Get_Client_KeyValue@@YAPADHPAD@Z 1002b1a9 f   plugin_api.obj
 0001:0002a203       ?Set_Client_KeyValue@@YAHHPAD0@Z 1002b203 f   plugin_api.obj
 0001:0002a25b       ?HasFencepost@@YAHH@Z      1002b25b f   plugin_api.obj
 0001:0002a297       ?HasManualTurret@@YAHH@Z   1002b297 f   plugin_api.obj
 0001:0002a2d3       ?HasC4@@YAHH@Z             1002b2d3 f   plugin_api.obj
 0001:0002a333       ?HasProxmine@@YAHH@Z       1002b333 f   plugin_api.obj
 0001:0002a393       ?HasTripmine@@YAHH@Z       1002b393 f   plugin_api.obj
 0001:0002a3f3       ?InStealth@@YAHH@Z         1002b3f3 f   plugin_api.obj
 0001:0002a42f       ?HasPackBomb@@YAHH@Z       1002b42f f   plugin_api.obj
 0001:0002a436       ?HasSuperFlame@@YAHH@Z     1002b436 f   plugin_api.obj
 0001:0002a496       ?HasSentryGun@@YAHH@Z      1002b496 f   plugin_api.obj
 0001:0002a4d2       ?HasDispenser@@YAHH@Z      1002b4d2 f   plugin_api.obj
 0001:0002a50e       ?TextMessage@@YAHHHPADZZ   1002b50e f   plugin_api.obj
 0001:0002a5df       ?ColorMessage@@YAHHHHHHHHHHHPADZZ 1002b5df f   plugin_api.obj
 0001:0002a6e1       ?Plugin_ScreenShake@@YAHM@Z 1002b6e1 f   plugin_api.obj
 0001:0002a712       ?Plugin_ScreenFade@@YAHHHHH@Z 1002b712 f   plugin_api.obj
 0001:0002a754       ?Plugin_StartMapVote@@YAXXZ 1002b754 f   plugin_api.obj
 0001:0002a763       ?Plugin_EndMapVote@@YAXXZ  1002b763 f   plugin_api.obj
 0001:0002a76d       ?Plugin_CancelMapVote@@YAXXZ 1002b76d f   plugin_api.obj
 0001:0002a777       ?Plugin_ResponseBotSay@@YAHPADZZ 1002b777 f   plugin_api.obj
 0001:0002a7fa       ?Plugin_LogWrite@@YAHPAD@Z 1002b7fa f   plugin_api.obj
 0001:0002a80d       ?Get_Cvar@@YAPADPAD@Z      1002b80d f   plugin_api.obj
 0001:0002a832       ?Set_CvarString@@YAXPAD0@Z 1002b832 f   plugin_api.obj
 0001:0002a848       ?Set_CvarFloat@@YAXPADM@Z  1002b848 f   plugin_api.obj
 0001:0002a85e       ?Get_Currentmap@@YAPADXZ   1002b85e f   plugin_api.obj
 0001:0002a88a       ?Get_Nextmap@@YAPADXZ      1002b88a f   plugin_api.obj
 0001:0002a8ec       ?Plugin_Server_Command@@YAXPAD@Z 1002b8ec f   plugin_api.obj
 0001:0002a8fe       ?Get_BotName1@@YAPADXZ     1002b8fe f   plugin_api.obj
 0001:0002a908       ?Get_BotName2@@YAPADXZ     1002b908 f   plugin_api.obj
 0001:0002a912       ?Plugin_PlayerCount@@YAHXZ 1002b912 f   plugin_api.obj
 0001:0002a997       ?PointTo@@YAHHH@Z          1002b997 f   plugin_api.obj
 0001:0002aab8       ?Plugin_Grunt@@YAX_NHHH@Z  1002bab8 f   plugin_api.obj
 0001:0002aad5       ?Plugin_Garg@@YAX_NHHH@Z   1002bad5 f   plugin_api.obj
 0001:0002aaf2       ?Plugin_Get_Time@@YAMXZ    1002baf2 f   plugin_api.obj
 0001:0002aafe       ?Plugin_ValidMap@@YAHPAD@Z 1002bafe f   plugin_api.obj
 0001:0002ab1d       ?Plugin_MessageBox@@YAXPAD@Z 1002bb1d f   plugin_api.obj
 0001:0002ac58       ?Plugin_WriteBack@@YAXXZ   1002bc58 f   plugin_api.obj
 0001:0002ac62       ?Plugin_CreateLight@@YAXHHHHHH@Z 1002bc62 f   plugin_api.obj
 0001:0002ad03       ?Plugin_CreateEntity@@YAXHHHHHHPAD@Z 1002bd03 f   plugin_api.obj
 0001:0002add6       ?Plugin_LoadEntLayout@@YAHPAD@Z 1002bdd6 f   plugin_api.obj
 0001:0002adf9       ?Plugin_UnloadEntLayout@@YAHPAD@Z 1002bdf9 f   plugin_api.obj
 0001:0002ae0e       ?Plugin_TriggerEntity@@YAXPAD@Z 1002be0e f   plugin_api.obj
 0001:0002ae8a       ?Plugin_RandomFloat@@YAMMM@Z 1002be8a f   plugin_api.obj
 0001:0002aea0       ?Plugin_RandomLong@@YAJJJ@Z 1002bea0 f   plugin_api.obj
 0001:0002aeb6       ?SkinNameFromIndex@@YAPADH@Z 1002beb6 f   plugin_api.obj
 0001:0002aedc       ?Get_TotalSkins@@YAHXZ     1002bedc f   plugin_api.obj
 0001:0002aef0       ?INDEXENT@@YAPAUedict_s@@H@Z 1002bef0 f i plugin_api.obj
 0001:0002af10       ?MESSAGE_BEGIN@@YAXHHPBMPAUedict_s@@@Z 1002bf10 f i plugin_api.obj
 0001:0002af30       ?ENTINDEX@@YAHPAUedict_s@@@Z 1002bf30 f i plugin_api.obj
 0001:0002af50       ?entindex@CBaseEntity@@QAEHXZ 1002bf50 f i plugin_api.obj
 0001:0002af70       ?edict@CBaseEntity@@QAEPAUedict_s@@XZ 1002bf70 f i plugin_api.obj
 0001:0002af90       ?ENT@@YAPAUedict_s@@PBUentvars_s@@@Z 1002bf90 f i plugin_api.obj
 0001:0002afa0       ?FStrEq@@YAHPBD0@Z         1002bfa0 f i plugin_api.obj
 0001:0002afc0       ??0Vector@@QAE@XZ          1002bfc0 f i plugin_api.obj
 0001:0002afd0       ??HVector@@QBE?AV0@ABV0@@Z 1002bfd0 f i plugin_api.obj
 0001:0002b030       ??DVector@@QBE?AV0@M@Z     1002c030 f i plugin_api.obj
 0001:0002b080       ??0TraceResult@@QAE@XZ     1002c080 f i plugin_api.obj
 0001:0002b0b0       ?VARS@@YAPAUentvars_s@@PAUedict_s@@@Z 1002c0b0 f i plugin_api.obj
 0001:0002b0d0       ?FNullEnt@@YAHPBUedict_s@@@Z 1002c0d0 f i plugin_api.obj
 0001:0002b110       ?OFFSET@@YAHPBUedict_s@@@Z 1002c110 f i plugin_api.obj
 0001:0002b130       ?FNullEnt@@YAHH@Z          1002c130 f i plugin_api.obj
 0001:0002b140       ?GetProcAddresses2@@YAHPAPAUHINSTANCE__@@HZZ 1002c140 f   plugins.obj
 0001:0002b1a0       ?LoadPlugins@@YAXXZ        1002c1a0 f   plugins.obj
 0001:0002b2a0       ?LoadAPlugin@@YAXPAD@Z     1002c2a0 f   plugins.obj
 0001:0002b370       ?UnloadPlugins@@YAXXZ      1002c370 f   plugins.obj
 0001:0002b3d0       ?PluginsThink@@YAXXZ       1002c3d0 f   plugins.obj
 0001:0002b420       ?PluginsClientDisconnect@@YAXH@Z 1002c420 f   plugins.obj
 0001:0002b480       ?PluginsClientConnect@@YAXHPBD0@Z 1002c480 f   plugins.obj
 0001:0002b4e0       ?PluginsClientCommand@@YA_NHPBD0@Z 1002c4e0 f   plugins.obj
 0001:0002b560       ?DropMine@@YAXPAUedict_s@@@Z 1002c560 f   proxmine.obj
 0001:0002b900       ?DetonateMines@@YAXPAUedict_s@@H@Z 1002c900 f   proxmine.obj
 0001:0002ba80       ?ProxMineThink@@YA_NPAUedict_s@@@Z 1002ca80 f   proxmine.obj
 0001:0002bdb0       ?GetRank@@YAHJ@Z           1002cdb0 f   ranks.obj
 0001:0002be10       ?JustChangedRank@@YA_NJ@Z  1002ce10 f   ranks.obj
 0001:0002be40       ?NextRankAmount@@YAHJ@Z    1002ce40 f   ranks.obj
 0001:0002beb0       ?BotTalkAll@@YAXPAD@Z      1002ceb0 f   responsebot.obj
 0001:0002bef0       ?BotTalkOneArgs@@YAXPAUedict_s@@PADZZ 1002cef0 f   responsebot.obj
 0001:0002bf80       ?BotTalkAllArgs@@YAXPADZZ  1002cf80 f   responsebot.obj
 0001:0002bff0       ?BotTalkOne@@YAXPAUedict_s@@PAD@Z 1002cff0 f   responsebot.obj
 0001:0002c040       ?BotCom@@YAXPAUedict_s@@PBDH@Z 1002d040 f   responsebot.obj
 0001:0002e2d0       ?RevivePlayer@@YAXPAUedict_s@@@Z 1002f2d0 f   revive.obj
 0001:0002e350       ?MediRevive@@YAXPAUedict_s@@@Z 1002f350 f   revive.obj
 0001:0002e480       ?ReSupplyPlayer@@YAXPAUedict_s@@@Z 1002f480 f   revive.obj
 0001:0002e5d0       ?HandleServerCommands@@YAXXZ 1002f5d0 f   servercommands.obj
 0001:0002e8c0       ?ApplySkin@@YAXPAUedict_s@@H@Z 1002f8c0 f   skins.obj
 0001:0002ed40       ?KillSkin@@YAXPAUedict_s@@@Z 1002fd40 f   skins.obj
 0001:0002ee60       ?InitSkins@@YAXXZ          1002fe60 f   skins.obj
 0001:0002f170       ?SkinThink@@YA_NPAUedict_s@@@Z 10030170 f   skins.obj
 0001:0002f570       ?SayCurrentSkin@@YAXPAUedict_s@@@Z 10030570 f   skins.obj
 0001:0002f660       ?GetPlayerSkinIndex@@YAHPAUedict_s@@@Z 10030660 f   skins.obj
 0001:0002f6f0       ?ThrowSnark@@YAXPAUedict_s@@@Z 100306f0 f   snarks.obj
 0001:0002fbe0       ?SnarkThink@@YA_NPAUedict_s@@@Z 10030be0 f   snarks.obj
 0001:000302f0       ?FindVictim@@YAPAUedict_s@@PAU1@H@Z 100312f0 f   snarks.obj
 0001:00030440       ?EnemyIsVisible@@YAHPAUedict_s@@0@Z 10031440 f   snarks.obj
 0001:000304c0       ?KillSnark@@YAXPAUedict_s@@@Z 100314c0 f   snarks.obj
 0001:000305a0       ?ActivateStealth@@YAXPAUedict_s@@@Z 100315a0 f   stealth.obj
 0001:000307b0       ?StealthEntThink@@YA_NPAUedict_s@@@Z 100317b0 f   stealth.obj
 0001:00030b10       ?DeactivateStealth@@YAXPAUedict_s@@@Z 10031b10 f   stealth.obj
 0001:00030c00       ?ChargeFlame@@YAXPAUedict_s@@@Z 10031c00 f   superflame.obj
 0001:00030ed0       ?StartFlameThink@@YA_NPAUedict_s@@@Z 10031ed0 f   superflame.obj
 0001:00031160       ?CancelFlame@@YAXPAUedict_s@@@Z 10032160 f   superflame.obj
 0001:00031210       ?DoTheFlame@@YAXVVector@@PAUedict_s@@@Z 10032210 f   superflame.obj
 0001:000313a0       ?SuperFlameThink@@YA_NPAUedict_s@@@Z 100323a0 f   superflame.obj
 0001:00031620       ?SwitchToTazar@@YAXPAUedict_s@@@Z 10032620 f   tazar.obj
 0001:000316f0       ?FireTazar@@YAXPAUedict_s@@@Z 100326f0 f   tazar.obj
 0001:00031a60       ?AdmCreateTeleStart@@YAXPAUedict_s@@PBD@Z 10032a60 f   teleporters.obj
 0001:00031ba0       ?AdmCreateTeleEnd@@YAXPAUedict_s@@PBD@Z 10032ba0 f   teleporters.obj
 0001:00031da0       ?AdmKillTeleStructure@@YAXPAUedict_s@@PBD@Z 10032da0 f   teleporters.obj
 0001:00031f10       _ao_tfc_gun                10032f10 f   testentity.obj
 0001:00031f20       ?Spawn@CAutoOPGun@@UAEXXZ  10032f20 f   testentity.obj
 0001:00031fa0       ?KeyValue@CAutoOPGun@@UAEXPAUKeyValueData_s@@@Z 10032fa0 f   testentity.obj
 0001:00031fb0       ?Think@CAutoOPGun@@UAEXXZ  10032fb0 f   testentity.obj
 0001:00031fb0       ?RotateBrush@@YAXPAUedict_s@@@Z 10032fb0 f   testentity.obj
 0001:00031fb0       ?Precache@CAutoOPGun@@UAEXXZ 10032fb0 f   testentity.obj
 0001:00031fc0       ?GetClassPtr@@YAPAVCAutoOPGun@@PAV1@@Z 10032fc0 f i testentity.obj
 0001:00032010       ?Save@CAutoOPGun@@UAEHAAVCSave@@@Z 10033010 f i testentity.obj
 0001:00032010       ?Restore@CAutoOPGun@@UAEHAAVCRestore@@@Z 10033010 f i testentity.obj
 0001:00032010       ?DamageDecal@CAutoOPGun@@UAEHH@Z 10033010 f i testentity.obj
 0001:00032020       ?ObjectCaps@CAutoOPGun@@UAEHXZ 10033020 f i testentity.obj
 0001:00032030       ?UpdateOwner@CAutoOPGun@@UAEXXZ 10033030 f i testentity.obj
 0001:00032030       ?StartSneaking@CAutoOPGun@@UAEXXZ 10033030 f i testentity.obj
 0001:00032030       ?id@?$ctype@G@std@@$E      10033030 f i testentity.obj
 0001:00032030       ?SetObjectCollisionBox@CAutoOPGun@@UAEXXZ 10033030 f i testentity.obj
 0001:00032030       ?StopSneaking@CAutoOPGun@@UAEXXZ 10033030 f i testentity.obj
 0001:00032030       ?Activate@CAutoOPGun@@UAEXXZ 10033030 f i testentity.obj
 0001:00032030       ?OverrideReset@CAutoOPGun@@UAEXXZ 10033030 f i testentity.obj
 0001:00032040       ?SetToggleState@CAutoOPGun@@UAEXH@Z 10033040 f i testentity.obj
 0001:00032040       ?Touch@CAutoOPGun@@UAEXPAVCBaseEntity@@@Z 10033040 f i testentity.obj
 0001:00032040       ?DeathNotice@CAutoOPGun@@UAEXPAUentvars_s@@@Z 10033040 f i testentity.obj
 0001:00032040       ?Blocked@CAutoOPGun@@UAEXPAVCBaseEntity@@@Z 10033040 f i testentity.obj
 0001:00032050       ?TraceAttack@CAutoOPGun@@UAEXPAUentvars_s@@MVVector@@PAUTraceResult@@H@Z 10033050 f i testentity.obj
 0001:00032060       ?TakeDamage@CAutoOPGun@@UAEHPAUentvars_s@@0MH@Z 10033060 f i testentity.obj
 0001:00032070       ?TakeHealth@CAutoOPGun@@UAEHMH@Z 10033070 f i testentity.obj
 0001:00032080       ?BloodColor@CAutoOPGun@@UAEHXZ 10033080 f i testentity.obj
 0001:00032090       ?TraceBleed@CAutoOPGun@@UAEXMVVector@@PAUTraceResult@@H@Z 10033090 f i testentity.obj
 0001:000320a0       ?IsTriggered@CAutoOPGun@@UAEHPAVCBaseEntity@@@Z 100330a0 f i testentity.obj
 0001:000320b0       ?ReflectGauss@CAutoOPGun@@UAEHXZ 100330b0 f i testentity.obj
 0001:000320b0       ?GetToggleState@CAutoOPGun@@UAEHXZ 100330b0 f i testentity.obj
 0001:000320b0       ?MySquadMonsterPointer@CBaseEntity@@UAEPAVCSquadMonster@@XZ 100330b0 f i testentity.obj
 0001:000320b0       ?IsBSPModel@CAutoOPGun@@UAEHXZ 100330b0 f i testentity.obj
 0001:000320b0       ?IsAlive@CAutoOPGun@@UAEHXZ 100330b0 f i testentity.obj
 0001:000320b0       ?IsNetClient@CAutoOPGun@@UAEHXZ 100330b0 f i testentity.obj
 0001:000320b0       ?IsSneaking@CAutoOPGun@@UAEHXZ 100330b0 f i testentity.obj
 0001:000320b0       ?Illumination@CAutoOPGun@@UAEHXZ 100330b0 f i testentity.obj
 0001:000320b0       ?IsPlayer@CAutoOPGun@@UAEHXZ 100330b0 f i testentity.obj
 0001:000320b0       ?IsInWorld@CAutoOPGun@@UAEHXZ 100330b0 f i testentity.obj
 0001:000320b0       ?Classify@CAutoOPGun@@UAEHXZ 100330b0 f i testentity.obj
 0001:000320b0       ?FBecomeProne@CAutoOPGun@@UAEHXZ 100330b0 f i testentity.obj
 0001:000320b0       ?MyMonsterPointer@CBaseEntity@@UAEPAVCBaseMonster@@XZ 100330b0 f i testentity.obj
 0001:000320c0       ?Killed@CAutoOPGun@@UAEXPAUentvars_s@@H@Z 100330c0 f i testentity.obj
 0001:000320c0       ?AddPointsToTeam@CAutoOPGun@@UAEXHH@Z 100330c0 f i testentity.obj
 0001:000320c0       ?AddPoints@CAutoOPGun@@UAEXHH@Z 100330c0 f i testentity.obj
 0001:000320d0       ?GiveAmmo@CAutoOPGun@@UAEHHPADH@Z 100330d0 f i testentity.obj
 0001:000320e0       ?GetDelay@CAutoOPGun@@UAEMXZ 100330e0 f i testentity.obj
 0001:000320f0       ?IsMoving@CAutoOPGun@@UAEHXZ 100330f0 f i testentity.obj
 0001:00032140       ?FVisible@CAutoOPGun@@UAEHABVVector@@@Z 10033140 f i testentity.obj
 0001:00032140       ?FVisible@CAutoOPGun@@UAEHPAVCBaseEntity@@@Z 10033140 f i testentity.obj
 0001:00032140       ?OnControls@CAutoOPGun@@UAEHPAUentvars_s@@@Z 10033140 f i testentity.obj
 0001:00032140       ?AddPlayerItem@CAutoOPGun@@UAEHPAVCBasePlayerItem@@@Z 10033140 f i testentity.obj
 0001:00032140       ?HasTarget@CAutoOPGun@@UAEHH@Z 10033140 f i testentity.obj
 0001:00032140       ?RemovePlayerItem@CAutoOPGun@@UAEHPAVCBasePlayerItem@@@Z 10033140 f i testentity.obj
 0001:00032150       ?TeamID@CAutoOPGun@@UAEPBDXZ 10033150 f i testentity.obj
 0001:00032160       ?Respawn@CAutoOPGun@@UAEPAVCBaseEntity@@XZ 10033160 f i testentity.obj
 0001:00032160       ?GetNextTarget@CAutoOPGun@@UAEPAVCBaseEntity@@XZ 10033160 f i testentity.obj
 0001:00032170       ?Use@CAutoOPGun@@UAEXPAVCBaseEntity@@0W4USE_TYPE@@M@Z 10033170 f i testentity.obj
 0001:00032180       ?Center@CAutoOPGun@@UAE?AVVector@@XZ 10033180 f i testentity.obj
 0001:000321e0       ?EyePosition@CAutoOPGun@@UAE?AVVector@@XZ 100331e0 f i testentity.obj
 0001:000321e0       ?EarPosition@CAutoOPGun@@UAE?AVVector@@XZ 100331e0 f i testentity.obj
 0001:00032210       ?BodyTarget@CAutoOPGun@@UAE?AVVector@@ABV2@@Z 10033210 f i testentity.obj
 0001:00032230       ??_9@$BKM@AE               10033230 f i testentity.obj
 0001:00032240       ?AdmShowNodes@@YAXPAUedict_s@@@Z 10033240 f   trainstuff.obj
 0001:00032280       ?AdmHideNodes@@YAXPAUedict_s@@@Z 10033280 f   trainstuff.obj
 0001:000322c0       ?AdmStartPath@@YAXPAUedict_s@@PBD@Z 100332c0 f   trainstuff.obj
 0001:00032850       ?DrawPath@@YAXPAUedict_s@@@Z 10033850 f   trainstuff.obj
 0001:00032bc0       ?AdmEndPath@@YAXPAUedict_s@@H@Z 10033bc0 f   trainstuff.obj
 0001:00032ea0       ?MakePathTrain@@YAXPAUedict_s@@PBD@Z 10033ea0 f   trainstuff.obj
 0001:000331c0       ?DeleteTrack@@YAXPAUedict_s@@PBD@Z 100341c0 f   trainstuff.obj
 0001:00033320       ?DrawTrackLines@@YAXPAUedict_s@@PBD@Z 10034320 f   trainstuff.obj
 0001:00033750       ?CheckTrack@@YAHPBD@Z      10034750 f   trainstuff.obj
 0001:000337f0       ?TrackExist@@YAHPBD@Z      100347f0 f   trainstuff.obj
 0001:00033890       ?PlaceTripMine@@YAXPAUedict_s@@@Z 10034890 f   tripmine.obj
 0001:00033d20       ?TripMineThink@@YA_NPAUedict_s@@@Z 10034d20 f   tripmine.obj
 0001:000341d0       ?DestroyTripMine@@YAXPAUedict_s@@@Z 100351d0 f   tripmine.obj
 0001:000342e0       ?DestroyPlayerTripMines@@YAXPAUedict_s@@H@Z 100352e0 f   tripmine.obj
 0001:00034470       ?UTIL_PlayerByIndex@@YAPAVCBaseEntity@@H@Z 10035470 f   util.obj
 0001:000344b0       ?ClientPrint@@YAXPAUentvars_s@@HPBD1111@Z 100354b0 f   util.obj
 0001:00034540       ?make_friendly@@YAHPAD@Z   10035540 f   util.obj
 0001:00034590       ?UTIL_LogPrintf@@YAXPADZZ  10035590 f   util.obj
 0001:000345c0       ?UTIL_FindEntityInSphere@@YAPAVCBaseEntity@@PAV1@ABVVector@@M@Z 100355c0 f   util.obj
 0001:00034610       ?UTIL_FindEntityByString@@YAPAVCBaseEntity@@PAV1@PBD1@Z 10035610 f   util.obj
 0001:00034660       ?UTIL_FindEntityByClassname@@YAPAVCBaseEntity@@PAV1@PBD@Z 10035660 f   util.obj
 0001:00034680       ?UTIL_VarArgs@@YAPADPADZZ  10035680 f   util.obj
 0001:000346a0       ?UTIL_SetOrigin@@YAXPAUentvars_s@@ABVVector@@@Z 100356a0 f   util.obj
 0001:000346c0       ?UTIL_ClientPrintAll@@YAXHPBD0000@Z 100356c0 f   util.obj
 0001:00034750       ?UTIL_HudMessage@@YAXPAVCBaseEntity@@ABUhudtextparms_s@@PBD@Z 10035750 f   util.obj
 0001:00034970       ?UTIL_HudMessageAll@@YAXABUhudtextparms_s@@PBD@Z 10035970 f   util.obj
 0001:000349c0       ?UTIL_ScreenFadeBuild@@YAXAAUScreenFade@@ABVVector@@MMHH@Z 100359c0 f   util.obj
 0001:00034a30       ?UTIL_SetSize@@YAXPAUentvars_s@@ABVVector@@1@Z 10035a30 f   util.obj
 0001:00034a50       ?UTIL_VecToAngles@@YA?AVVector@@ABV1@@Z 10035a50 f   util.obj
 0001:00034a80       ?UTIL_ScreenFadeWrite@@YAXABUScreenFade@@PAVCBaseEntity@@@Z 10035a80 f   util.obj
 0001:00034b30       ?UTIL_ScreenFadeAll@@YAXABVVector@@MMHH@Z 10035b30 f   util.obj
 0001:00034ba0       ?UTIL_ScreenFade@@YAXPAVCBaseEntity@@ABVVector@@MMHH@Z 10035ba0 f   util.obj
 0001:00034be0       ?UTIL_ScreenShake@@YAXABVVector@@MMMM@Z 10035be0 f   util.obj
 0001:00034d50       ?UTIL_ScreenShakeAll@@YAXABVVector@@MMM@Z 10035d50 f   util.obj
 0001:00034d70       ?UTIL_MakeVectors@@YAXABVVector@@@Z 10035d70 f   util.obj
 0001:00034d80       ?stristr@@YAPADPBD0@Z      10035d80 f   util.obj
 0001:00034e30       ?UTIL_GiveAllWeapons@@YAXPAVCBaseEntity@@@Z 10035e30 f   util.obj
 0001:00034eb0       ?UTIL_FindEntityByTargetname@@YAPAVCBaseEntity@@PAV1@PBD@Z 10035eb0 f   util.obj
 0001:00034ed0       ?UTIL_SpectCheck@@YAHPAUedict_s@@@Z 10035ed0 f   util.obj
 0001:00034f00       ?UTIL_PointContents@@YAHABVVector@@@Z 10035f00 f   util.obj
 0001:00034f10       ?UTIL_TraceLine@@YAXABVVector@@0W4IGNORE_MONSTERS@@PAUedict_s@@PAUTraceResult@@@Z 10035f10 f   util.obj
 0001:00034f30       ?UTIL_CheckBox@@YA_NVVector@@0@Z 10035f30 f   util.obj
 0001:00035140       ?VecBModelOrigin@@YA?AVVector@@PAUentvars_s@@@Z 10036140 f   util.obj
 0001:000351a0       ?GetPartialPlayerIndex@@YAHPADH@Z 100361a0 f   util.obj
 0001:000354f0       ?fix_string@@YAXPADH@Z     100364f0 f   util.obj
 0001:00035530       ?IsMorePowerful@@YAHHH@Z   10036530 f   util.obj
 0001:00035580       ?TFXGiveWeapon@@YAXHPAUedict_s@@@Z 10036580 f   util.obj
 0001:00035760       ?TakeDamage@@YAXPAUedict_s@@0MH@Z 10036760 f   util.obj
 0001:00035900       ?DestroyMapCycle@@YAXPAUmapcycle_s@@@Z 10036900 f   util.obj
 0001:00035940       ?COM_Parse@@YAPADPAD@Z     10036940 f   util.obj
 0001:00035a20       ?COM_TokenWaiting@@YAHPAD@Z 10036a20 f   util.obj
 0001:00035a70       ?ReloadMapCycleFile@@YAHPADPAUmapcycle_s@@@Z 10036a70 f   util.obj
 0001:00035be0       ?CurrentMap@@YAPAUmapcycle_item_s@@PAUmapcycle_s@@@Z 10036be0 f   util.obj
 0001:00035c20       ?GetSGTeam@@YAHPAUedict_s@@@Z 10036c20 f   util.obj
 0001:00035c70       ?GetNumberOFFreeEnts@@YAHXZ 10036c70 f   util.obj
 0001:00035c90       ?GetEntAmountState@@YAHXZ  10036c90 f   util.obj
 0001:00035cb0       ?UTIL_AngleMod@@YAMM@Z     10036cb0 f   util.obj
 0001:00035d30       ?UTIL_BloodDecalTrace@@YAXPAUTraceResult@@H@Z 10036d30 f   util.obj
 0001:00035d80       ?UTIL_DecalTrace@@YAXPAUTraceResult@@H@Z 10036d80 f   util.obj
 0001:00035e80       ?UTIL_ShouldShowBlood@@YAHH@Z 10036e80 f   util.obj
 0001:00035ee0       ?UTIL_CountTeam@@YAHH@Z    10036ee0 f   util.obj
 0001:00035f30       ?TeamChangeValid@@YA_NHH@Z 10036f30 f   util.obj
 0001:00035ff0       ?UTIL_CountPlayers@@YAHXZ  10036ff0 f   util.obj
 0001:00036050       ?UTIL_PlayerStatusTracelines@@YAXXZ 10037050 f   util.obj
 0001:00036440       ?UTIL_BuildingPercentageHealth@@YAHMM@Z 10037440 f   util.obj
 0001:00036460       ?UTIL_PlayerRepairTracelines@@YAXPAUedict_s@@@Z 10037460 f   util.obj
 0001:000366e0       ?UTIL_SendCustomBucketMessages@@YAXPAUedict_s@@@Z 100376e0 f   util.obj
 0001:00036870       ?UTIL_ShowMenu@@YAXPAUedict_s@@HHHPAD@Z 10037870 f   util.obj
 0001:000368d0       ?PatchpvPrivateInt@@YAXPAUedict_s@@HH@Z 100378d0 f   util.obj
 0001:000368f0       ?GetpvPrivateInt@@YAHPAUedict_s@@H@Z 100378f0 f   util.obj
 0001:00036900       ?UTIL_RotateSG@@YAXPAUedict_s@@H@Z 10037900 f   util.obj
 0001:00036af0       ?UTIL_Sparks@@YAXABVVector@@@Z 10037af0 f   util.obj
 0001:00036b40       ?PlayRandomLoop@@YAXXZ     10037b40 f   util.obj
 0001:00036bf0       ?SendICQ@@YAHPAUedict_s@@PAD1111@Z 10037bf0 f   util.obj
 0001:00037010       ?SendStandardICQ@@YAXPAD00@Z 10038010 f   util.obj
 0001:00037190       ?strreplace@@YAXPAD00@Z    10038190 f   util.obj
 0001:000372a0       ?ifindstr@@YAHHPAD0@Z      100382a0 f   util.obj
 0001:00037330       ?leftcopy@@YAXPAD0H@Z      10038330 f   util.obj
 0001:00037370       ?rightcopy@@YAXPAD0H@Z     10038370 f   util.obj
 0001:000373c0       ?SuckBlood@@YAXPAUedict_s@@@Z 100383c0 f   vampirism.obj
 0001:00037600       ?DecalInit@@YAXXZ          10038600 f   world.obj
 0001:00037630       _send@16                   10038630 f   wsock32:WSOCK32.dll
 0001:00037636       _connect@12                10038636 f   wsock32:WSOCK32.dll
 0001:0003763c       _WSACleanup@0              1003863c f   wsock32:WSOCK32.dll
 0001:00037642       _socket@12                 10038642 f   wsock32:WSOCK32.dll
 0001:00037648       _htons@4                   10038648 f   wsock32:WSOCK32.dll
 0001:0003764e       _gethostbyname@4           1003864e f   wsock32:WSOCK32.dll
 0001:00037654       _WSAStartup@8              10038654 f   wsock32:WSOCK32.dll
 0001:0003765a       _fclose                    1003865a f   LIBCMT:fclose.obj
 0001:0003768b       __fclose_lk                1003868b f   LIBCMT:fclose.obj
 0001:000376d7       _fprintf                   100386d7 f   LIBCMT:fprintf.obj
 0001:00037713       __fsopen                   10038713 f   LIBCMT:fopen.obj
 0001:00037744       _fopen                     10038744 f   LIBCMT:fopen.obj
 0001:00037757       __fpmath                   10038757 f   LIBCMT:fpinit.obj
 0001:0003776e       __fpclear                  1003876e f   LIBCMT:fpinit.obj
 0001:0003776f       __cfltcvt_init             1003876f f   LIBCMT:fpinit.obj
 0001:000377a7       _atol                      100387a7 f   LIBCMT:atox.obj
 0001:00037832       _atoi                      10038832 f   LIBCMT:atox.obj
 0001:00037840       _strnicmp                  10038840 f   LIBCMT:strnicmp.obj
 0001:00037840       __strnicmp                 10038840 f   LIBCMT:strnicmp.obj
 0001:00037941       ?_JumpToContinuation@@YGXPAXPAUEHRegistrationNode@@@Z 10038941 f   LIBCMT:trnsctrl.obj
 0001:00037975       ?_CallMemberFunction1@@YGXPAX00@Z 10038975 f   LIBCMT:trnsctrl.obj
 0001:00037975       ?_CallMemberFunction0@@YGXPAX0@Z 10038975 f   LIBCMT:trnsctrl.obj
 0001:0003797c       ?_CallMemberFunction2@@YGXPAX00H@Z 1003897c f   LIBCMT:trnsctrl.obj
 0001:00037983       ?_UnwindNestedFrames@@YGXPAUEHRegistrationNode@@PAUEHExceptionRecord@@@Z 10038983 f   LIBCMT:trnsctrl.obj
 0001:000379d2       ___CxxFrameHandler         100389d2 f   LIBCMT:trnsctrl.obj
 0001:00037a08       ?_CallCatchBlock2@@YAPAXPAUEHRegistrationNode@@PBU_s_FuncInfo@@PAXHK@Z 10038a08 f   LIBCMT:trnsctrl.obj
 0001:00037a81       ?_CallSETranslator@@YAHPAUEHExceptionRecord@@PAUEHRegistrationNode@@PAX2PBU_s_FuncInfo@@H1@Z 10038a81 f   LIBCMT:trnsctrl.obj
 0001:00037bac       ?_GetRangeOfTrysToCheck@@YAPBU_s_TryBlockMapEntry@@PBU_s_FuncInfo@@HHPAI1@Z 10038bac f   LIBCMT:trnsctrl.obj
 0001:00037c28       __global_unwind2           10038c28 f   LIBCMT:exsup.obj
 0001:00037c6a       __local_unwind2            10038c6a f   LIBCMT:exsup.obj
 0001:00037cc2       __NLG_Return2              10038cc2 f   LIBCMT:exsup.obj
 0001:00037cd2       __abnormal_termination     10038cd2 f   LIBCMT:exsup.obj
 0001:00037cf5       __NLG_Notify1              10038cf5 f   LIBCMT:exsup.obj
 0001:00037cfe       __NLG_Notify               10038cfe f   LIBCMT:exsup.obj
 0001:00037d11       __NLG_Dispatch             10038d11 f   LIBCMT:exsup.obj
 0001:00037d16       __onexit                   10038d16 f   LIBCMT:onexit.obj
 0001:00037d94       _atexit                    10038d94 f   LIBCMT:onexit.obj
 0001:00037da6       ___onexitinit              10038da6 f   LIBCMT:onexit.obj
 0001:00037dd8       __ftol                     10038dd8 f   LIBCMT:ftol.obj
 0001:00037dff       __snprintf                 10038dff f   LIBCMT:snprintf.obj
 0001:00037e50       _strncpy                   10038e50 f   LIBCMT:strncpy.obj
 0001:00037f4e       _sprintf                   10038f4e f   LIBCMT:sprintf.obj
 0001:00037fa0       _strcmpi                   10038fa0 f   LIBCMT:stricmp.obj
 0001:00037fa0       __stricmp                  10038fa0 f   LIBCMT:stricmp.obj
 0001:00037fa0       __strcmpi                  10038fa0 f   LIBCMT:stricmp.obj
 0001:00037fa0       _stricmp                   10038fa0 f   LIBCMT:stricmp.obj
 0001:00038070       ??3@YAXPAX@Z               10039070 f   LIBCMT:delete.obj
 0001:00038080       _memmove                   10039080 f   LIBCMT:memmove.obj
 0001:000383b5       _atof                      100393b5 f   LIBCMT:atof.obj
 0001:0003840c       ??2@YAPAXI@Z               1003940c f   LIBCMT:new.obj
 0001:00038420       _strncmp                   10039420 f   LIBCMT:strncmp.obj
 0001:00038460       __alloca_probe             10039460 f   LIBCMT:chkstk.obj
 0001:00038460       __chkstk                   10039460 f   LIBCMT:chkstk.obj
 0001:0003848f       _fread                     1003948f f   LIBCMT:fread.obj
 0001:000384be       __fread_lk                 100394be f   LIBCMT:fread.obj
 0001:000385a6       __mkdir                    100395a6 f   LIBCMT:mkdir.obj
 0001:000385d2       _fwrite                    100395d2 f   LIBCMT:fwrite.obj
 0001:00038601       __fwrite_lk                10039601 f   LIBCMT:fwrite.obj
 0001:0003870b       __cinit                    1003970b f   LIBCMT:crt0dat.obj
 0001:00038738       _exit                      10039738 f   LIBCMT:crt0dat.obj
 0001:00038749       __exit                     10039749 f   LIBCMT:crt0dat.obj
 0001:0003875a       __cexit                    1003975a f   LIBCMT:crt0dat.obj
 0001:0003880e       __lockexit                 1003980e f   LIBCMT:crt0dat.obj
 0001:00038817       __unlockexit               10039817 f   LIBCMT:crt0dat.obj
 0001:0003883a       _floor                     1003983a f   LIBCMT:floor.obj
 0001:00038909       __strupr                   10039909 f   LIBCMT:strupr.obj
 0001:00038a40       _strcpy                    10039a40 f   LIBCMT:strcat.obj
 0001:00038a50       _strcat                    10039a50 f   LIBCMT:strcat.obj
 0001:00038b30       _strlen                    10039b30 f   LIBCMT:strlen.obj
 0001:00038bab       _vsprintf                  10039bab f   LIBCMT:vsprintf.obj
 0001:00038c00       _strcmp                    10039c00 f   LIBCMT:strcmp.obj
 0001:00038c84       _fgetc                     10039c84 f   LIBCMT:fgetc.obj
 0001:00038cb5       _sscanf                    10039cb5 f   LIBCMT:sscanf.obj
 0001:00038ce9       _tolower                   10039ce9 f   LIBCMT:tolower.obj
 0001:00038d58       __tolower_lk               10039d58 f   LIBCMT:tolower.obj
 0001:00038e23       _isspace                   10039e23 f   LIBCMT:_ctype.obj
 0001:00038e4b       _isalnum                   10039e4b f   LIBCMT:_ctype.obj
 0001:00038ed5       __ltoa                     10039ed5 f   LIBCMT:xtoa.obj
 0001:00038eff       __CRT_INIT@12              10039eff f   LIBCMT:dllcrt0.obj
 0001:00038fd8       __DllMainCRTStartup@12     10039fd8 f   LIBCMT:dllcrt0.obj
 0001:00039075       __amsg_exit                1003a075 f   LIBCMT:dllcrt0.obj
 0001:000390a8       ___initstdio               1003a0a8 f   LIBCMT:_file.obj
 0001:00039150       ___endstdio                1003a150 f   LIBCMT:_file.obj
 0001:00039164       __lock_file                1003a164 f   LIBCMT:_file.obj
 0001:00039193       __lock_file2               1003a193 f   LIBCMT:_file.obj
 0001:000391b6       __unlock_file              1003a1b6 f   LIBCMT:_file.obj
 0001:000391e5       __unlock_file2             1003a1e5 f   LIBCMT:_file.obj
 0001:00039208       _free                      1003a208 f   LIBCMT:free.obj
 0001:00039250       __close                    1003a250 f   LIBCMT:close.obj
 0001:000392ad       __close_lk                 1003a2ad f   LIBCMT:close.obj
 0001:00039330       __freebuf                  1003a330 f   LIBCMT:_freebuf.obj
 0001:0003935b       _fflush                    1003a35b f   LIBCMT:fflush.obj
 0001:0003938a       __fflush_lk                1003a38a f   LIBCMT:fflush.obj
 0001:000393b8       __flush                    1003a3b8 f   LIBCMT:fflush.obj
 0001:00039414       __flushall                 1003a414 f   LIBCMT:fflush.obj
 0001:000394c1       __stbuf                    1003a4c1 f   LIBCMT:_sftbuf.obj
 0001:0003954e       __ftbuf                    1003a54e f   LIBCMT:_sftbuf.obj
 0001:00039578       __output                   1003a578 f   LIBCMT:output.obj
 0001:00039d82       __openfile                 1003ad82 f   LIBCMT:_open.obj
 0001:00039ef2       __getstream                1003aef2 f   LIBCMT:stream.obj
 0001:00039fba       __setdefaultprecision      1003afba f   LIBCMT:fp8.obj
 0001:00039fcc       __ms_p5_test_fdiv          1003afcc f   LIBCMT:testfdiv.obj
 0001:0003a00a       __ms_p5_mp_test_fdiv       1003b00a f   LIBCMT:testfdiv.obj
 0001:0003a033       __forcdecpt                1003b033 f   LIBCMT:cvt.obj
 0001:0003a08d       __cropzeros                1003b08d f   LIBCMT:cvt.obj
 0001:0003a0db       __positive                 1003b0db f   LIBCMT:cvt.obj
 0001:0003a0f3       __fassign                  1003b0f3 f   LIBCMT:cvt.obj
 0001:0003a131       __cftoe                    1003b131 f   LIBCMT:cvt.obj
 0001:0003a254       __cftof                    1003b254 f   LIBCMT:cvt.obj
 0001:0003a350       __cftog                    1003b350 f   LIBCMT:cvt.obj
 0001:0003a3e3       __cfltcvt                  1003b3e3 f   LIBCMT:cvt.obj
 0001:0003a459       __isctype                  1003b459 f   LIBCMT:isctype.obj
 0001:0003a4d0       __allmul                   1003b4d0 f   LIBCMT:llmul.obj
 0001:0003a504       __mtinitlocks              1003b504 f   LIBCMT:mlock.obj
 0001:0003a52d       __mtdeletelocks            1003b52d f   LIBCMT:mlock.obj
 0001:0003a599       __lock                     1003b599 f   LIBCMT:mlock.obj
 0001:0003a5fa       __unlock                   1003b5fa f   LIBCMT:mlock.obj
 0001:0003a60f       ___InternalCxxFrameHandler 1003b60f f   LIBCMT:frame.obj
 0001:0003a964       ___FrameUnwindToState      1003b964 f   LIBCMT:frame.obj
 0001:0003ad9c       ?_DestructExceptionObject@@YAXPAUEHExceptionRecord@@E@Z 1003bd9c f   LIBCMT:frame.obj
 0001:0003ae30       __CallSettingFrame@12      1003be30 f   LIBCMT:lowhelpr.obj
 0001:0003ae57       __NLG_Return               1003be57 f   LIBCMT:lowhelpr.obj
 0001:0003ae7c       __mtinit                   1003be7c f   LIBCMT:tidtable.obj
 0001:0003aed0       __mtterm                   1003bed0 f   LIBCMT:tidtable.obj
 0001:0003aeee       __initptd                  1003beee f   LIBCMT:tidtable.obj
 0001:0003af01       __getptd                   1003bf01 f   LIBCMT:tidtable.obj
 0001:0003af68       __freeptd                  1003bf68 f   LIBCMT:tidtable.obj
 0001:0003b008       ?terminate@@YAXXZ          1003c008 f   LIBCMT:hooks.obj
 0001:0003b069       ?_inconsistency@@YAXXZ     1003c069 f   LIBCMT:hooks.obj
 0001:0003b0bf       _realloc                   1003c0bf f   LIBCMT:realloc.obj
 0001:0003b1f7       __msize                    1003c1f7 f   LIBCMT:msize.obj
 0001:0003b23c       _malloc                    1003c23c f   LIBCMT:malloc.obj
 0001:0003b24e       __nh_malloc                1003c24e f   LIBCMT:malloc.obj
 0001:0003b27a       __heap_alloc               1003c27a f   LIBCMT:malloc.obj
 0001:0003b2c8       __flsbuf                   1003c2c8 f   LIBCMT:_flsbuf.obj
 0001:0003b3e0       __fltin2                   1003c3e0 f   LIBCMT:cfin.obj
 0001:0003b45f       __filbuf                   1003c45f f   LIBCMT:_filbuf.obj
 0001:0003b53b       __read                     1003c53b f   LIBCMT:read.obj
 0001:0003b5a0       __read_lk                  1003c5a0 f   LIBCMT:read.obj
 0001:0003b780       _memcpy                    1003c780 f   LIBCMT:memcpy.obj
 0001:0003bab5       __dosmaperr                1003cab5 f   LIBCMT:dosmap.obj
 0001:0003bb28       __errno                    1003cb28 f   LIBCMT:dosmap.obj
 0001:0003bb31       ___doserrno                1003cb31 f   LIBCMT:dosmap.obj
 0001:0003bb3a       __write                    1003cb3a f   LIBCMT:write.obj
 0001:0003bb9f       __write_lk                 1003cb9f f   LIBCMT:write.obj
 0001:0003bd2a       __handle_qnan1             1003cd2a f   LIBCMT:fpexcept.obj
 0001:0003bd7e       __except1                  1003cd7e f   LIBCMT:fpexcept.obj
 0001:0003be16       __raise_exc                1003ce16 f   LIBCMT:fpexcept.obj
 0001:0003c0c9       __handle_exc               1003d0c9 f   LIBCMT:fpexcept.obj
 0001:0003c2e0       __umatherr                 1003d2e0 f   LIBCMT:fpexcept.obj
 0001:0003c368       __set_errno                1003d368 f   LIBCMT:fpexcept.obj
 0001:0003c3b5       __errcode                  1003d3b5 f   LIBCMT:fpexcept.obj
 0001:0003c3e2       __frnd                     1003d3e2 f   LIBCMT:frnd.obj
 0001:0003c3f4       __set_exp                  1003d3f4 f   LIBCMT:util.obj
 0001:0003c41d       __sptype                   1003d41d f   LIBCMT:util.obj
 0001:0003c477       __decomp                   1003d477 f   LIBCMT:util.obj
 0001:0003c538       __statfp                   1003d538 f   LIBCMT:fpctrl.obj
 0001:0003c546       __clrfp                    1003d546 f   LIBCMT:fpctrl.obj
 0001:0003c555       __ctrlfp                   1003d555 f   LIBCMT:fpctrl.obj
 0001:0003c578       __set_statfp               1003d578 f   LIBCMT:fpctrl.obj
 0001:0003c5ce       ___crtLCMapStringA         1003d5ce f   LIBCMT:a_map.obj
 0001:0003c81d       __input                    1003d81d f   LIBCMT:input.obj
 0001:0003d2d0       __aulldiv                  1003e2d0 f   LIBCMT:ulldiv.obj
 0001:0003d340       __aullrem                  1003e340 f   LIBCMT:ullrem.obj
 0001:0003d3b5       __ioinit                   1003e3b5 f   LIBCMT:ioinit.obj
 0001:0003d571       __ioterm                   1003e571 f   LIBCMT:ioinit.obj
 0001:0003d5c5       __setenvp                  1003e5c5 f   LIBCMT:stdenvp.obj
 0001:0003d67e       __setargv                  1003e67e f   LIBCMT:stdargv.obj
 0001:0003d8cb       ___crtGetEnvironmentStringsA 1003e8cb f   LIBCMT:a_env.obj
 0001:0003d9fd       __heap_init                1003e9fd f   LIBCMT:heapinit.obj
 0001:0003da39       __heap_term                1003ea39 f   LIBCMT:heapinit.obj
 0001:0003daae       __FF_MSGBANNER             1003eaae f   LIBCMT:crt0msg.obj
 0001:0003dae7       __NMSG_WRITE               1003eae7 f   LIBCMT:crt0msg.obj
 0001:0003dc3a       _calloc                    1003ec3a f   LIBCMT:calloc.obj
 0001:0003dcc7       __fcloseall                1003ecc7 f   LIBCMT:closeall.obj
 0001:0003dd48       ___sbh_heap_init           1003ed48 f   LIBCMT:sbheap.obj
 0001:0003dd86       ___sbh_find_block          1003ed86 f   LIBCMT:sbheap.obj
 0001:0003ddb1       ___sbh_free_block          1003edb1 f   LIBCMT:sbheap.obj
 0001:0003e0dc       ___sbh_alloc_block         1003f0dc f   LIBCMT:sbheap.obj
 0001:0003e3e5       ___sbh_alloc_new_region    1003f3e5 f   LIBCMT:sbheap.obj
 0001:0003e496       ___sbh_alloc_new_group     1003f496 f   LIBCMT:sbheap.obj
 0001:0003e591       ___sbh_resize_block        1003f591 f   LIBCMT:sbheap.obj
 0001:0003e887       __alloc_osfhnd             1003f887 f   LIBCMT:osfinfo.obj
 0001:0003e9aa       __set_osfhnd               1003f9aa f   LIBCMT:osfinfo.obj
 0001:0003ea26       __free_osfhnd              1003fa26 f   LIBCMT:osfinfo.obj
 0001:0003eaa5       __get_osfhandle            1003faa5 f   LIBCMT:osfinfo.obj
 0001:0003eae7       __lock_fhandle             1003fae7 f   LIBCMT:osfinfo.obj
 0001:0003eb46       __unlock_fhandle           1003fb46 f   LIBCMT:osfinfo.obj
 0001:0003eb68       __commit                   1003fb68 f   LIBCMT:commit.obj
 0001:0003ebfb       __isatty                   1003fbfb f   LIBCMT:isatty.obj
 0001:0003ec24       _wctomb                    1003fc24 f   LIBCMT:wctomb.obj
 0001:0003ec7d       __wctomb_lk                1003fc7d f   LIBCMT:wctomb.obj
 0001:0003ece6       __sopen                    1003fce6 f   LIBCMT:open.obj
 0001:0003efb5       __control87                1003ffb5 f   LIBCMT:ieee87.obj
 0001:0003efea       __controlfp                1003ffea f   LIBCMT:ieee87.obj
 0001:0003f11b       __ZeroTail                 1004011b f   LIBCMT:intrncvt.obj
 0001:0003f164       __IncMan                   10040164 f   LIBCMT:intrncvt.obj
 0001:0003f1ba       __RoundMan                 100401ba f   LIBCMT:intrncvt.obj
 0001:0003f246       __CopyMan                  10040246 f   LIBCMT:intrncvt.obj
 0001:0003f261       __FillZeroMan              10040261 f   LIBCMT:intrncvt.obj
 0001:0003f26d       __IsZeroMan                1004026d f   LIBCMT:intrncvt.obj
 0001:0003f288       __ShrMan                   10040288 f   LIBCMT:intrncvt.obj
 0001:0003f315       __ld12cvt                  10040315 f   LIBCMT:intrncvt.obj
 0001:0003f481       __ld12tod                  10040481 f   LIBCMT:intrncvt.obj
 0001:0003f497       __ld12tof                  10040497 f   LIBCMT:intrncvt.obj
 0001:0003f4ad       __atodbl                   100404ad f   LIBCMT:intrncvt.obj
 0001:0003f4da       __atoflt                   100404da f   LIBCMT:intrncvt.obj
 0001:0003f507       __fptostr                  10040507 f   LIBCMT:_fptostr.obj
 0001:0003f57e       __fltout2                  1004057e f   LIBCMT:cfout.obj
 0001:0003f5da       ___dtold                   100405da f   LIBCMT:cfout.obj
 0001:0003f690       _memset                    10040690 f   LIBCMT:memset.obj
 0001:0003f6e8       __fptrap                   100406e8 f   LIBCMT:crt0fp.obj
 0001:0003f6f1       ___crtGetStringTypeA       100406f1 f   LIBCMT:a_str.obj
 0001:0003f840       _strcspn                   10040840 f   LIBCMT:strcspn.obj
 0001:0003f880       _strpbrk                   10040880 f   LIBCMT:strpbrk.obj
 0001:0003f8ba       ?__CxxUnhandledExceptionFilter@@YGJPAU_EXCEPTION_POINTERS@@@Z 100408ba f   LIBCMT:unhandld.obj
 0001:0003f900       ?__CxxSetUnhandledExceptionFilter@@YAXXZ 10040900 f   LIBCMT:unhandld.obj
 0001:0003f911       ?__CxxRestoreUnhandledExceptionFilter@@YAXXZ 10040911 f   LIBCMT:unhandld.obj
 0001:0003f91e       ?_ValidateRead@@YAHPBXI@Z  1004091e f   LIBCMT:validate.obj
 0001:0003f93a       ?_ValidateWrite@@YAHPAXI@Z 1004093a f   LIBCMT:validate.obj
 0001:0003f956       ?_ValidateExecute@@YAHP6GHXZ@Z 10040956 f   LIBCMT:validate.obj
 0001:0003f978       __except_handler3          10040978 f   LIBCMT:exsup3.obj
 0001:0003fa35       __seh_longjmp_unwind@4     10040a35 f   LIBCMT:exsup3.obj
 0001:0003fa50       _abort                     10040a50 f   LIBCMT:abort.obj
 0001:0003fa67       __callnewh                 10040a67 f   LIBCMT:handler.obj
 0001:0003fa82       __lseek                    10040a82 f   LIBCMT:lseek.obj
 0001:0003fae7       __lseek_lk                 10040ae7 f   LIBCMT:lseek.obj
 0001:0003fb5a       __getbuf                   10040b5a f   LIBCMT:_getbuf.obj
 0001:0003fb9e       ___strgtold12              10040b9e f   LIBCMT:strgtold.obj
 0001:0004006f       __matherr                  1004106f f   LIBCMT:matherr.obj
 0001:00040072       _mbtowc                    10041072 f   LIBCMT:mbtowc.obj
 0001:000400cf       __mbtowc_lk                100410cf f   LIBCMT:mbtowc.obj
 0001:000401a0       __allshl                   100411a0 f   LIBCMT:llshl.obj
 0001:000401bf       _ungetc                    100411bf f   LIBCMT:ungetc.obj
 0001:000401e8       __ungetc_lk                100411e8 f   LIBCMT:ungetc.obj
 0001:00040256       __setmbcp                  10041256 f   LIBCMT:mbctype.obj
 0001:0004062e       ___initmbctable            1004162e f   LIBCMT:mbctype.obj
 0001:0004064a       ___crtMessageBoxA          1004164a f   LIBCMT:crtmbox.obj
 0001:000406d3       __chsize_lk                100416d3 f   LIBCMT:chsize.obj
 0001:000407f8       _raise                     100417f8 f   LIBCMT:winsig.obj
 0001:000409b7       ___addl                    100419b7 f   LIBCMT:mantold.obj
 0001:000409d8       ___add_12                  100419d8 f   LIBCMT:mantold.obj
 0001:00040a36       ___shl_12                  10041a36 f   LIBCMT:mantold.obj
 0001:00040a64       ___shr_12                  10041a64 f   LIBCMT:mantold.obj
 0001:00040a91       ___mtold12                 10041a91 f   LIBCMT:mantold.obj
 0001:00040b58       _$I10_OUTPUT               10041b58 f   LIBCMT:x10fout.obj
 0001:00040deb       ___ld12mul                 10041deb f   LIBCMT:tenpow.obj
 0001:0004100b       ___multtenpow12            1004200b f   LIBCMT:tenpow.obj
 0001:00041087       __setmode_lk               10042087 f   LIBCMT:setmode.obj
 0001:00041100       _strchr                    10042100 f   LIBCMT:strchr.obj
 0001:00041106       ___from_strstr_to_strchr   10042106 f   LIBCMT:strchr.obj
 0001:000411c0       ?_Xlen@std@@YAXXZ          100421c0 f   libcpmt:string.obj
 0001:0004121a       ??0logic_error@std@@QAE@ABV?$basic_string@DU?$char_traits@D@std@@V?$allocator@D@2@@1@@Z 1004221a f i libcpmt:string.obj
 0001:0004127e       ?_Doraise@logic_error@std@@MBEXXZ 1004227e f i libcpmt:string.obj
 0001:0004129b       ??1logic_error@std@@UAE@XZ 1004229b f i libcpmt:string.obj
 0001:000412d8       ??_Elogic_error@std@@UAEPAXI@Z 100422d8 f i libcpmt:string.obj
 0001:000412d8       ??_Glogic_error@std@@UAEPAXI@Z 100422d8 f i libcpmt:string.obj
 0001:000412f4       ??0logic_error@std@@QAE@ABV01@@Z 100422f4 f i libcpmt:string.obj
 0001:00041351       ??1length_error@std@@UAE@XZ 10042351 f i libcpmt:string.obj
 0001:0004138e       ?_Doraise@length_error@std@@MBEXXZ 1004238e f i libcpmt:string.obj
 0001:000413ab       ??_Glength_error@std@@UAEPAXI@Z 100423ab f i libcpmt:string.obj
 0001:000413ab       ??_Elength_error@std@@UAEPAXI@Z 100423ab f i libcpmt:string.obj
 0001:000413c7       ??0length_error@std@@QAE@ABV01@@Z 100423c7 f i libcpmt:string.obj
 0001:000413df       ?_Xran@std@@YAXXZ          100423df f   libcpmt:string.obj
 0001:00041439       ??1out_of_range@std@@UAE@XZ 10042439 f i libcpmt:string.obj
 0001:00041476       ?_Doraise@out_of_range@std@@MBEXXZ 10042476 f i libcpmt:string.obj
 0001:00041493       ??_Gout_of_range@std@@UAEPAXI@Z 10042493 f i libcpmt:string.obj
 0001:00041493       ??_Eout_of_range@std@@UAEPAXI@Z 10042493 f i libcpmt:string.obj
 0001:000414af       ??0out_of_range@std@@QAE@ABV01@@Z 100424af f i libcpmt:string.obj
 0001:000414c7       ?assign@?$basic_string@DU?$char_traits@D@std@@V?$allocator@D@2@@std@@QAEAAV12@ABV12@II@Z 100424c7 f i libcpmt:string.obj
 0001:00041595       ?assign@?$basic_string@DU?$char_traits@D@std@@V?$allocator@D@2@@std@@QAEAAV12@PBDI@Z 10042595 f i libcpmt:string.obj
 0001:000415ca       ?erase@?$basic_string@DU?$char_traits@D@std@@V?$allocator@D@2@@std@@QAEAAV12@II@Z 100425ca f i libcpmt:string.obj
 0001:00041673       ?id@?$collate@D@std@@$E    10042673 f i libcpmt:string.obj
 0001:00041673       ??3@YAXPAX0@Z              10042673 f i libcpmt:string.obj
 0001:000416fd       ??_D?$basic_istream@DU?$char_traits@D@std@@@std@@QAEXXZ 100426fd f i libcpmt:iostream.obj
 0001:00041741       ??_D?$basic_ostream@DU?$char_traits@D@std@@@std@@QAEXXZ 10042741 f i libcpmt:iostream.obj
 0001:000417e1       ??0Init@ios_base@std@@QAE@XZ 100427e1 f   libcpmt:iostream.obj
 0001:00041960       ??1Init@ios_base@std@@QAE@XZ 10042960 f   libcpmt:iostream.obj
 0001:000419a3       ??0?$basic_ostream@DU?$char_traits@D@std@@@std@@QAE@PAV?$basic_streambuf@DU?$char_traits@D@std@@@1@_N1@Z 100429a3 f i libcpmt:iostream.obj
 0001:00041a0d       ??0?$basic_ostream@DU?$char_traits@D@std@@@std@@QAE@W4_Uninitialized@1@@Z 10042a0d f i libcpmt:iostream.obj
 0001:00041a6c       ?flush@?$basic_ostream@DU?$char_traits@D@std@@@std@@QAEAAV12@XZ 10042a6c f i libcpmt:iostream.obj
 0001:00041a6c       ?flush@?$basic_ostream@GU?$char_traits@G@std@@@std@@QAEAAV12@XZ 10042a6c f i libcpmt:iostream.obj
 0001:00041ab6       ??1?$basic_ios@DU?$char_traits@D@std@@@std@@UAE@XZ 10042ab6 f i libcpmt:iostream.obj
 0001:00041ac1       ??0?$basic_istream@DU?$char_traits@D@std@@@std@@QAE@PAV?$basic_streambuf@DU?$char_traits@D@std@@@1@_N@Z 10042ac1 f i libcpmt:iostream.obj
 0001:00041b29       ??0?$basic_istream@DU?$char_traits@D@std@@@std@@QAE@W4_Uninitialized@1@@Z 10042b29 f i libcpmt:iostream.obj
 0001:00041b88       ??0?$basic_filebuf@DU?$char_traits@D@std@@@std@@QAE@PAU_iobuf@@@Z 10042b88 f i libcpmt:iostream.obj
 0001:00041be8       ??0locale@std@@QAE@XZ      10042be8 f i libcpmt:iostream.obj
 0001:00041c16       ?_Incref@facet@locale@std@@QAEXXZ 10042c16 f i libcpmt:iostream.obj
 0001:00041c3c       ??1locale@std@@QAE@XZ      10042c3c f i libcpmt:iostream.obj
 0001:00041c54       ?_Decref@facet@locale@std@@QAEPAV123@XZ 10042c54 f i libcpmt:iostream.obj
 0001:00041c8d       ??1?$basic_streambuf@DU?$char_traits@D@std@@@std@@UAE@XZ 10042c8d f i libcpmt:iostream.obj
 0001:00041c9b       ?overflow@?$basic_streambuf@DU?$char_traits@D@std@@@std@@MAEHH@Z 10042c9b f i libcpmt:iostream.obj
 0001:00041c9b       ?pbackfail@?$basic_streambuf@DU?$char_traits@D@std@@@std@@MAEHH@Z 10042c9b f i libcpmt:iostream.obj
 0001:00041ca1       ?underflow@?$basic_streambuf@DU?$char_traits@D@std@@@std@@MAEHXZ 10042ca1 f i libcpmt:iostream.obj
 0001:00041ca5       ?uflow@?$basic_streambuf@DU?$char_traits@D@std@@@std@@MAEHXZ 10042ca5 f i libcpmt:iostream.obj
 0001:00041cc2       ?xsgetn@?$basic_streambuf@DU?$char_traits@D@std@@@std@@MAEHPADH@Z 10042cc2 f i libcpmt:iostream.obj
 0001:00041d36       ?xsputn@?$basic_streambuf@DU?$char_traits@D@std@@@std@@MAEHPBDH@Z 10042d36 f i libcpmt:iostream.obj
 0001:00041dac       ?setbuf@?$basic_streambuf@DU?$char_traits@D@std@@@std@@MAEPAV12@PADH@Z 10042dac f i libcpmt:iostream.obj
 0001:00041dac       ?setbuf@?$basic_streambuf@GU?$char_traits@G@std@@@std@@MAEPAV12@PAGH@Z 10042dac f i libcpmt:iostream.obj
 0001:00041db1       ??0?$basic_filebuf@DU?$char_traits@D@std@@@std@@QAE@W4_Uninitialized@1@@Z 10042db1 f i libcpmt:iostream.obj
 0001:00041dbc       ??1?$basic_filebuf@DU?$char_traits@D@std@@@std@@UAE@XZ 10042dbc f i libcpmt:iostream.obj
 0001:00041e21       ?overflow@?$basic_filebuf@DU?$char_traits@D@std@@@std@@MAEHH@Z 10042e21 f i libcpmt:iostream.obj
 0001:00041f57       ?pbackfail@?$basic_filebuf@DU?$char_traits@D@std@@@std@@MAEHH@Z 10042f57 f i libcpmt:iostream.obj
 0001:00042004       ?underflow@?$basic_filebuf@DU?$char_traits@D@std@@@std@@MAEHXZ 10043004 f i libcpmt:iostream.obj
 0001:00042031       ?uflow@?$basic_filebuf@DU?$char_traits@D@std@@@std@@MAEHXZ 10043031 f i libcpmt:iostream.obj
 0001:00042146       ?seekoff@?$basic_filebuf@DU?$char_traits@D@std@@@std@@MAE?AV?$fpos@H@2@JW4seekdir@ios_base@2@H@Z 10043146 f i libcpmt:iostream.obj
 0001:00042146       ?seekoff@?$basic_filebuf@GU?$char_traits@G@std@@@std@@MAE?AV?$fpos@H@2@JW4seekdir@ios_base@2@H@Z 10043146 f i libcpmt:iostream.obj
 0001:000421b5       ?setbuf@?$basic_filebuf@DU?$char_traits@D@std@@@std@@MAEPAV?$basic_streambuf@DU?$char_traits@D@std@@@2@PADH@Z 100431b5 f i libcpmt:iostream.obj
 0001:000421e0       ?sync@?$basic_filebuf@GU?$char_traits@G@std@@@std@@MAEHXZ 100431e0 f i libcpmt:iostream.obj
 0001:000421e0       ?sync@?$basic_filebuf@DU?$char_traits@D@std@@@std@@MAEHXZ 100431e0 f i libcpmt:iostream.obj
 0001:000421f9       ??_G?$basic_ostream@DU?$char_traits@D@std@@@std@@UAEPAXI@Z 100431f9 f i libcpmt:iostream.obj
 0001:000421f9       ??_E?$basic_ostream@DU?$char_traits@D@std@@@std@@UAEPAXI@Z 100431f9 f i libcpmt:iostream.obj
 0001:00042218       ??_G?$basic_ios@DU?$char_traits@D@std@@@std@@UAEPAXI@Z 10043218 f i libcpmt:iostream.obj
 0001:00042218       ??_E?$basic_ios@DU?$char_traits@D@std@@@std@@UAEPAXI@Z 10043218 f i libcpmt:iostream.obj
 0001:00042234       ??_E?$basic_istream@DU?$char_traits@D@std@@@std@@UAEPAXI@Z 10043234 f i libcpmt:iostream.obj
 0001:00042234       ??_G?$basic_istream@DU?$char_traits@D@std@@@std@@UAEPAXI@Z 10043234 f i libcpmt:iostream.obj
 0001:00042253       ??_G?$basic_streambuf@DU?$char_traits@D@std@@@std@@UAEPAXI@Z 10043253 f i libcpmt:iostream.obj
 0001:00042253       ??_E?$basic_streambuf@DU?$char_traits@D@std@@@std@@UAEPAXI@Z 10043253 f i libcpmt:iostream.obj
 0001:0004226f       ??_G?$basic_filebuf@DU?$char_traits@D@std@@@std@@UAEPAXI@Z 1004326f f i libcpmt:iostream.obj
 0001:0004226f       ??_E?$basic_filebuf@DU?$char_traits@D@std@@@std@@UAEPAXI@Z 1004326f f i libcpmt:iostream.obj
 0001:0004228b       ?append@?$basic_string@DU?$char_traits@D@std@@V?$allocator@D@2@@std@@QAEAAV12@ID@Z 1004328b f i libcpmt:iostream.obj
 0001:000422e4       ?init@?$basic_ios@DU?$char_traits@D@std@@@std@@IAEXPAV?$basic_streambuf@DU?$char_traits@D@std@@@2@_N@Z 100432e4 f i libcpmt:iostream.obj
 0001:00042324       ??0?$fpos@H@std@@QAE@J@Z   10043324 f i libcpmt:iostream.obj
 0001:0004235e       ?_Gndec@?$basic_streambuf@DU?$char_traits@D@std@@@std@@IAEPADXZ 1004335e f i libcpmt:iostream.obj
 0001:0004236e       ?_Gninc@?$basic_streambuf@DU?$char_traits@D@std@@@std@@IAEPADXZ 1004336e f i libcpmt:iostream.obj
 0001:0004237e       ?_Pninc@?$basic_streambuf@DU?$char_traits@D@std@@@std@@IAEPADXZ 1004337e f i libcpmt:iostream.obj
 0001:0004238e       ?close@?$basic_filebuf@DU?$char_traits@D@std@@@std@@QAEPAV12@XZ 1004338e f i libcpmt:iostream.obj
 0001:000423b5       ?_Init@?$basic_filebuf@DU?$char_traits@D@std@@@std@@IAEXPAU_iobuf@@W4_Initfl@12@@Z 100433b5 f i libcpmt:iostream.obj
 0001:0004242d       ?_Freeze@?$basic_string@DU?$char_traits@D@std@@V?$allocator@D@2@@std@@AAEXXZ 1004342d f i libcpmt:iostream.obj
 0001:00042459       ?_Init@?$basic_streambuf@GU?$char_traits@G@std@@@std@@IAEXXZ 10043459 f i libcpmt:iostream.obj
 0001:00042459       ?_Init@?$basic_streambuf@DU?$char_traits@D@std@@@std@@IAEXXZ 10043459 f i libcpmt:iostream.obj
 0001:0004249b       ?_Ungetc@std@@YA_NABDPAU_iobuf@@I@Z 1004349b f i libcpmt:iostream.obj
 0001:00042634       ??_D?$basic_istream@GU?$char_traits@G@std@@@std@@QAEXXZ 10043634 f i libcpmt:wiostrea.obj
 0001:00042678       ??_D?$basic_ostream@GU?$char_traits@G@std@@@std@@QAEXXZ 10043678 f i libcpmt:wiostrea.obj
 0001:000426eb       ??0_Winit@std@@QAE@XZ      100436eb f   libcpmt:wiostrea.obj
 0001:0004286c       ??1_Winit@std@@QAE@XZ      1004386c f   libcpmt:wiostrea.obj
 0001:000428af       ??0?$basic_ostream@GU?$char_traits@G@std@@@std@@QAE@PAV?$basic_streambuf@GU?$char_traits@G@std@@@1@_N1@Z 100438af f i libcpmt:wiostrea.obj
 0001:00042919       ??0?$basic_ostream@GU?$char_traits@G@std@@@std@@QAE@W4_Uninitialized@1@@Z 10043919 f i libcpmt:wiostrea.obj
 0001:00042978       ??1?$basic_ios@GU?$char_traits@G@std@@@std@@UAE@XZ 10043978 f i libcpmt:wiostrea.obj
 0001:00042983       ??0?$basic_istream@GU?$char_traits@G@std@@@std@@QAE@PAV?$basic_streambuf@GU?$char_traits@G@std@@@1@_N@Z 10043983 f i libcpmt:wiostrea.obj
 0001:000429eb       ??0?$basic_istream@GU?$char_traits@G@std@@@std@@QAE@W4_Uninitialized@1@@Z 100439eb f i libcpmt:wiostrea.obj
 0001:00042a4a       ??0?$basic_filebuf@GU?$char_traits@G@std@@@std@@QAE@PAU_iobuf@@@Z 10043a4a f i libcpmt:wiostrea.obj
 0001:00042aaa       ??1?$basic_streambuf@GU?$char_traits@G@std@@@std@@UAE@XZ 10043aaa f i libcpmt:wiostrea.obj
 0001:00042ab8       ?pbackfail@?$basic_streambuf@GU?$char_traits@G@std@@@std@@MAEGG@Z 10043ab8 f i libcpmt:wiostrea.obj
 0001:00042ab8       ?overflow@?$basic_streambuf@GU?$char_traits@G@std@@@std@@MAEGG@Z 10043ab8 f i libcpmt:wiostrea.obj
 0001:00042abf       ?underflow@?$basic_streambuf@GU?$char_traits@G@std@@@std@@MAEGXZ 10043abf f i libcpmt:wiostrea.obj
 0001:00042ac4       ?uflow@?$basic_streambuf@GU?$char_traits@G@std@@@std@@MAEGXZ 10043ac4 f i libcpmt:wiostrea.obj
 0001:00042ae5       ?xsgetn@?$basic_streambuf@GU?$char_traits@G@std@@@std@@MAEHPAGH@Z 10043ae5 f i libcpmt:wiostrea.obj
 0001:00042b6c       ?xsputn@?$basic_streambuf@GU?$char_traits@G@std@@@std@@MAEHPBGH@Z 10043b6c f i libcpmt:wiostrea.obj
 0001:00042bf4       ?seekoff@?$basic_streambuf@GU?$char_traits@G@std@@@std@@MAE?AV?$fpos@H@2@JW4seekdir@ios_base@2@H@Z 10043bf4 f i libcpmt:wiostrea.obj
 0001:00042bf4       ?seekoff@?$basic_streambuf@DU?$char_traits@D@std@@@std@@MAE?AV?$fpos@H@2@JW4seekdir@ios_base@2@H@Z 10043bf4 f i libcpmt:wiostrea.obj
 0001:00042c18       ?seekpos@?$basic_streambuf@DU?$char_traits@D@std@@@std@@MAE?AV?$fpos@H@2@V32@H@Z 10043c18 f i libcpmt:wiostrea.obj
 0001:00042c18       ?seekpos@?$basic_streambuf@GU?$char_traits@G@std@@@std@@MAE?AV?$fpos@H@2@V32@H@Z 10043c18 f i libcpmt:wiostrea.obj
 0001:00042c3c       ?sync@?$basic_streambuf@GU?$char_traits@G@std@@@std@@MAEHXZ 10043c3c f i libcpmt:wiostrea.obj
 0001:00042c3c       ?sync@?$basic_streambuf@DU?$char_traits@D@std@@@std@@MAEHXZ 10043c3c f i libcpmt:wiostrea.obj
 0001:00042c3c       ?showmanyc@?$basic_streambuf@DU?$char_traits@D@std@@@std@@MAEHXZ 10043c3c f i libcpmt:wiostrea.obj
 0001:00042c3c       ?showmanyc@?$basic_streambuf@GU?$char_traits@G@std@@@std@@MAEHXZ 10043c3c f i libcpmt:wiostrea.obj
 0001:00042c3f       ?imbue@?$basic_streambuf@DU?$char_traits@D@std@@@std@@MAEXABVlocale@2@@Z 10043c3f f i libcpmt:wiostrea.obj
 0001:00042c3f       ?imbue@?$basic_streambuf@GU?$char_traits@G@std@@@std@@MAEXABVlocale@2@@Z 10043c3f f i libcpmt:wiostrea.obj
 0001:00042c42       ??0?$basic_filebuf@GU?$char_traits@G@std@@@std@@QAE@W4_Uninitialized@1@@Z 10043c42 f i libcpmt:wiostrea.obj
 0001:00042c4d       ??1?$basic_filebuf@GU?$char_traits@G@std@@@std@@UAE@XZ 10043c4d f i libcpmt:wiostrea.obj
 0001:00042cb2       ?overflow@?$basic_filebuf@GU?$char_traits@G@std@@@std@@MAEGG@Z 10043cb2 f i libcpmt:wiostrea.obj
 0001:00042dfa       ?pbackfail@?$basic_filebuf@GU?$char_traits@G@std@@@std@@MAEGG@Z 10043dfa f i libcpmt:wiostrea.obj
 0001:00042eb1       ?underflow@?$basic_filebuf@GU?$char_traits@G@std@@@std@@MAEGXZ 10043eb1 f i libcpmt:wiostrea.obj
 0001:00042edf       ?uflow@?$basic_filebuf@GU?$char_traits@G@std@@@std@@MAEGXZ 10043edf f i libcpmt:wiostrea.obj
 0001:00042ffd       ?seekpos@?$basic_filebuf@DU?$char_traits@D@std@@@std@@MAE?AV?$fpos@H@2@V32@H@Z 10043ffd f i libcpmt:wiostrea.obj
 0001:00042ffd       ?seekpos@?$basic_filebuf@GU?$char_traits@G@std@@@std@@MAE?AV?$fpos@H@2@V32@H@Z 10043ffd f i libcpmt:wiostrea.obj
 0001:000430ac       ?setbuf@?$basic_filebuf@GU?$char_traits@G@std@@@std@@MAEPAV?$basic_streambuf@GU?$char_traits@G@std@@@2@PAGH@Z 100440ac f i libcpmt:wiostrea.obj
 0001:000430da       ??_G?$basic_ostream@GU?$char_traits@G@std@@@std@@UAEPAXI@Z 100440da f i libcpmt:wiostrea.obj
 0001:000430da       ??_E?$basic_ostream@GU?$char_traits@G@std@@@std@@UAEPAXI@Z 100440da f i libcpmt:wiostrea.obj
 0001:000430f9       ??_G?$basic_ios@GU?$char_traits@G@std@@@std@@UAEPAXI@Z 100440f9 f i libcpmt:wiostrea.obj
 0001:000430f9       ??_E?$basic_ios@GU?$char_traits@G@std@@@std@@UAEPAXI@Z 100440f9 f i libcpmt:wiostrea.obj
 0001:00043115       ??_E?$basic_istream@GU?$char_traits@G@std@@@std@@UAEPAXI@Z 10044115 f i libcpmt:wiostrea.obj
 0001:00043115       ??_G?$basic_istream@GU?$char_traits@G@std@@@std@@UAEPAXI@Z 10044115 f i libcpmt:wiostrea.obj
 0001:00043134       ??_E?$basic_streambuf@GU?$char_traits@G@std@@@std@@UAEPAXI@Z 10044134 f i libcpmt:wiostrea.obj
 0001:00043134       ??_G?$basic_streambuf@GU?$char_traits@G@std@@@std@@UAEPAXI@Z 10044134 f i libcpmt:wiostrea.obj
 0001:00043150       ??_G?$basic_filebuf@GU?$char_traits@G@std@@@std@@UAEPAXI@Z 10044150 f i libcpmt:wiostrea.obj
 0001:00043150       ??_E?$basic_filebuf@GU?$char_traits@G@std@@@std@@UAEPAXI@Z 10044150 f i libcpmt:wiostrea.obj
 0001:0004316c       ?init@?$basic_ios@GU?$char_traits@G@std@@@std@@IAEXPAV?$basic_streambuf@GU?$char_traits@G@std@@@2@_N@Z 1004416c f i libcpmt:wiostrea.obj
 0001:000431b6       ?gbump@?$basic_streambuf@GU?$char_traits@G@std@@@std@@IAEXH@Z 100441b6 f i libcpmt:wiostrea.obj
 0001:000431ca       ?_Gndec@?$basic_streambuf@GU?$char_traits@G@std@@@std@@IAEPAGXZ 100441ca f i libcpmt:wiostrea.obj
 0001:000431db       ?_Gninc@?$basic_streambuf@GU?$char_traits@G@std@@@std@@IAEPAGXZ 100441db f i libcpmt:wiostrea.obj
 0001:000431eb       ?pbump@?$basic_streambuf@GU?$char_traits@G@std@@@std@@IAEXH@Z 100441eb f i libcpmt:wiostrea.obj
 0001:000431ff       ?_Pninc@?$basic_streambuf@GU?$char_traits@G@std@@@std@@IAEPAGXZ 100441ff f i libcpmt:wiostrea.obj
 0001:0004320f       ?close@?$basic_filebuf@GU?$char_traits@G@std@@@std@@QAEPAV12@XZ 1004420f f i libcpmt:wiostrea.obj
 0001:00043236       ?_Init@?$basic_filebuf@GU?$char_traits@G@std@@@std@@IAEXPAU_iobuf@@W4_Initfl@12@@Z 10044236 f i libcpmt:wiostrea.obj
 0001:000432ce       ??0_Lockit@std@@QAE@XZ     100442ce f   libcpmt:xlock.obj
 0001:0004336a       ??1_Lockit@std@@QAE@XZ     1004436a f   libcpmt:xlock.obj
 0001:0004337f       ?clear@ios_base@std@@QAEXH_N@Z 1004437f f   libcpmt:ios.obj
 0001:0004341b       ??0runtime_error@std@@QAE@ABV?$basic_string@DU?$char_traits@D@std@@V?$allocator@D@2@@1@@Z 1004441b f i libcpmt:ios.obj
 0001:0004347f       ?what@logic_error@std@@UBEPBDXZ 1004447f f i libcpmt:ios.obj
 0001:0004347f       ?what@runtime_error@std@@UBEPBDXZ 1004447f f i libcpmt:ios.obj
 0001:0004348c       ?_Doraise@runtime_error@std@@MBEXXZ 1004448c f i libcpmt:ios.obj
 0001:000434a9       ??1runtime_error@std@@UAE@XZ 100444a9 f i libcpmt:ios.obj
 0001:000434e6       ??_Gruntime_error@std@@UAEPAXI@Z 100444e6 f i libcpmt:ios.obj
 0001:000434e6       ??_Eruntime_error@std@@UAEPAXI@Z 100444e6 f i libcpmt:ios.obj
 0001:00043502       ??0runtime_error@std@@QAE@ABV01@@Z 10044502 f i libcpmt:ios.obj
 0001:0004355f       ??1failure@ios_base@std@@UAE@XZ 1004455f f i libcpmt:ios.obj
 0001:0004359c       ?_Doraise@failure@ios_base@std@@MBEXXZ 1004459c f i libcpmt:ios.obj
 0001:000435b9       ??_Efailure@ios_base@std@@UAEPAXI@Z 100445b9 f i libcpmt:ios.obj
 0001:000435b9       ??_Gfailure@ios_base@std@@UAEPAXI@Z 100445b9 f i libcpmt:ios.obj
 0001:000435d5       ??0failure@ios_base@std@@QAE@ABV012@@Z 100445d5 f i libcpmt:ios.obj
 0001:000435ed       ??1ios_base@std@@UAE@XZ    100445ed f   libcpmt:ios.obj
 0001:0004363d       ??_Gios_base@std@@UAEPAXI@Z 1004463d f i libcpmt:ios.obj
 0001:0004363d       ??_Eios_base@std@@UAEPAXI@Z 1004463d f i libcpmt:ios.obj
 0001:00043659       ?_Callfns@ios_base@std@@AAEXW4event@12@@Z 10044659 f   libcpmt:ios.obj
 0001:0004367b       ?_Addstd@ios_base@std@@IAEXXZ 1004467b f   libcpmt:ios.obj
 0001:000436c9       ?_Init@ios_base@std@@IAEXXZ 100446c9 f   libcpmt:ios.obj
 0001:00043701       ?_Tidy@ios_base@std@@AAEXXZ 10044701 f   libcpmt:ios.obj
 0001:00043764       ?_Init@locale@std@@CAPAV_Locimp@12@XZ 10044764 f   libcpmt:locale0.obj
 0001:0004382e       ?_Tidy@locale@std@@CAXXZ   1004482e f   libcpmt:locale0.obj
 0001:00043878       ??0_Locimp@locale@std@@AAE@_N@Z 10044878 f   libcpmt:locale0.obj
 0001:000438ea       ??1facet@locale@std@@UAE@XZ 100448ea f i libcpmt:locale0.obj
 0001:000438f1       ??_Gfacet@locale@std@@UAEPAXI@Z 100448f1 f i libcpmt:locale0.obj
 0001:000438f1       ??_Efacet@locale@std@@UAEPAXI@Z 100448f1 f i libcpmt:locale0.obj
 0001:0004390e       ??_G_Locimp@locale@std@@UAEPAXI@Z 1004490e f i libcpmt:locale0.obj
 0001:0004390e       ??_E_Locimp@locale@std@@UAEPAXI@Z 1004490e f i libcpmt:locale0.obj
 0001:0004392a       ??1_Locimp@locale@std@@UAE@XZ 1004492a f   libcpmt:locale0.obj
 0001:000439f4       __Mbrtowc                  100449f4 f   libcpmt:xmbtowc.obj
 0001:00043b6a       _btowc                     10044b6a f   libcpmt:xmbtowc.obj
 0001:00043bac       _RtlUnwind@16              10044bac f   kernel32:KERNEL32.dll
 0001:00043bb2       ??_Eexception@@UAEPAXI@Z   10044bb2 f i LIBCMT:stdexcpt.obj
 0001:00043bb2       ??_Gexception@@UAEPAXI@Z   10044bb2 f i LIBCMT:stdexcpt.obj
 0001:00043bce       ??0exception@@QAE@ABQBD@Z  10044bce f   LIBCMT:stdexcpt.obj
 0001:00043c0b       ??0exception@@QAE@ABV0@@Z  10044c0b f   LIBCMT:stdexcpt.obj
 0001:00043c55       ??1exception@@UAE@XZ       10044c55 f   LIBCMT:stdexcpt.obj
 0001:00043c6b       ?what@exception@@UBEPBDXZ  10044c6b f   LIBCMT:stdexcpt.obj
 0001:00043c78       ??1type_info@@UAE@XZ       10044c78 f   LIBCMT:typinfo.obj
 0001:00043ca1       ??_Etype_info@@UAEPAXI@Z   10044ca1 f i LIBCMT:typinfo.obj
 0001:00043ca1       ??_Gtype_info@@UAEPAXI@Z   10044ca1 f i LIBCMT:typinfo.obj
 0001:00043cc0       __EH_prolog                10044cc0 f   LIBCMT:ehprolog.obj
 0001:00043cdf       __CxxThrowException@8      10044cdf f   LIBCMT:throw.obj
 0001:00043d19       _fputc                     10044d19 f   LIBCMT:fputc.obj
 0001:00043d54       _fgetpos                   10044d54 f   LIBCMT:fgetpos.obj
 0001:00043d76       _fseek                     10044d76 f   LIBCMT:fseek.obj
 0001:00043da2       __fseek_lk                 10044da2 f   LIBCMT:fseek.obj
 0001:00043e2f       _fsetpos                   10044e2f f   LIBCMT:fsetpos.obj
 0001:00043e47       _setvbuf                   10044e47 f   LIBCMT:setvbuf.obj
 0001:00043ef6       _fputwc                    10044ef6 f   LIBCMT:fputwc.obj
 0001:00043f20       __putwc_lk                 10044f20 f   LIBCMT:fputwc.obj
 0001:00044019       _ungetwc                   10045019 f   LIBCMT:ungetwc.obj
 0001:00044043       __ungetwc_lk               10045043 f   LIBCMT:ungetwc.obj
 0001:00044130       _fgetwc                    10045130 f   LIBCMT:fgetwc.obj
 0001:00044153       __getwc_lk                 10045153 f   LIBCMT:fgetwc.obj
 0001:00044250       _memcmp                    10045250 f   LIBCMT:memcmp.obj
 0001:000442fc       __ftelli64                 100452fc f   LIBCMT:ftelli64.obj
 0001:00044324       __ftelli64_lk              10045324 f   LIBCMT:ftelli64.obj
 0001:000444b4       __ftell_lk                 100454b4 f   LIBCMT:ftell.obj
 0001:00044615       __fseeki64                 10045615 f   LIBCMT:fseeki64.obj
 0001:00044644       __fseeki64_lk              10045644 f   LIBCMT:fseeki64.obj
 0001:000446d5       __flswbuf                  100456d5 f   LIBCMT:_flswbuf.obj
 0001:000447fc       __filwbuf                  100457fc f   LIBCMT:_filwbuf.obj
 0001:000448e3       __lseeki64                 100458e3 f   LIBCMT:lseeki64.obj
 0001:00044954       __lseeki64_lk              10045954 f   LIBCMT:lseeki64.obj
 0002:00000000       __imp__GetLocalTime@4      10046000     kernel32:KERNEL32.dll
 0002:00000004       __imp__GetPrivateProfileStringA@24 10046004     kernel32:KERNEL32.dll
 0002:00000008       __imp__GetPrivateProfileIntA@16 10046008     kernel32:KERNEL32.dll
 0002:0000000c       __imp__FreeLibrary@4       1004600c     kernel32:KERNEL32.dll
 0002:00000010       __imp__GetProcAddress@8    10046010     kernel32:KERNEL32.dll
 0002:00000014       __imp__LoadLibraryA@4      10046014     kernel32:KERNEL32.dll
 0002:00000018       __imp__SetEndOfFile@4      10046018     kernel32:KERNEL32.dll
 0002:0000001c       __imp__GetOEMCP@0          1004601c     kernel32:KERNEL32.dll
 0002:00000020       __imp__RtlUnwind@16        10046020     kernel32:KERNEL32.dll
 0002:00000024       __imp__GetLastError@0      10046024     kernel32:KERNEL32.dll
 0002:00000028       __imp__CreateDirectoryA@8  10046028     kernel32:KERNEL32.dll
 0002:0000002c       __imp__ExitProcess@4       1004602c     kernel32:KERNEL32.dll
 0002:00000030       __imp__TerminateProcess@8  10046030     kernel32:KERNEL32.dll
 0002:00000034       __imp__GetCurrentProcess@0 10046034     kernel32:KERNEL32.dll
 0002:00000038       __imp__InterlockedDecrement@4 10046038     kernel32:KERNEL32.dll
 0002:0000003c       __imp__InterlockedIncrement@4 1004603c     kernel32:KERNEL32.dll
 0002:00000040       __imp__GetCommandLineA@0   10046040     kernel32:KERNEL32.dll
 0002:00000044       __imp__GetVersion@0        10046044     kernel32:KERNEL32.dll
 0002:00000048       __imp__EnterCriticalSection@4 10046048     kernel32:KERNEL32.dll
 0002:0000004c       __imp__LeaveCriticalSection@4 1004604c     kernel32:KERNEL32.dll
 0002:00000050       __imp__HeapFree@12         10046050     kernel32:KERNEL32.dll
 0002:00000054       __imp__CloseHandle@4       10046054     kernel32:KERNEL32.dll
 0002:00000058       __imp__InitializeCriticalSection@4 10046058     kernel32:KERNEL32.dll
 0002:0000005c       __imp__GetModuleHandleA@4  1004605c     kernel32:KERNEL32.dll
 0002:00000060       __imp__DeleteCriticalSection@4 10046060     kernel32:KERNEL32.dll
 0002:00000064       __imp__Sleep@4             10046064     kernel32:KERNEL32.dll
 0002:00000068       __imp__GetCurrentThreadId@0 10046068     kernel32:KERNEL32.dll
 0002:0000006c       __imp__TlsSetValue@8       1004606c     kernel32:KERNEL32.dll
 0002:00000070       __imp__TlsAlloc@0          10046070     kernel32:KERNEL32.dll
 0002:00000074       __imp__TlsFree@4           10046074     kernel32:KERNEL32.dll
 0002:00000078       __imp__SetLastError@4      10046078     kernel32:KERNEL32.dll
 0002:0000007c       __imp__TlsGetValue@4       1004607c     kernel32:KERNEL32.dll
 0002:00000080       __imp__HeapReAlloc@16      10046080     kernel32:KERNEL32.dll
 0002:00000084       __imp__HeapAlloc@12        10046084     kernel32:KERNEL32.dll
 0002:00000088       __imp__HeapSize@12         10046088     kernel32:KERNEL32.dll
 0002:0000008c       __imp__ReadFile@20         1004608c     kernel32:KERNEL32.dll
 0002:00000090       __imp__WriteFile@20        10046090     kernel32:KERNEL32.dll
 0002:00000094       __imp__RaiseException@16   10046094     kernel32:KERNEL32.dll
 0002:00000098       __imp__WideCharToMultiByte@32 10046098     kernel32:KERNEL32.dll
 0002:0000009c       __imp__MultiByteToWideChar@24 1004609c     kernel32:KERNEL32.dll
 0002:000000a0       __imp__LCMapStringA@24     100460a0     kernel32:KERNEL32.dll
 0002:000000a4       __imp__LCMapStringW@24     100460a4     kernel32:KERNEL32.dll
 0002:000000a8       __imp__SetHandleCount@4    100460a8     kernel32:KERNEL32.dll
 0002:000000ac       __imp__GetStdHandle@4      100460ac     kernel32:KERNEL32.dll
 0002:000000b0       __imp__GetFileType@4       100460b0     kernel32:KERNEL32.dll
 0002:000000b4       __imp__GetStartupInfoA@4   100460b4     kernel32:KERNEL32.dll
 0002:000000b8       __imp__GetModuleFileNameA@12 100460b8     kernel32:KERNEL32.dll
 0002:000000bc       __imp__FreeEnvironmentStringsA@4 100460bc     kernel32:KERNEL32.dll
 0002:000000c0       __imp__FreeEnvironmentStringsW@4 100460c0     kernel32:KERNEL32.dll
 0002:000000c4       __imp__GetEnvironmentStrings@0 100460c4     kernel32:KERNEL32.dll
 0002:000000c8       __imp__GetEnvironmentStringsW@0 100460c8     kernel32:KERNEL32.dll
 0002:000000cc       __imp__HeapDestroy@4       100460cc     kernel32:KERNEL32.dll
 0002:000000d0       __imp__HeapCreate@12       100460d0     kernel32:KERNEL32.dll
 0002:000000d4       __imp__VirtualFree@12      100460d4     kernel32:KERNEL32.dll
 0002:000000d8       __imp__VirtualAlloc@16     100460d8     kernel32:KERNEL32.dll
 0002:000000dc       __imp__IsBadWritePtr@8     100460dc     kernel32:KERNEL32.dll
 0002:000000e0       __imp__SetStdHandle@8      100460e0     kernel32:KERNEL32.dll
 0002:000000e4       __imp__FlushFileBuffers@4  100460e4     kernel32:KERNEL32.dll
 0002:000000e8       __imp__CreateFileA@28      100460e8     kernel32:KERNEL32.dll
 0002:000000ec       __imp__GetStringTypeA@20   100460ec     kernel32:KERNEL32.dll
 0002:000000f0       __imp__GetStringTypeW@16   100460f0     kernel32:KERNEL32.dll
 0002:000000f4       __imp__GetCPInfo@8         100460f4     kernel32:KERNEL32.dll
 0002:000000f8       __imp__SetUnhandledExceptionFilter@4 100460f8     kernel32:KERNEL32.dll
 0002:000000fc       __imp__IsBadReadPtr@8      100460fc     kernel32:KERNEL32.dll
 0002:00000100       __imp__IsBadCodePtr@4      10046100     kernel32:KERNEL32.dll
 0002:00000104       __imp__SetFilePointer@16   10046104     kernel32:KERNEL32.dll
 0002:00000108       __imp__GetACP@0            10046108     kernel32:KERNEL32.dll
 0002:0000010c       __imp__InterlockedExchange@8 1004610c     kernel32:KERNEL32.dll
 0002:00000110       \177KERNEL32_NULL_THUNK_DATA 10046110     kernel32:KERNEL32.dll
 0002:00000114       __imp__WSAStartup@8        10046114     wsock32:WSOCK32.dll
 0002:00000118       __imp__gethostbyname@4     10046118     wsock32:WSOCK32.dll
 0002:0000011c       __imp__htons@4             1004611c     wsock32:WSOCK32.dll
 0002:00000120       __imp__socket@12           10046120     wsock32:WSOCK32.dll
 0002:00000124       __imp__WSACleanup@0        10046124     wsock32:WSOCK32.dll
 0002:00000128       __imp__connect@12          10046128     wsock32:WSOCK32.dll
 0002:0000012c       __imp__send@16             1004612c     wsock32:WSOCK32.dll
 0002:00000130       \177WSOCK32_NULL_THUNK_DATA 10046130     wsock32:WSOCK32.dll
 0002:00000138       __real@3fb999999999999a    10046138     3rdperson.obj
 0002:00000140       __real@c3160000            10046140     3rdperson.obj
 0002:00000144       __real@00000000            10046144     ablaster.obj
 0002:00000148       __real@44fa0000            10046148     ablaster.obj
 0002:0000014c       __real@41a00000            1004614c     airstrike.obj
 0002:00000150       __real@42700000            10046150     airstrike.obj
 0002:00000154       __real@43480000            10046154     airstrike.obj
 0002:00000158       __real@3ff0000000000000    10046158     airstrike.obj
 0002:00000160       __real@457a0000            10046160     airstrike.obj
 0002:00000168       __real@3fe0000000000000    10046168     airstrike.obj
 0002:00000170       __real@41200000            10046170     airstrike.obj
 0002:00000174       __real@3f800000            10046174     airstrike.obj
 0002:00000178       __real@40a7700000000000    10046178     airstrike.obj
 0002:00000180       __real@42000000            10046180     airstrike.obj
 0002:00000184       __real@44800000            10046184     airstrike.obj
 0002:00000188       __real@40000000            10046188     aogarg.obj
 0002:00000190       __real@0000000000000000    10046190     aogarg.obj
 0002:00000198       __real@428c0000            10046198     aogarg.obj
 0002:0000019c       __real@3b360b61            1004619c     aogarg.obj
 0002:000001a0       __real@437f0000            100461a0     aogarg.obj
 0002:000001a4       __real@40800000            100461a4     aogarg.obj
 0002:000001a8       __real@43160000            100461a8     aogarg.obj
 0002:000001ac       __real@42480000            100461ac     aogarg.obj
 0002:000001b0       __real@42a00000            100461b0     aogarg.obj
 0002:000001b4       __real@42800000            100461b4     aogarg.obj
 0002:000001b8       __real@41000000            100461b8     aogarg.obj
 0002:000001bc       __real@47bf6800            100461bc     aogarg.obj
 0002:000001c0       __real@409f400000000000    100461c0     aogarg.obj
 0002:000001c8       __real@420c0000            100461c8     aogarg.obj
 0002:000001cc       __real@40400000            100461cc     aogarg.obj
 0002:000001d0       __real@43610000            100461d0     aohgrunt.obj
 0002:000001d4       __real@42200000            100461d4     aohgrunt.obj
 0002:000001d8       __real@47c2ba00            100461d8     aohgrunt.obj
 0002:000001dc       __real@47c2d300            100461dc     aohgrunt.obj
 0002:000001e0       __real@c3340000            100461e0     aomonsters.obj
 0002:000001e4       __real@43b40000            100461e4     aomonsters.obj
 0002:000001e8       __real@43340000            100461e8     aomonsters.obj
 0002:000001ec       __real@41f00000            100461ec     aomonsters.obj
 0002:000001f0       __real@42340000            100461f0     aomonsters.obj
 0002:000001f4       __real@c28c0000            100461f4     aomonsters.obj
 0002:000001f8       __real@41c00000            100461f8     aomonsters.obj
 0002:00000200       __real@4059000000000000    10046200     biggun.obj
 0002:00000208       __real@4004000000000000    10046208     biggun.obj
 0002:00000210       __real@43800000            10046210     biggun.obj
 0002:00000214       __real@460ca000            10046214     biggun.obj
 0002:00000218       __real@bf800000            10046218     biggun.obj
 0002:0000021c       __real@43000000            1004621c     c4.obj
 0002:00000220       __real@42c80000            10046220     c4.obj
 0002:00000224       ?_C@?1??_Nullstr@?$basic_string@DU?$char_traits@D@std@@V?$allocator@D@2@@std@@CAPBDXZ@4DB 10046224     CIniFile.obj
 0002:00000228       ?npos@?$basic_string@DU?$char_traits@D@std@@V?$allocator@D@2@@std@@2IB 10046228     CIniFile.obj
 0002:0000022c       __real@44160000            1004622c     commands.obj
 0002:00000230       __real@40a00000            10046230     credits.obj
 0002:00000238       __real@4072c00000000000    10046238     dll.obj
 0002:00000240       __real@4014000000000000    10046240     dll.obj
 0002:00000248       __real@4018000000000000    10046248     dll.obj
 0002:00000250       __real@4062c00000000000    10046250     dll.obj
 0002:00000258       __real@404e000000000000    10046258     dll.obj
 0002:00000260       __real@3ff8000000000000    10046260     dll.obj
 0002:00000268       __real@3fd999999999999a    10046268     dualbar.obj
 0002:00000270       __real@40c00000            10046270     energyblast.obj
 0002:00000278       __real@4049000000000000    10046278     energyblast.obj
 0002:00000280       __real@43c80000            10046280     flashbang.obj
 0002:00000284       __real@42f00000            10046284     funcommands.obj
 0002:00000288       __real@3fd0000000000000    10046288     funcommands.obj
 0002:00000290       __real@c1900000            10046290     funcommands.obj
 0002:00000294       __real@3f333333            10046294     generalstuff.obj
 0002:00000298       __real@4069000000000000    10046298     grapple.obj
 0002:000002a0       __real@4024000000000000    100462a0     grapple.obj
 0002:000002a8       __real@41800000            100462a8     grapple.obj
 0002:000002ac       __real@42600000            100462ac     laserfence.obj
 0002:000002b0       __real@423c0000            100462b0     laserfence.obj
 0002:000002b4       __real@42180000            100462b4     laserfence.obj
 0002:000002b8       __real@47c35000            100462b8     laserfence.obj
 0002:000002bc       __real@45fa0000            100462bc     leveleditor.obj
 0002:000002c0       __real@42b40000            100462c0     leveleditor.obj
 0002:000002c8       __real@4038e66666666666    100462c8     lights.obj
 0002:000002d0       __real@402e000000000000    100462d0     mediflag.obj
 0002:000002d8       __real@3fd3333333333333    100462d8     playerstuff.obj
 0002:000002e0       __real@4@3fff8000000000000000 100462e0     plugin_api.obj
 0002:000002e8       __real@8@3fff8000000000000000 100462e8     plugin_api.obj
 0002:000002f0       __real@43960000            100462f0     snarks.obj
 0002:000002f4       __real@3f99999a            100462f4     snarks.obj
 0002:000002f8       __real@3ff3333333333333    100462f8     snarks.obj
 0002:00000300       __real@4020000000000000    10046300     snarks.obj
 0002:00000308       __real@3f666666            10046308     snarks.obj
 0002:00000310       ??_7CAutoOPGun@@6B@        10046310     testentity.obj
 0002:000003f4       __real@3f000000            100463f4     testentity.obj
 0002:000003f8       __real@3e4ccccd            100463f8     util.obj
 0002:000003fc       __real@bb360b61            100463fc     util.obj
 0002:00000400       __real@42280000            10046400     util.obj
 0002:00000404       __real@447a0000            10046404     util.obj
 0002:00000408       __real@42960000            10046408     vampirism.obj
 0002:0000040c       ___lookuptable             1004640c     LIBCMT:output.obj
 0002:00000468       ??_C@_1O@POHA@?$AA?$CI?$AAn?$AAu?$AAl?$AAl?$AA?$CJ?$AA?$AA@ 10046468     LIBCMT:output.obj
 0002:00000478       ??_C@_06ONKE@?$CInull?$CJ?$AA@ 10046478     LIBCMT:output.obj
 0002:00000480       __real@8@4015800bf60000000000 10046480     LIBCMT:testfdiv.obj
 0002:00000488       __real@8@4014bffffc0000000000 10046488     LIBCMT:testfdiv.obj
 0002:00000490       ??_C@_0BK@JEGK@IsProcessorFeaturePresent?$AA@ 10046490     LIBCMT:testfdiv.obj
 0002:000004ac       ??_C@_08OBID@KERNEL32?$AA@ 100464ac     LIBCMT:testfdiv.obj
 0002:000004b8       __real@8@00000000000000000000 100464b8     LIBCMT:cvt.obj
 0002:000004c0       ??_C@_05OFLO@e?$CL000?$AA@ 100464c0     LIBCMT:cvt.obj
 0002:00000540       ??_C@_03GAFO@_yn?$AA@      10046540     LIBCMT:fpexcept.obj
 0002:00000544       ??_C@_03GNLD@_y1?$AA@      10046544     LIBCMT:fpexcept.obj
 0002:00000548       ??_C@_03MHCE@_y0?$AA@      10046548     LIBCMT:fpexcept.obj
 0002:0000054c       ??_C@_05PAK@frexp?$AA@     1004654c     LIBCMT:fpexcept.obj
 0002:00000554       ??_C@_04JKCH@fmod?$AA@     10046554     LIBCMT:fpexcept.obj
 0002:0000055c       ??_C@_06GGHF@_hypot?$AA@   1004655c     LIBCMT:fpexcept.obj
 0002:00000564       ??_C@_05JNMC@_cabs?$AA@    10046564     LIBCMT:fpexcept.obj
 0002:0000056c       ??_C@_05MEKH@ldexp?$AA@    1004656c     LIBCMT:fpexcept.obj
 0002:00000574       ??_C@_04KAOJ@modf?$AA@     10046574     LIBCMT:fpexcept.obj
 0002:0000057c       ??_C@_04EHAJ@fabs?$AA@     1004657c     LIBCMT:fpexcept.obj
 0002:00000584       ??_C@_05MFBN@floor?$AA@    10046584     LIBCMT:fpexcept.obj
 0002:0000058c       ??_C@_04JJMP@ceil?$AA@     1004658c     LIBCMT:fpexcept.obj
 0002:00000594       ??_C@_03JLPI@tan?$AA@      10046594     LIBCMT:fpexcept.obj
 0002:00000598       ??_C@_03DLFL@cos?$AA@      10046598     LIBCMT:fpexcept.obj
 0002:0000059c       ??_C@_03JAMN@sin?$AA@      1004659c     LIBCMT:fpexcept.obj
 0002:000005a0       ??_C@_04LMBE@sqrt?$AA@     100465a0     LIBCMT:fpexcept.obj
 0002:000005a8       ??_C@_05BFPO@atan2?$AA@    100465a8     LIBCMT:fpexcept.obj
 0002:000005b0       ??_C@_04EAGN@atan?$AA@     100465b0     LIBCMT:fpexcept.obj
 0002:000005b8       ??_C@_04OAMO@acos?$AA@     100465b8     LIBCMT:fpexcept.obj
 0002:000005c0       ??_C@_04ELFI@asin?$AA@     100465c0     LIBCMT:fpexcept.obj
 0002:000005c8       ??_C@_04LFAD@tanh?$AA@     100465c8     LIBCMT:fpexcept.obj
 0002:000005d0       ??_C@_04PFKD@cosh?$AA@     100465d0     LIBCMT:fpexcept.obj
 0002:000005d8       ??_C@_04NPAI@sinh?$AA@     100465d8     LIBCMT:fpexcept.obj
 0002:000005e0       ??_C@_05IJHH@log10?$AA@    100465e0     LIBCMT:fpexcept.obj
 0002:000005e8       ??_C@_03BGKD@log?$AA@      100465e8     LIBCMT:fpexcept.obj
 0002:000005ec       ??_C@_03EGFG@pow?$AA@      100465ec     LIBCMT:fpexcept.obj
 0002:000005f0       ??_C@_03CDGJ@exp?$AA@      100465f0     LIBCMT:fpexcept.obj
 0002:000005f4       ??_C@_13A@?$AA?$AA?$AA?$AA@ 100465f4     LIBCMT:a_map.obj
 0002:00000610       ??_C@_0P@GGKG@runtime?5error?5?$AA@ 10046610     LIBCMT:crt0msg.obj
 0002:00000620       ??_C@_02PIMC@?$AN?6?$AA@   10046620     LIBCMT:crt0msg.obj
 0002:00000624       ??_C@_0O@DELO@TLOSS?5error?$AN?6?$AA@ 10046624     LIBCMT:crt0msg.obj
 0002:00000634       ??_C@_0N@OMLL@SING?5error?$AN?6?$AA@ 10046634     LIBCMT:crt0msg.obj
 0002:00000644       ??_C@_0P@OJAK@DOMAIN?5error?$AN?6?$AA@ 10046644     LIBCMT:crt0msg.obj
 0002:00000654       ??_C@_0CF@EANP@R6028?$AN?6?9?5unable?5to?5initialize?5he@ 10046654     LIBCMT:crt0msg.obj
 0002:0000067c       ??_C@_0DF@ECGN@R6027?$AN?6?9?5not?5enough?5space?5for?5lo@ 1004667c     LIBCMT:crt0msg.obj
 0002:000006b4       ??_C@_0DF@FKAC@R6026?$AN?6?9?5not?5enough?5space?5for?5st@ 100466b4     LIBCMT:crt0msg.obj
 0002:000006ec       ??_C@_0CG@DPMN@R6025?$AN?6?9?5pure?5virtual?5function?5c@ 100466ec     LIBCMT:crt0msg.obj
 0002:00000714       ??_C@_0DF@CKIP@R6024?$AN?6?9?5not?5enough?5space?5for?5_o@ 10046714     LIBCMT:crt0msg.obj
 0002:0000074c       ??_C@_0CJ@GGOE@R6019?$AN?6?9?5unable?5to?5open?5console?5@ 1004674c     LIBCMT:crt0msg.obj
 0002:00000778       ??_C@_0CB@LBOB@R6018?$AN?6?9?5unexpected?5heap?5error?$AN?6@ 10046778     LIBCMT:crt0msg.obj
 0002:0000079c       ??_C@_0CN@FPEG@R6017?$AN?6?9?5unexpected?5multithread?5@ 1004679c     LIBCMT:crt0msg.obj
 0002:000007cc       ??_C@_0CM@OBIC@R6016?$AN?6?9?5not?5enough?5space?5for?5th@ 100467cc     LIBCMT:crt0msg.obj
 0002:000007f8       ??_C@_0CB@HPAL@?$AN?6abnormal?5program?5termination?$AN?6@ 100467f8     LIBCMT:crt0msg.obj
 0002:0000081c       ??_C@_0CM@JOOB@R6009?$AN?6?9?5not?5enough?5space?5for?5en@ 1004681c     LIBCMT:crt0msg.obj
 0002:00000848       ??_C@_0CK@OIBL@R6008?$AN?6?9?5not?5enough?5space?5for?5ar@ 10046848     LIBCMT:crt0msg.obj
 0002:00000874       ??_C@_0CF@LKPB@R6002?$AN?6?9?5floating?5point?5not?5load@ 10046874     LIBCMT:crt0msg.obj
 0002:0000089c       ??_C@_0CF@JPDF@Microsoft?5Visual?5C?$CL?$CL?5Runtime?5Lib@ 1004689c     LIBCMT:crt0msg.obj
 0002:000008c4       ??_C@_02JJJH@?6?6?$AA@     100468c4     LIBCMT:crt0msg.obj
 0002:000008c8       ??_C@_0BK@DEOK@Runtime?5Error?$CB?6?6Program?3?5?$AA@ 100468c8     LIBCMT:crt0msg.obj
 0002:000008e4       ??_C@_03NAME@?4?4?4?$AA@   100468e4     LIBCMT:crt0msg.obj
 0002:000008e8       ??_C@_0BH@NNCD@?$DMprogram?5name?5unknown?$DO?$AA@ 100468e8     LIBCMT:crt0msg.obj
 0002:0000090c       ??_C@_0BD@NJFP@GetLastActivePopup?$AA@ 1004690c     LIBCMT:crtmbox.obj
 0002:00000920       ??_C@_0BA@GILI@GetActiveWindow?$AA@ 10046920     LIBCMT:crtmbox.obj
 0002:00000930       ??_C@_0M@PKCK@MessageBoxA?$AA@ 10046930     LIBCMT:crtmbox.obj
 0002:0000093c       ??_C@_0L@HKL@user32?4dll?$AA@ 1004693c     LIBCMT:crtmbox.obj
 0002:00000948       ??_C@_06PAPI@1?$CDQNAN?$AA@ 10046948     LIBCMT:x10fout.obj
 0002:00000950       ??_C@_05BGNL@1?$CDINF?$AA@ 10046950     LIBCMT:x10fout.obj
 0002:00000958       ??_C@_05EDPF@1?$CDIND?$AA@ 10046958     LIBCMT:x10fout.obj
 0002:00000960       ??_C@_06LKFM@1?$CDSNAN?$AA@ 10046960     LIBCMT:x10fout.obj
 0002:00000968       ??_C@_07CJME@H?3mm?3ss?$AA@ 10046968     LIBCMT:strftime.obj
 0002:00000970       ??_C@_0BE@MHI@dddd?0?5MMMM?5dd?0?5yyyy?$AA@ 10046970     LIBCMT:strftime.obj
 0002:00000984       ??_C@_06HCAD@M?1d?1yy?$AA@ 10046984     LIBCMT:strftime.obj
 0002:0000098c       ??_C@_02DBLP@PM?$AA@       1004698c     LIBCMT:strftime.obj
 0002:00000990       ??_C@_02ENLM@AM?$AA@       10046990     LIBCMT:strftime.obj
 0002:00000994       ??_C@_08LIDF@December?$AA@ 10046994     LIBCMT:strftime.obj
 0002:000009a0       ??_C@_08NJLI@November?$AA@ 100469a0     LIBCMT:strftime.obj
 0002:000009ac       ??_C@_07IAMM@October?$AA@  100469ac     LIBCMT:strftime.obj
 0002:000009b4       ??_C@_09MKGD@September?$AA@ 100469b4     LIBCMT:strftime.obj
 0002:000009c0       ??_C@_06PADP@August?$AA@   100469c0     LIBCMT:strftime.obj
 0002:000009c8       ??_C@_04PIJO@July?$AA@     100469c8     LIBCMT:strftime.obj
 0002:000009d0       ??_C@_04ICFP@June?$AA@     100469d0     LIBCMT:strftime.obj
 0002:000009d8       ??_C@_05JFGC@April?$AA@    100469d8     LIBCMT:strftime.obj
 0002:000009e0       ??_C@_05FGPD@March?$AA@    100469e0     LIBCMT:strftime.obj
 0002:000009e8       ??_C@_08PGBA@February?$AA@ 100469e8     LIBCMT:strftime.obj
 0002:000009f4       ??_C@_07BPKJ@January?$AA@  100469f4     LIBCMT:strftime.obj
 0002:000009fc       ??_C@_03PGJO@Dec?$AA@      100469fc     LIBCMT:strftime.obj
 0002:00000a00       ??_C@_03PDLM@Nov?$AA@      10046a00     LIBCMT:strftime.obj
 0002:00000a04       ??_C@_03BLHK@Oct?$AA@      10046a04     LIBCMT:strftime.obj
 0002:00000a08       ??_C@_03DPFM@Sep?$AA@      10046a08     LIBCMT:strftime.obj
 0002:00000a0c       ??_C@_03CMCH@Aug?$AA@      10046a0c     LIBCMT:strftime.obj
 0002:00000a10       ??_C@_03OBKI@Jul?$AA@      10046a10     LIBCMT:strftime.obj
 0002:00000a14       ??_C@_03LEIG@Jun?$AA@      10046a14     LIBCMT:strftime.obj
 0002:00000a18       ??_C@_03MGHB@May?$AA@      10046a18     LIBCMT:strftime.obj
 0002:00000a1c       ??_C@_03MJJM@Apr?$AA@      10046a1c     LIBCMT:strftime.obj
 0002:00000a20       ??_C@_03GNHA@Mar?$AA@      10046a20     LIBCMT:strftime.obj
 0002:00000a24       ??_C@_03PICE@Feb?$AA@      10046a24     LIBCMT:strftime.obj
 0002:00000a28       ??_C@_03IEIF@Jan?$AA@      10046a28     LIBCMT:strftime.obj
 0002:00000a2c       ??_C@_08FAKH@Saturday?$AA@ 10046a2c     LIBCMT:strftime.obj
 0002:00000a38       ??_C@_06ONCK@Friday?$AA@   10046a38     LIBCMT:strftime.obj
 0002:00000a40       ??_C@_08CCFO@Thursday?$AA@ 10046a40     LIBCMT:strftime.obj
 0002:00000a4c       ??_C@_09PBIN@Wednesday?$AA@ 10046a4c     LIBCMT:strftime.obj
 0002:00000a58       ??_C@_07BMBC@Tuesday?$AA@  10046a58     LIBCMT:strftime.obj
 0002:00000a60       ??_C@_06CHLK@Monday?$AA@   10046a60     LIBCMT:strftime.obj
 0002:00000a68       ??_C@_06OOEM@Sunday?$AA@   10046a68     LIBCMT:strftime.obj
 0002:00000a70       ??_C@_03MPKK@Sat?$AA@      10046a70     LIBCMT:strftime.obj
 0002:00000a74       ??_C@_03FINJ@Fri?$AA@      10046a74     LIBCMT:strftime.obj
 0002:00000a78       ??_C@_03HIKC@Thu?$AA@      10046a78     LIBCMT:strftime.obj
 0002:00000a7c       ??_C@_03HECK@Wed?$AA@      10046a7c     LIBCMT:strftime.obj
 0002:00000a80       ??_C@_03ECCP@Tue?$AA@      10046a80     LIBCMT:strftime.obj
 0002:00000a84       ??_C@_03PIEP@Mon?$AA@      10046a84     LIBCMT:strftime.obj
 0002:00000a88       ??_C@_03FHEP@Sun?$AA@      10046a88     LIBCMT:strftime.obj
 0002:00000a8c       ___dnames                  10046a8c     LIBCMT:timeset.obj
 0002:00000aa4       ___mnames                  10046aa4     LIBCMT:timeset.obj
 0002:00000ad0       ??_7length_error@std@@6B@  10046ad0     libcpmt:string.obj
 0002:00000adc       ??_C@_0BA@HHMB@string?5too?5long?$AA@ 10046adc     libcpmt:string.obj
 0002:00000af0       ??_7logic_error@std@@6B@   10046af0     libcpmt:string.obj
 0002:00000b00       ??_7out_of_range@std@@6B@  10046b00     libcpmt:string.obj
 0002:00000b0c       ??_C@_0BI@EEBE@invalid?5string?5position?$AA@ 10046b0c     libcpmt:string.obj
 0002:00000b28       ??_7?$basic_istream@DU?$char_traits@D@std@@@std@@6B@ 10046b28     libcpmt:iostream.obj
 0002:00000b30       ??_7?$basic_ostream@DU?$char_traits@D@std@@@std@@6B@ 10046b30     libcpmt:iostream.obj
 0002:00000b38       ??_7?$basic_ios@DU?$char_traits@D@std@@@std@@6B@ 10046b38     libcpmt:iostream.obj
 0002:00000b3c       ??_8?$basic_ostream@DU?$char_traits@D@std@@@std@@7B@ 10046b3c     libcpmt:iostream.obj
 0002:00000b44       ??_8?$basic_istream@DU?$char_traits@D@std@@@std@@7B@ 10046b44     libcpmt:iostream.obj
 0002:00000b50       ??_7?$basic_filebuf@DU?$char_traits@D@std@@@std@@6B@ 10046b50     libcpmt:iostream.obj
 0002:00000b88       ??_7?$basic_streambuf@DU?$char_traits@D@std@@@std@@6B@ 10046b88     libcpmt:iostream.obj
 0002:00000bc0       ??_7?$basic_istream@GU?$char_traits@G@std@@@std@@6B@ 10046bc0     libcpmt:wiostrea.obj
 0002:00000bc8       ??_7?$basic_ostream@GU?$char_traits@G@std@@@std@@6B@ 10046bc8     libcpmt:wiostrea.obj
 0002:00000bd0       ??_7?$basic_ios@GU?$char_traits@G@std@@@std@@6B@ 10046bd0     libcpmt:wiostrea.obj
 0002:00000bd4       ??_8?$basic_ostream@GU?$char_traits@G@std@@@std@@7B@ 10046bd4     libcpmt:wiostrea.obj
 0002:00000bdc       ??_8?$basic_istream@GU?$char_traits@G@std@@@std@@7B@ 10046bdc     libcpmt:wiostrea.obj
 0002:00000be8       ??_7?$basic_filebuf@GU?$char_traits@G@std@@@std@@6B@ 10046be8     libcpmt:wiostrea.obj
 0002:00000c20       ??_7?$basic_streambuf@GU?$char_traits@G@std@@@std@@6B@ 10046c20     libcpmt:wiostrea.obj
 0002:00000c58       ?_Fpz@std@@3_JB            10046c58     libcpmt:ios.obj
 0002:00000c64       ??_7failure@ios_base@std@@6B@ 10046c64     libcpmt:ios.obj
 0002:00000c70       ??_C@_0BA@NGIA@ios?3?3eofbit?5set?$AA@ 10046c70     libcpmt:ios.obj
 0002:00000c80       ??_C@_0BB@KPBH@ios?3?3failbit?5set?$AA@ 10046c80     libcpmt:ios.obj
 0002:00000c94       ??_C@_0BA@HGGD@ios?3?3badbit?5set?$AA@ 10046c94     libcpmt:ios.obj
 0002:00000ca8       ??_7runtime_error@std@@6B@ 10046ca8     libcpmt:ios.obj
 0002:00000cb8       ??_7ios_base@std@@6B@      10046cb8     libcpmt:ios.obj
 0002:00000cbc       ?table_size@?$ctype@D@std@@2IB 10046cbc     libcpmt:locale0.obj
 0002:00000cc0       ??_C@_01FDHG@?$CK?$AA@     10046cc0     libcpmt:locale0.obj
 0002:00000cc4       ??_C@_01FKHJ@C?$AA@        10046cc4     libcpmt:locale0.obj
 0002:00000ccc       ??_7_Locimp@locale@std@@6B@ 10046ccc     libcpmt:locale0.obj
 0002:00000cd4       ??_7facet@locale@std@@6B@  10046cd4     libcpmt:locale0.obj
 0002:00000cd8       ?nothrow@std@@3Unothrow_t@1@B 10046cd8     libcpmt:nomemory.obj
 0002:00000ce0       ??_7exception@@6B@         10046ce0     LIBCMT:stdexcpt.obj
 0002:00000ce8       ??_C@_0BC@OIDF@Unknown?5exception?$AA@ 10046ce8     LIBCMT:stdexcpt.obj
 0002:00000d00       ??_7type_info@@6B@         10046d00     LIBCMT:typinfo.obj
 0002:00000d28       ??_R1A@?0A@A@exception@@8  10046d28     libcpmt:string.obj
 0002:00000d40       ??_R1A@?0A@A@logic_error@std@@8 10046d40     libcpmt:string.obj
 0002:00000d58       ??_R1A@?0A@A@length_error@std@@8 10046d58     libcpmt:string.obj
 0002:00000d70       ??_R2length_error@std@@8   10046d70     libcpmt:string.obj
 0002:00000d80       ??_R3length_error@std@@8   10046d80     libcpmt:string.obj
 0002:00000d90       ??_R4length_error@std@@6B@ 10046d90     libcpmt:string.obj
 0002:00000da8       ??_R2logic_error@std@@8    10046da8     libcpmt:string.obj
 0002:00000db8       ??_R3logic_error@std@@8    10046db8     libcpmt:string.obj
 0002:00000dc8       ??_R4logic_error@std@@6B@  10046dc8     libcpmt:string.obj
 0002:00000de0       ??_R1A@?0A@A@out_of_range@std@@8 10046de0     libcpmt:string.obj
 0002:00000df8       ??_R2out_of_range@std@@8   10046df8     libcpmt:string.obj
 0002:00000e08       ??_R3out_of_range@std@@8   10046e08     libcpmt:string.obj
 0002:00000e18       ??_R4out_of_range@std@@6B@ 10046e18     libcpmt:string.obj
 0002:00000e30       ??_R1A@A@3A@ios_base@std@@8 10046e30     libcpmt:iostream.obj
 0002:00000e48       ??_R1A@A@3BA@?$basic_ios@DU?$char_traits@D@std@@@std@@8 10046e48     libcpmt:iostream.obj
 0002:00000e60       ??_R1A@?0A@A@?$basic_istream@DU?$char_traits@D@std@@@std@@8 10046e60     libcpmt:iostream.obj
 0002:00000e78       ??_R2?$basic_istream@DU?$char_traits@D@std@@@std@@8 10046e78     libcpmt:iostream.obj
 0002:00000e88       ??_R3?$basic_istream@DU?$char_traits@D@std@@@std@@8 10046e88     libcpmt:iostream.obj
 0002:00000e98       ??_R4?$basic_istream@DU?$char_traits@D@std@@@std@@6B@ 10046e98     libcpmt:iostream.obj
 0002:00000eb0       ??_R1A@?0A@A@?$basic_ostream@DU?$char_traits@D@std@@@std@@8 10046eb0     libcpmt:iostream.obj
 0002:00000ec8       ??_R2?$basic_ostream@DU?$char_traits@D@std@@@std@@8 10046ec8     libcpmt:iostream.obj
 0002:00000ed8       ??_R3?$basic_ostream@DU?$char_traits@D@std@@@std@@8 10046ed8     libcpmt:iostream.obj
 0002:00000ee8       ??_R4?$basic_ostream@DU?$char_traits@D@std@@@std@@6B@ 10046ee8     libcpmt:iostream.obj
 0002:00000f00       ??_R1A@?0A@A@ios_base@std@@8 10046f00     libcpmt:iostream.obj
 0002:00000f18       ??_R1A@?0A@A@?$basic_ios@DU?$char_traits@D@std@@@std@@8 10046f18     libcpmt:iostream.obj
 0002:00000f30       ??_R2?$basic_ios@DU?$char_traits@D@std@@@std@@8 10046f30     libcpmt:iostream.obj
 0002:00000f40       ??_R3?$basic_ios@DU?$char_traits@D@std@@@std@@8 10046f40     libcpmt:iostream.obj
 0002:00000f50       ??_R4?$basic_ios@DU?$char_traits@D@std@@@std@@6B@ 10046f50     libcpmt:iostream.obj
 0002:00000f64       ??_R2?$basic_streambuf@DU?$char_traits@D@std@@@std@@8 10046f64     libcpmt:iostream.obj
 0002:00000f70       ??_R3?$basic_streambuf@DU?$char_traits@D@std@@@std@@8 10046f70     libcpmt:iostream.obj
 0002:00000f80       ??_R4?$basic_streambuf@DU?$char_traits@D@std@@@std@@6B@ 10046f80     libcpmt:iostream.obj
 0002:00000f98       ??_R1A@?0A@A@?$basic_streambuf@DU?$char_traits@D@std@@@std@@8 10046f98     libcpmt:iostream.obj
 0002:00000fb0       ??_R1A@?0A@A@?$basic_filebuf@DU?$char_traits@D@std@@@std@@8 10046fb0     libcpmt:iostream.obj
 0002:00000fc8       ??_R2?$basic_filebuf@DU?$char_traits@D@std@@@std@@8 10046fc8     libcpmt:iostream.obj
 0002:00000fd8       ??_R3?$basic_filebuf@DU?$char_traits@D@std@@@std@@8 10046fd8     libcpmt:iostream.obj
 0002:00000fe8       ??_R4?$basic_filebuf@DU?$char_traits@D@std@@@std@@6B@ 10046fe8     libcpmt:iostream.obj
 0002:00001000       ??_R1A@A@3BA@?$basic_ios@GU?$char_traits@G@std@@@std@@8 10047000     libcpmt:wiostrea.obj
 0002:00001018       ??_R1A@?0A@A@?$basic_istream@GU?$char_traits@G@std@@@std@@8 10047018     libcpmt:wiostrea.obj
 0002:00001030       ??_R2?$basic_istream@GU?$char_traits@G@std@@@std@@8 10047030     libcpmt:wiostrea.obj
 0002:00001040       ??_R3?$basic_istream@GU?$char_traits@G@std@@@std@@8 10047040     libcpmt:wiostrea.obj
 0002:00001050       ??_R4?$basic_istream@GU?$char_traits@G@std@@@std@@6B@ 10047050     libcpmt:wiostrea.obj
 0002:00001068       ??_R1A@?0A@A@?$basic_ostream@GU?$char_traits@G@std@@@std@@8 10047068     libcpmt:wiostrea.obj
 0002:00001080       ??_R2?$basic_ostream@GU?$char_traits@G@std@@@std@@8 10047080     libcpmt:wiostrea.obj
 0002:00001090       ??_R3?$basic_ostream@GU?$char_traits@G@std@@@std@@8 10047090     libcpmt:wiostrea.obj
 0002:000010a0       ??_R4?$basic_ostream@GU?$char_traits@G@std@@@std@@6B@ 100470a0     libcpmt:wiostrea.obj
 0002:000010b8       ??_R1A@?0A@A@?$basic_ios@GU?$char_traits@G@std@@@std@@8 100470b8     libcpmt:wiostrea.obj
 0002:000010d0       ??_R2?$basic_ios@GU?$char_traits@G@std@@@std@@8 100470d0     libcpmt:wiostrea.obj
 0002:000010e0       ??_R3?$basic_ios@GU?$char_traits@G@std@@@std@@8 100470e0     libcpmt:wiostrea.obj
 0002:000010f0       ??_R4?$basic_ios@GU?$char_traits@G@std@@@std@@6B@ 100470f0     libcpmt:wiostrea.obj
 0002:00001108       ??_R1A@?0A@A@?$basic_filebuf@GU?$char_traits@G@std@@@std@@8 10047108     libcpmt:wiostrea.obj
 0002:00001120       ??_R2?$basic_filebuf@GU?$char_traits@G@std@@@std@@8 10047120     libcpmt:wiostrea.obj
 0002:00001130       ??_R3?$basic_filebuf@GU?$char_traits@G@std@@@std@@8 10047130     libcpmt:wiostrea.obj
 0002:00001140       ??_R4?$basic_filebuf@GU?$char_traits@G@std@@@std@@6B@ 10047140     libcpmt:wiostrea.obj
 0002:00001158       ??_R1A@?0A@A@?$basic_streambuf@GU?$char_traits@G@std@@@std@@8 10047158     libcpmt:wiostrea.obj
 0002:00001170       ??_R2?$basic_streambuf@GU?$char_traits@G@std@@@std@@8 10047170     libcpmt:wiostrea.obj
 0002:00001178       ??_R3?$basic_streambuf@GU?$char_traits@G@std@@@std@@8 10047178     libcpmt:wiostrea.obj
 0002:00001188       ??_R4?$basic_streambuf@GU?$char_traits@G@std@@@std@@6B@ 10047188     libcpmt:wiostrea.obj
 0002:000011a0       ??_R1A@?0A@A@runtime_error@std@@8 100471a0     libcpmt:ios.obj
 0002:000011b8       ??_R1A@?0A@A@failure@ios_base@std@@8 100471b8     libcpmt:ios.obj
 0002:000011d0       ??_R2failure@ios_base@std@@8 100471d0     libcpmt:ios.obj
 0002:000011e0       ??_R3failure@ios_base@std@@8 100471e0     libcpmt:ios.obj
 0002:000011f0       ??_R4failure@ios_base@std@@6B@ 100471f0     libcpmt:ios.obj
 0002:00001208       ??_R2runtime_error@std@@8  10047208     libcpmt:ios.obj
 0002:00001218       ??_R3runtime_error@std@@8  10047218     libcpmt:ios.obj
 0002:00001228       ??_R4runtime_error@std@@6B@ 10047228     libcpmt:ios.obj
 0002:0000123c       ??_R2ios_base@std@@8       1004723c     libcpmt:ios.obj
 0002:00001248       ??_R3ios_base@std@@8       10047248     libcpmt:ios.obj
 0002:00001258       ??_R4ios_base@std@@6B@     10047258     libcpmt:ios.obj
 0002:0000126c       ??_R2facet@locale@std@@8   1004726c     libcpmt:locale0.obj
 0002:00001278       ??_R3facet@locale@std@@8   10047278     libcpmt:locale0.obj
 0002:00001288       ??_R4facet@locale@std@@6B@ 10047288     libcpmt:locale0.obj
 0002:000012a0       ??_R1A@?0A@A@facet@locale@std@@8 100472a0     libcpmt:locale0.obj
 0002:000012b8       ??_R1A@?0A@A@_Locimp@locale@std@@8 100472b8     libcpmt:locale0.obj
 0002:000012d0       ??_R2_Locimp@locale@std@@8 100472d0     libcpmt:locale0.obj
 0002:000012e0       ??_R3_Locimp@locale@std@@8 100472e0     libcpmt:locale0.obj
 0002:000012f0       ??_R4_Locimp@locale@std@@6B@ 100472f0     libcpmt:locale0.obj
 0002:00001304       ??_R2exception@@8          10047304     LIBCMT:stdexcpt.obj
 0002:00001310       ??_R3exception@@8          10047310     LIBCMT:stdexcpt.obj
 0002:00001320       ??_R4exception@@6B@        10047320     LIBCMT:stdexcpt.obj
 0002:00001338       ??_R1A@?0A@A@type_info@@8  10047338     LIBCMT:typinfo.obj
 0002:00001350       ??_R2type_info@@8          10047350     LIBCMT:typinfo.obj
 0002:00001358       ??_R3type_info@@8          10047358     LIBCMT:typinfo.obj
 0002:00001368       ??_R4type_info@@6B@        10047368     LIBCMT:typinfo.obj
 0002:00001498       __CT??_R0?AVexception@@@8??0exception@@QAE@ABV0@@Z12 10047498     libcpmt:string.obj
 0002:000014b8       __CT??_R0?AVlogic_error@std@@@8??0logic_error@std@@QAE@ABV01@@Z28 100474b8     libcpmt:string.obj
 0002:000014d8       __CT??_R0?AVlength_error@std@@@8??0length_error@std@@QAE@ABV01@@Z28 100474d8     libcpmt:string.obj
 0002:000014f8       __CTA3?AVlength_error@std@@ 100474f8     libcpmt:string.obj
 0002:00001508       __TI3?AVlength_error@std@@ 10047508     libcpmt:string.obj
 0002:00001568       __CTA2?AVlogic_error@std@@ 10047568     libcpmt:string.obj
 0002:00001578       __TI2?AVlogic_error@std@@  10047578     libcpmt:string.obj
 0002:00001600       __CT??_R0?AVout_of_range@std@@@8??0out_of_range@std@@QAE@ABV01@@Z28 10047600     libcpmt:string.obj
 0002:00001620       __CTA3?AVout_of_range@std@@ 10047620     libcpmt:string.obj
 0002:00001630       __TI3?AVout_of_range@std@@ 10047630     libcpmt:string.obj
 0002:00001950       __CT??_R0?AVruntime_error@std@@@8??0runtime_error@std@@QAE@ABV01@@Z28 10047950     libcpmt:ios.obj
 0002:00001970       __CT??_R0?AVfailure@ios_base@std@@@8??0failure@ios_base@std@@QAE@ABV012@@Z28 10047970     libcpmt:ios.obj
 0002:00001990       __CTA3?AVfailure@ios_base@std@@ 10047990     libcpmt:ios.obj
 0002:000019a0       __TI3?AVfailure@ios_base@std@@ 100479a0     libcpmt:ios.obj
 0002:00001a00       __CTA2?AVruntime_error@std@@ 10047a00     libcpmt:ios.obj
 0002:00001a10       __TI2?AVruntime_error@std@@ 10047a10     libcpmt:ios.obj
 0002:00001b78       __IMPORT_DESCRIPTOR_KERNEL32 10047b78     kernel32:KERNEL32.dll
 0002:00001b8c       __IMPORT_DESCRIPTOR_WSOCK32 10047b8c     wsock32:WSOCK32.dll
 0002:00001ba0       __NULL_IMPORT_DESCRIPTOR   10047ba0     kernel32:KERNEL32.dll
 0003:00000000       ___xc_a                    1004b000     LIBCMT:crt0init.obj
 0003:00000078       ___xc_z                    1004b078     LIBCMT:crt0init.obj
 0003:0000007c       ___xi_a                    1004b07c     LIBCMT:crt0init.obj
 0003:00000090       ___xi_z                    1004b090     LIBCMT:crt0init.obj
 0003:00000094       ___xp_a                    1004b094     LIBCMT:crt0init.obj
 0003:0000009c       ___xp_z                    1004b09c     LIBCMT:crt0init.obj
 0003:000000a0       ___xt_a                    1004b0a0     LIBCMT:crt0init.obj
 0003:000000a8       ___xt_z                    1004b0a8     LIBCMT:crt0init.obj
 0003:000000b0       ??_C@_0CH@HDMB@Start3rdPerson?$CI?$CJ?3?5Setting?5users?5@ 1004b0b0     3rdperson.obj
 0003:000000d8       ??_C@_0L@JLDF@sdebug?4log?$AA@ 1004b0d8     3rdperson.obj
 0003:000000e4       ??_C@_01FNLH@a?$AA@        1004b0e4     3rdperson.obj
 0003:000000e8       ??_C@_0BA@POJJ@models?1nail?4mdl?$AA@ 1004b0e8     3rdperson.obj
 0003:000000f8       ??_C@_0M@CIEN@info_target?$AA@ 1004b0f8     3rdperson.obj
 0003:00000104       ??_C@_0BE@BMMI@ao_3rdperson_camera?$AA@ 1004b104     3rdperson.obj
 0003:00000118       ??_C@_0CE@NGIF@Camerathink?$CI?$CJ?3?5Setting?5users?5vie@ 1004b118     3rdperson.obj
 0003:0000013c       ??_C@_0CH@ECLI@End3rdPerson?$CI?$CJ?3?5Resetting?5users?5@ 1004b13c     3rdperson.obj
 0003:00000164       ??_C@_09MOMN@CurWeapon?$AA@ 1004b164     ablaster.obj
 0003:00000170       ??_C@_0P@BAAH@tf_weapon_axe?6?$AA@ 1004b170     ablaster.obj
 0003:00000180       ??_C@_0CB@POEG@models?1autoop?1p_tfc_ablaster?4mdl@ 1004b180     ablaster.obj
 0003:000001a4       ??_C@_0P@EPJE@ao_blasterkill?$AA@ 1004b1a4     ablaster.obj
 0003:000001b4       ??_C@_0O@GBKF@tf_gl_grenade?$AA@ 1004b1b4     ablaster.obj
 0003:000001c4       ??_C@_06MNOE@player?$AA@   1004b1c4     ablaster.obj
 0003:000001cc       ??_C@_0BD@LMIF@weapons?1gauss2?4wav?$AA@ 1004b1cc     ablaster.obj
 0003:000001e0       ??_C@_0BM@OPFK@ABlaster?$CI?$CJ?3?5Blaster?5Fired?4?6?$AA@ 1004b1e0     ablaster.obj
 0003:000001fc       ??_C@_0BP@GPME@Not?5enough?5armor?5to?5fire?5gun?4?6?$AA@ 1004b1fc     ablaster.obj
 0003:00000220       ?CommandLib@@3PAUAdminCommand_s@@A 1004b220     admincommands.obj
 0003:00005500       ?TotalCommands@@3HA        10050500     admincommands.obj
 0003:00005504       ??_C@_0DF@NNIN@TFXAdminCommand?$CI?$CJ?3?5Player?5?$CFd?5exe@ 10050504     admincommands.obj
 0003:0000553c       ??_C@_0CJ@NJJH@Lockdown?5in?5progress?3?5Command?5di@ 1005053c     admincommands.obj
 0003:00005568       ??_C@_0M@EKGI@Format?3?5?$CFs?6?$AA@ 10050568     admincommands.obj
 0003:00005574       ??_C@_0L@CJEK@?6?$CC?$CFs?$CC?3?5?$CFs?6?$AA@ 10050574     admincommands.obj
 0003:00005580       ??_C@_0EB@KNML@You?5do?5not?5have?5the?5access?5to?5us@ 10050580     admincommands.obj
 0003:000055c4       ??_C@_0BL@HIIJ@Unrecognised?5AOC?5command?4?6?$AA@ 100505c4     admincommands.obj
 0003:000055e0       ??_C@_07OEOL@?$CFs?3?5?$CFs?6?$AA@ 100505e0     admincommands.obj
 0003:000055e8       ??_C@_0BH@MDNI@?6COMMAND?5LIST?3?6?$CFs?3?5?$CFs?6?$AA@ 100505e8     admincommands.obj
 0003:00005600       ??_C@_0CN@HEAL@You?5do?5not?5have?5access?5to?5use?5th@ 10050600     admincommands.obj
 0003:00005630       ??_C@_0FD@EAMK@?$FLAUTOOP?$FN?5Error?5in?5shodan?4ini?5?9?5i@ 10050630     admincommands.obj
 0003:00005684       ??_C@_0P@DCKB@Command?5Levels?$AA@ 10050684     admincommands.obj
 0003:00005694       ??_C@_0DP@IBFP@?$FLAUTOOP?$FN?5shodan?4ini?5not?5found?5?9?5@ 10050694     admincommands.obj
 0003:000056d4       ??_C@_0BG@PKIM@tfc?2autoop?2shodan?4ini?$AA@ 100506d4     admincommands.obj
 0003:000056ec       ??_C@_02JKAF@rb?$AA@       100506ec     admincommands.obj
 0003:000056f0       ??_C@_0CL@KIJF@?$CFs?5positioned?5his?5teams?5airstrik@ 100506f0     airstrike.obj
 0003:0000571c       ??_C@_0BJ@LPJA@models?1autoop?1marker?4mdl?$AA@ 1005071c     airstrike.obj
 0003:00005738       ??_C@_0BC@BOG@buttons?1blip2?4wav?$AA@ 10050738     airstrike.obj
 0003:0000574c       ??_C@_0BE@LGIB@ao_airstrike_marker?$AA@ 1005074c     airstrike.obj
 0003:00005760       ??_C@_0CI@PPMF@You?5must?5plant?5a?5marker?5under?5th@ 10050760     airstrike.obj
 0003:00005788       ??_C@_0L@LME@worldspawn?$AA@ 10050788     airstrike.obj
 0003:00005794       ??_C@_09HMCI@func_door?$AA@ 10050794     airstrike.obj
 0003:000057a0       ??_C@_09DHI@func_wall?$AA@ 100507a0     airstrike.obj
 0003:000057ac       ??_C@_0CL@NFKP@Someone?5is?5already?5calling?5the?5a@ 100507ac     airstrike.obj
 0003:000057d8       ??_C@_0CK@DLFM@You?5cannot?5place?5a?5marker?5at?5the@ 100507d8     airstrike.obj
 0003:00005804       ??_C@_0BD@MEAC@ao_airstrike_start?$AA@ 10050804     airstrike.obj
 0003:00005818       ??_C@_0CG@KDFB@You?5started?5to?5launch?5the?5airstr@ 10050818     airstrike.obj
 0003:00005840       ??_C@_0BM@OAIN@models?1autoop?1airstrike?4mdl?$AA@ 10050840     airstrike.obj
 0003:0000585c       ??_C@_0BO@IAHI@You?5cannot?5launch?5from?5here?4?6?$AA@ 1005085c     airstrike.obj
 0003:0000587c       ??_C@_0N@KJCL@func_nobuild?$AA@ 1005087c     airstrike.obj
 0003:0000588c       ??_C@_0BH@CLCO@AirStrike?5launched?4?4?4?6?$AA@ 1005088c     airstrike.obj
 0003:000058a4       ??_C@_0BL@JMOL@10?5Seconds?5till?5strike?4?4?4?6?$AA@ 100508a4     airstrike.obj
 0003:000058c0       ??_C@_0BL@FLAI@20?5Seconds?5till?5strike?4?4?4?6?$AA@ 100508c0     airstrike.obj
 0003:000058dc       ??_C@_0BL@OGFG@30?5Seconds?5till?5strike?4?4?4?6?$AA@ 100508dc     airstrike.obj
 0003:000058f8       ??_C@_0CG@BJHH@You?5cancelled?5the?5Air?9Strike?5lau@ 100508f8     airstrike.obj
 0003:00005920       ??_C@_0BD@LNF@weapons?1mortar?4wav?$AA@ 10050920     airstrike.obj
 0003:00005934       ??_C@_0BF@JPLJ@ao_airstrike_counter?$AA@ 10050934     airstrike.obj
 0003:0000594c       ??_C@_0BA@NMKK@models?1pent?4mdl?$AA@ 1005094c     airstrike.obj
 0003:0000595c       ??_C@_0BE@DEFL@weapon_ao_airstrike?$AA@ 1005095c     airstrike.obj
 0003:00005970       ??_C@_0BE@GFBO@sprites?1lgtning?4spr?$AA@ 10050970     airstrike.obj
 0003:00005984       ??_C@_0N@GNID@ao_gargantua?$AA@ 10050984     aogarg.obj
 0003:00005994       ??_C@_0BA@FPGF@models?1garg?4mdl?$AA@ 10050994     aogarg.obj
 0003:000059a4       ??_C@_0BD@JEJD@garg?1gar_pain3?4wav?$AA@ 100509a4     aogarg.obj
 0003:000059b8       ??_C@_0L@FKCE@env_sprite?$AA@ 100509b8     aogarg.obj
 0003:000059c4       ??_C@_0BC@HELP@monster_gargantua?$AA@ 100509c4     aogarg.obj
 0003:000059d8       ??_C@_0BE@OBKI@garg?1gar_stomp1?4wav?$AA@ 100509d8     aogarg.obj
 0003:000059ec       ??_C@_09BHLI@ao_hgrunt?$AA@ 100509ec     aohgrunt.obj
 0003:000059f8       ??_C@_0BC@KNIA@models?1hgrunt?4mdl?$AA@ 100509f8     aohgrunt.obj
 0003:00005a0c       ??_C@_0BE@KABE@hgrunt?1gr_pain2?4wav?$AA@ 10050a0c     aohgrunt.obj
 0003:00005a20       ??_C@_0BE@EAHL@hgrunt?1gr_pain1?4wav?$AA@ 10050a20     aohgrunt.obj
 0003:00005a34       ??_C@_0BE@MAOO@hgrunt?1gr_pain5?4wav?$AA@ 10050a34     aohgrunt.obj
 0003:00005a48       ??_C@_0BE@GAML@hgrunt?1gr_pain4?4wav?$AA@ 10050a48     aohgrunt.obj
 0003:00005a5c       ??_C@_0BE@DB@hgrunt?1gr_pain3?4wav?$AA@ 10050a5c     aohgrunt.obj
 0003:00005a70       ??_C@_0BD@BMMK@hgrunt?1gr_die1?4wav?$AA@ 10050a70     aohgrunt.obj
 0003:00005a84       ??_C@_0P@KJJK@monster_hgrunt?$AA@ 10050a84     aohgrunt.obj
 0003:00005a94       ??_C@_0BE@MKPJ@hgrunt?1gr_mgun2?4wav?$AA@ 10050a94     aohgrunt.obj
 0003:00005aa8       ??_C@_0BE@CKJG@hgrunt?1gr_mgun1?4wav?$AA@ 10050aa8     aohgrunt.obj
 0003:00005abc       ??_C@_01BJG@?6?$AA@        10050abc     basiccommands.obj
 0003:00005ac0       ??_C@_0P@OCOE@shodan_ban?4log?$AA@ 10050ac0     basiccommands.obj
 0003:00005ad0       ??_C@_03MJMD@ALL?$AA@      10050ad0     basiccommands.obj
 0003:00005ad4       ??_C@_03BEDA@Ban?$AA@      10050ad4     basiccommands.obj
 0003:00005ad8       ??_C@_0EL@JHMA@?$CI?$CFd?9?$CFd?9?$CFd?5?$CF02d?3?$CF02d?3?$CF02d?$CJ?5?$CFs?$CI?$CFs?$CJ@ 10050ad8     basiccommands.obj
 0003:00005b24       ??_C@_0M@PFMJ@disconnect?6?$AA@ 10050b24     basiccommands.obj
 0003:00005b30       ??_C@_08LDKC@writeid?6?$AA@ 10050b30     basiccommands.obj
 0003:00005b3c       ??_C@_0BM@GOIK@?$FLAUTOOP?$FN?5Ban?3?5?$CFs?5banned?5?$CFs?6?$AA@ 10050b3c     basiccommands.obj
 0003:00005b58       ??_C@_0N@KDKD@banid?5?$CFi?5?$CFs?6?$AA@ 10050b58     basiccommands.obj
 0003:00005b68       ??_C@_0N@NEFM@banid?5?$CFi?5?$CFu?6?$AA@ 10050b68     basiccommands.obj
 0003:00005b78       ??_C@_0CA@LPI@?$CK?$CK?$CK?$CK?$CK?$CK?$CK?$CK?$CK?$CK?$CK?$CK?$CK?$CK?$CK?$CK?$CK?$CK?$CK?$CK?$CK?$CK?$CK?$CK?$CK?$CK?$CK?$CK?$CK?$CK?6?$AA@ 10050b78     basiccommands.obj
 0003:00005b98       ??_C@_0DO@FPNG@Make?5sure?5you?5quote?5the?5admin?5an@ 10050b98     basiccommands.obj
 0003:00005bd8       ??_C@_0EF@KCJ@?6Contact?5rob?$EAplanetfortress?4com?5@ 10050bd8     basiccommands.obj
 0003:00005c20       ??_C@_0BJ@CGEI@By?5Admin?5?$CFs?0?5Reason?3?5?$CFs?6?$AA@ 10050c20     basiccommands.obj
 0003:00005c3c       ??_C@_0CE@NOHH@You?5have?5been?5banned?5indefinatel@ 10050c3c     basiccommands.obj
 0003:00005c60       ??_C@_0CG@ELEA@You?5have?5been?5banned?5for?5?$CFd?5minu@ 10050c60     basiccommands.obj
 0003:00005c88       ??_C@_0CD@IIFH@?6?6?6?$CK?$CK?$CK?$CK?$CK?$CK?$CK?$CK?$CK?$CK?$CK?$CK?$CK?$CK?$CK?$CK?$CK?$CK?$CK?$CK?$CK?$CK?$CK?$CK?$CK?$CK?$CK?$CK?$CK@ 10050c88     basiccommands.obj
 0003:00005cac       ??_C@_0BK@FAAF@Please?5specify?5a?5reason?4?6?$AA@ 10050cac     basiccommands.obj
 0003:00005cc8       ??_C@_0BA@GOFL@shodan_kick?4log?$AA@ 10050cc8     basiccommands.obj
 0003:00005cd8       ??_C@_04MBG@Kick?$AA@      10050cd8     basiccommands.obj
 0003:00005ce0       ??_C@_0DL@DDIJ@?$CI?$CFd?9?$CFd?9?$CFd?5?$CF02d?3?$CF02d?3?$CF02d?$CJ?5?$CFs?$CI?$CFs?$CJ@ 10050ce0     basiccommands.obj
 0003:00005d1c       ??_C@_0CC@NIIA@?$FLAUTOOP?$FN?5Kick?3?5?$CFs?5kicked?5?$CFs?5?$CI?$CFs?$CJ@ 10050d1c     basiccommands.obj
 0003:00005d40       ??_C@_0BL@GBJO@?$CK?$CK?$CK?$CK?$CK?$CK?$CK?$CK?$CK?$CK?$CK?$CK?$CK?$CK?$CK?$CK?$CK?$CK?$CK?$CK?$CK?$CK?$CK?$CK?$CK?6?$AA@ 10050d40     basiccommands.obj
 0003:00005d5c       ??_C@_0M@HHIO@Reason?3?5?$CFs?6?$AA@ 10050d5c     basiccommands.obj
 0003:00005d68       ??_C@_0BH@KFLO@You?5were?5kicked?5by?5?$CFs?6?$AA@ 10050d68     basiccommands.obj
 0003:00005d80       ??_C@_0BO@GJFG@?6?6?6?$CK?$CK?$CK?$CK?$CK?$CK?$CK?$CK?$CK?$CK?$CK?$CK?$CK?$CK?$CK?$CK?$CK?$CK?$CK?$CK?$CK?$CK?$CK?$CK?$CK?6?$AA@ 10050d80     basiccommands.obj
 0003:00005da0       ??_C@_03HHKO@?$CFs?6?$AA@  10050da0     basiccommands.obj
 0003:00005da4       ??_C@_0BA@NMLN@mp_teamplay?5?$CFs?6?$AA@ 10050da4     basiccommands.obj
 0003:00005db4       ??_C@_0BB@EIJM@tfc_spectchat?50?6?$AA@ 10050db4     basiccommands.obj
 0003:00005dc8       ??_C@_0BB@FODG@tfc_spectchat?51?6?$AA@ 10050dc8     basiccommands.obj
 0003:00005ddc       ??_C@_0P@JBOM@sv_gravity?5?$CFs?6?$AA@ 10050ddc     basiccommands.obj
 0003:00005dec       ??_C@_0BH@MGDK@?$FLAUTOOP?$FN?5god_msg?5?$CC?$CFs?$CC?6?$AA@ 10050dec     basiccommands.obj
 0003:00005e04       ??_C@_0BC@NMCD@Player?5ungagged?4?6?$AA@ 10050e04     basiccommands.obj
 0003:00005e18       ??_C@_0BA@BCCI@Player?5gagged?4?6?$AA@ 10050e18     basiccommands.obj
 0003:00005e28       ??_C@_0BP@HCNI@?$FLAUTOOP?$FN?5?$CFs?5changed?5map?5to?5?$CFs?6?$AA@ 10050e28     basiccommands.obj
 0003:00005e48       ??_C@_0BJ@PDFB@This?5map?5does?5not?5exist?6?$AA@ 10050e48     basiccommands.obj
 0003:00005e64       ??_C@_0M@IHID@mp_timeleft?$AA@ 10050e64     basiccommands.obj
 0003:00005e70       ??_C@_0N@EFDK@messagemode?6?$AA@ 10050e70     basiccommands.obj
 0003:00005e80       ??_C@_0BB@PGAH@?$CISECURE?$CJ?5?$CFs?3?5?$CFs?6?$AA@ 10050e80     basiccommands.obj
 0003:00005e94       ??_C@_0BO@GDNA@?$FLAUTOOP?$FN?5secure_chat?5?$CFs?3?5?$CFs?5?6?$AA@ 10050e94     basiccommands.obj
 0003:00005eb4       ??_C@_0DK@DAHB@?$FLAUTOOP?$FN?5?$CFs?5forced?5the?5server?5to@ 10050eb4     basiccommands.obj
 0003:00005ef0       ??_C@_0BP@LPHM@?$FLAUTOOP?$FN?5?$CFs?5printed?5to?5?$CFs?3?5?$CFs?6?$AA@ 10050ef0     basiccommands.obj
 0003:00005f10       ??_C@_05LDE@timer?$AA@     10050f10     basiccommands.obj
 0003:00005f18       ??_C@_0CH@PFMC@?$FLAUTOOP?$FN?5?$CFs?5added?5?$CFd?5to?5?$CFs?8s?5cre@ 10050f18     basiccommands.obj
 0003:00005f40       ??_C@_0BP@OGLM@An?5admin?5changed?5your?5credits?6?$AA@ 10050f40     basiccommands.obj
 0003:00005f60       ??_C@_0CD@PINP@Player?5specified?5cannot?5be?5found@ 10050f60     basiccommands.obj
 0003:00005f84       ??_C@_0BF@IMLJ@?$CFs?5as?5?$CFs?5?$CILevel?5?$CFd?$CJ?6?$AA@ 10050f84     basiccommands.obj
 0003:00005f9c       ??_C@_0BP@MDFD@?$CFs?5as?5?$CFs?5?$CILevel?5?$CFd?$CJ?5?$CIStealth?$CJ?6?$AA@ 10050f9c     basiccommands.obj
 0003:00005fbc       ??_C@_0CF@EPLP@?$FLAUTOOP?$FN?5Admin?5?$CFs?5extended?5the?5m@ 10050fbc     basiccommands.obj
 0003:00005fe4       ??_C@_0BB@BHAM@mp_timelimit?5?$CFd?6?$AA@ 10050fe4     basiccommands.obj
 0003:00005ff8       ??_C@_0N@JECA@mp_timelimit?$AA@ 10050ff8     basiccommands.obj
 0003:00006008       ??_C@_0BN@IONB@Admin?5?$CFs?5extended?5the?5time?4?6?$AA@ 10051008     basiccommands.obj
 0003:00006028       ??_C@_0O@HBMI@Message?5from?5?$AA@ 10051028     basiccommands.obj
 0003:00006038       ??_C@_0BI@BPP@You?5cannot?5build?5here?4?6?$AA@ 10051038     biggun.obj
 0003:00006050       ??_C@_0BG@PHJN@?$FLAUTOOP?$FN?5?$CFs?5built?5?$CFs?6?$AA@ 10051050     biggun.obj
 0003:00006068       ??_C@_0BF@DNIJ@weapon_ao_guncontrol?$AA@ 10051068     biggun.obj
 0003:00006080       ??_C@_0BC@HGML@models?1sentry?4mdl?$AA@ 10051080     biggun.obj
 0003:00006094       ??_C@_0BF@JBBL@weapons?1building?4wav?$AA@ 10051094     biggun.obj
 0003:000060ac       ??_C@_0BN@JHBA@Please?5wait?5before?5building?6?$AA@ 100510ac     biggun.obj
 0003:000060cc       ??_C@_0CA@HKLG@Not?5enough?5metal?5to?5build?5gun?4?6?$AA@ 100510cc     biggun.obj
 0003:000060ec       ??_C@_0BN@DMBL@You?5cant?5build?5another?5gun?4?6?$AA@ 100510ec     biggun.obj
 0003:0000610c       ??_C@_0BO@GFDE@You?5lost?5control?5of?5the?5gun?4?6?$AA@ 1005110c     biggun.obj
 0003:0000612c       ??_C@_0O@FILI@func_platform?$AA@ 1005112c     biggun.obj
 0003:0000613c       ??_C@_0CN@ICPI@?$FLAUTOOP?$FN?5?$CFs?5took?5control?5of?5a?5ma@ 1005113c     biggun.obj
 0003:0000616c       ??_C@_0CG@BOIP@You?5took?5control?5of?5a?5manual?5sen@ 1005116c     biggun.obj
 0003:00006198       ??_C@_0ED@GKIO@You?5must?5select?5your?5melee?5weapo@ 10051198     biggun.obj
 0003:000061e0       ??_C@_0ED@NLM@You?5must?5select?5your?5melee?5weapo@ 100511e0     biggun.obj
 0003:00006224       ??_C@_0CN@NIK@You?5cannot?5use?5more?5than?5one?5gun@ 10051224     biggun.obj
 0003:00006254       ??_C@_0BK@CKNC@You?5cannot?5use?5this?5gun?4?6?$AA@ 10051254     biggun.obj
 0003:00006270       ??_C@_0CA@FPHK@models?1autoop?1v_tfc_dualbar?4mdl?$AA@ 10051270     biggun.obj
 0003:00006290       ??_C@_0BJ@ELGL@models?1v_tfc_spanner?4mdl?$AA@ 10051290     biggun.obj
 0003:000062ac       ??_C@_0BI@GOGN@models?1v_tfc_medkit?4mdl?$AA@ 100512ac     biggun.obj
 0003:000062c4       ??_C@_0BH@FHCJ@models?1v_tfc_knife?4mdl?$AA@ 100512c4     biggun.obj
 0003:000062dc       ??_C@_0BJ@HACK@models?1v_tfc_crowbar?4mdl?$AA@ 100512dc     biggun.obj
 0003:000062f8       ??_C@_0BG@LCAM@weapon_ao_gundetonate?$AA@ 100512f8     biggun.obj
 0003:00006310       ??_C@_0CD@FFJD@Your?5manual?5sentry?5was?5destroyed@ 10051310     biggun.obj
 0003:00006334       ??_C@_0M@FHME@ao_gunshoot?$AA@ 10051334     biggun.obj
 0003:00006340       ??_C@_0FF@IIFJ@Select?5an?5option?3?6?61?4?5Rotate?5Sen@ 10051340     buying.obj
 0003:00006398       ??_C@_0FL@GOKD@Select?5an?5item?5type?5to?5buy?3?6?61?4?5@ 10051398     buying.obj
 0003:000063f4       ??_C@_0DD@FMFK@Please?5wait?5a?5few?5seconds?5before@ 100513f4     buying.obj
 0003:00006428       ??_C@_0BG@BMGH@Cant?5buy?5while?5dead?$CB?6?$AA@ 10051428     buying.obj
 0003:00006440       ??_C@_0CB@OIDI@You?5have?5already?5got?5this?5item?$CB?6@ 10051440     buying.obj
 0003:00006464       ??_C@_0BP@OGG@Item?5purchase?5not?5successful?4?6?$AA@ 10051464     buying.obj
 0003:00006484       ??_C@_0BG@MFBM@sprites?1laserbeam?4spr?$AA@ 10051484     buying.obj
 0003:000064a0       ??_C@_0ED@EEDM@You?5need?5to?5build?5a?5manual?5turre@ 100514a0     buying.obj
 0003:000064e4       ??_C@_0DM@BKOC@You?5need?5to?5build?5a?5sensor?5befor@ 100514e4     buying.obj
 0003:00006520       ??_C@_0DP@KOJM@You?5need?5to?5build?5a?5dispenser?5be@ 10051520     buying.obj
 0003:00006560       ??_C@_0DJ@JANO@You?5need?5to?5build?5an?5SG?5before?5y@ 10051560     buying.obj
 0003:0000659c       ??_C@_0BH@LAIB@speak?5?$CChgrunt?1clear?$CB?$CC?6?$AA@ 1005159c     buying.obj
 0003:000065b4       ??_C@_0BE@HONM@?$CIRADIO?$CJ?5?$CFs?3?5Clear?$CB?6?$AA@ 100515b4     buying.obj
 0003:000065c8       ??_C@_0CL@OLGG@speak?5?$CChgrunt?1guard?$CB?5the?$CB?5comman@ 100515c8     buying.obj
 0003:000065f4       ??_C@_0CF@CKEN@?$CIRADIO?$CJ?5?$CFs?3?5Guard?5the?5command?5po@ 100515f4     buying.obj
 0003:0000661c       ??_C@_0CH@JIND@speak?5?$CChgrunt?1hostiles?$CB?5neutrali@ 1005161c     buying.obj
 0003:00006644       ??_C@_0CD@OIOF@?$CIRADIO?$CJ?5?$CFs?3?5Hostiles?5neutralized@ 10051644     buying.obj
 0003:00006668       ??_C@_08DAJC@?60?4?5Exit?$AA@ 10051668     buying.obj
 0003:00006678       ??_C@_0GO@EPOH@Select?5speech?5to?5say?3?6?61?4?5?8Hosti@ 10051678     buying.obj
 0003:000066e8       ??_C@_0BJ@HGA@speak?5?$CChgrunt?1negative?$CC?6?$AA@ 100516e8     buying.obj
 0003:00006704       ??_C@_0BH@HOHB@?$CIRADIO?$CJ?5?$CFs?3?5Negative?4?6?$AA@ 10051704     buying.obj
 0003:0000671c       ??_C@_0BO@GBOM@speak?5?$CChgrunt?1move?$CB?5people?$CB?$CC?6?$AA@ 1005171c     buying.obj
 0003:0000673c       ??_C@_0BM@KNFL@?$CIRADIO?$CJ?5?$CFs?3?5Move?0?5people?$CB?4?6?$AA@ 1005173c     buying.obj
 0003:00006758       ??_C@_0BK@DAMC@speak?5?$CCdefense?5required?$CC?6?$AA@ 10051758     buying.obj
 0003:00006774       ??_C@_0BP@HLGL@?$CIRADIO?$CJ?5?$CFs?3?5Defense?5required?4?6?$AA@ 10051774     buying.obj
 0003:00006794       ??_C@_0BJ@LCOJ@speak?5?$CCi?5have?5the?5flag?$CC?6?$AA@ 10051794     buying.obj
 0003:000067b0       ??_C@_0BO@KMA@?$CIRADIO?$CJ?5?$CFs?3?5I?5have?5the?5flag?4?6?$AA@ 100517b0     buying.obj
 0003:000067d0       ??_C@_0BM@INKK@speak?5?$CChgrunt?1affirmative?$CC?6?$AA@ 100517d0     buying.obj
 0003:000067ec       ??_C@_0BK@HEHI@?$CIRADIO?$CJ?5?$CFs?3?5Affirmative?4?6?$AA@ 100517ec     buying.obj
 0003:00006808       ??_C@_0CG@HCED@speak?5?$CChgrunt?1cover?$CB?5my?$CB?5ass?$CB?5te@ 10051808     buying.obj
 0003:00006830       ??_C@_0CB@ONOG@?$CIRADIO?$CJ?5?$CFs?3?5Cover?5my?5ass?0?5team?$CB?6@ 10051830     buying.obj
 0003:00006854       ??_C@_0O@IJKC@speak?5?$CCwoop?$CC?6?$AA@ 10051854     buying.obj
 0003:00006864       ??_C@_0BD@CENE@?$CIRADIO?$CJ?5?$CFs?3?5w00t?4?6?$AA@ 10051864     buying.obj
 0003:00006878       ??_C@_0BN@EGOF@speak?5?$CCthe?5enemy?5are?5idiot?$CC?6?$AA@ 10051878     buying.obj
 0003:00006898       ??_C@_0CD@EONM@?$CIRADIO?$CJ?5?$CFs?3?5The?5enemy?5are?5idiots@ 10051898     buying.obj
 0003:000068bc       ??_C@_0DH@KKDK@You?5do?5not?5have?5enough?5credits?5t@ 100518bc     buying.obj
 0003:000068f4       ??_C@_0BC@LJLN@tf_weapon_superng?$AA@ 100518f4     buying.obj
 0003:00006908       ??_C@_0BH@FPBB@tf_weapon_supershotgun?$AA@ 10051908     buying.obj
 0003:00006920       ??_C@_0BG@HMHM@tf_weapon_sniperrifle?$AA@ 10051920     buying.obj
 0003:00006938       ??_C@_0N@HLKH@tf_weapon_ac?$AA@ 10051938     buying.obj
 0003:00006948       ??_C@_0O@KGLJ@tf_weapon_rpg?$AA@ 10051948     buying.obj
 0003:00006958       ??_C@_0FF@MNOH@Select?5a?5powerup?5to?5buy?3?6?61?4?5Col@ 10051958     buying.obj
 0003:000069b0       ??_C@_0BM@KJEI@speak?5?$CCfvox?1antidote_shot?$CC?6?$AA@ 100519b0     buying.obj
 0003:000069cc       ??_C@_0CJ@BACC@Item?5purchase?5cancelled?5?9?5not?5in@ 100519cc     buying.obj
 0003:000069f8       ??_C@_0BO@KDAA@Medics?5cannot?5buy?5this?5item?4?6?$AA@ 100519f8     buying.obj
 0003:00006a18       ??_C@_05JDLB@kill?6?$AA@   10051a18     buying.obj
 0003:00006a20       ??_C@_0BL@CGOM@Item?5purchase?5successful?4?6?$AA@ 10051a20     buying.obj
 0003:00006a3c       ??_C@_0BO@HDDH@item_artifact_invulnerability?$AA@ 10051a3c     buying.obj
 0003:00006a5c       ??_C@_0BL@MIFG@item_artifact_super_damage?$AA@ 10051a5c     buying.obj
 0003:00006a78       ??_C@_0CI@IMLH@4?4?5Another?5Manual?5Turret?5?$CI$?$CFd?$CJ?6?6@ 10051a78     buying.obj
 0003:00006aa0       ??_C@_0GJ@NMPN@Select?5building?5to?5buy?3?6?61?4?5Anot@ 10051aa0     buying.obj
 0003:00006b0c       ??_C@_0CN@DEFE@8?4?5?8Negative?8?5?$CI$?$CFd?$CJ?6?69?4?5Next?5Pag@ 10051b0c     buying.obj
 0003:00006b40       ??_C@_0GH@EOKL@4?4?5?8Affirmative?8?5?$CI$?$CFd?$CJ?65?4?5?8I?5hav@ 10051b40     buying.obj
 0003:00006ba8       ??_C@_0GI@IMNA@Select?5speech?5to?5say?3?6?61?4?5?8The?5e@ 10051ba8     buying.obj
 0003:00006c10       ??_C@_0CE@LOCK@Cant?5buy?5speech?5as?5you?5are?5gagge@ 10051c10     buying.obj
 0003:00006c34       ??_C@_0BK@BDBI@5?4?5Nailgun?5?$CI$?$CFd?$CJ?6?60?4?5Exit?$AA@ 10051c34     buying.obj
 0003:00006c50       ??_C@_0FO@GJK@Select?5weapon?5to?5buy?3?6?61?4?5RPG?5?$CI$@ 10051c50     buying.obj
 0003:00006cb0       ??_C@_0DP@OOC@5?4?55?5Type?51?5Grenades?5?$CI$?$CFd?$CJ?66?4?55?5@ 10051cb0     buying.obj
 0003:00006cf0       ??_C@_0GP@IJ@Select?5ammunition?5to?5buy?3?6?61?4?510@ 10051cf0     buying.obj
 0003:00006d60       ??_C@_0KB@BGGG@4?4?5Scout?5Speed?5until?5dead?5?$CI$?$CFd?$CJ?6@ 10051d60     buying.obj
 0003:00006e08       ??_C@_0HB@OEDB@Select?5a?5powerup?5to?5buy?3?6?61?4?530?5@ 10051e08     buying.obj
 0003:00006e7c       ??_C@_0BK@JKKI@?$FLAUTOOP?$FN?5?$CFs?5planted?5a?5C4?6?$AA@ 10051e7c     c4.obj
 0003:00006e98       ??_C@_0BI@MGII@player?1pl_fallpain1?4wav?$AA@ 10051e98     c4.obj
 0003:00006eb0       ??_C@_0BH@EN@models?1autoop?1aoc4?4mdl?$AA@ 10051eb0     c4.obj
 0003:00006ec8       ??_C@_0BL@LAMH@You?5cannot?5place?5C4?5here?4?6?$AA@ 10051ec8     c4.obj
 0003:00006ee4       ??_C@_0N@OKKM@weapon_ao_c4?$AA@ 10051ee4     c4.obj
 0003:00006ef4       ??_C@_0BO@OOHA@You?5already?5have?5a?5C4?5active?6?$AA@ 10051ef4     c4.obj
 0003:00006f14       ??_C@_0BP@FLIA@You?5already?5have?5a?5C4?5active?4?6?$AA@ 10051f14     c4.obj
 0003:00006f34       ??_C@_0BG@HOJA@You?5have?5no?5C4?5left?4?6?$AA@ 10051f34     c4.obj
 0003:00006f4c       ??_C@_0DH@ODEF@Valid?5C4?5timer?5values?5are?5betwee@ 10051f4c     c4.obj
 0003:00006f84       ??_C@_0BE@PEEO@Your?5C4?5Detonated?4?6?$AA@ 10051f84     c4.obj
 0003:00006f98       ??_C@_0P@HGP@c4_bombcounter?$AA@ 10051f98     c4.obj
 0003:00006fa8       ??_C@_0BP@PEGA@?$FLAUTOOP?$FN?5A?5C4?5bomb?5detonated?4?6?$AA@ 10051fa8     c4.obj
 0003:00006fc8       ??_C@_08GDLJ@c4_blast?$AA@ 10051fc8     c4.obj
 0003:00006fd4       ??_C@_0CB@EMFG@?$FLAUTOOP?$FN?5?$CFs?5took?5godmode?5off?5?$CFs?6@ 10051fd4     cheatcommands.obj
 0003:00006ff8       ??_C@_0BH@JDIK@God?5Mode?5taken?5off?5?$CFs?6?$AA@ 10051ff8     cheatcommands.obj
 0003:00007010       ??_C@_0CD@HHOB@?$FLAUTOOP?$FN?5?$CFs?5applied?5godmode?5to?5?$CF@ 10052010     cheatcommands.obj
 0003:00007034       ??_C@_0BI@HDHD@God?5Mode?5applied?5to?5?$CFs?6?$AA@ 10052034     cheatcommands.obj
 0003:0000704c       ??_C@_0CA@EBKH@?$FLAUTOOP?$FN?5?$CFs?5took?5noclip?5off?5?$CFs?6?$AA@ 1005204c     cheatcommands.obj
 0003:0000706c       ??_C@_0BF@KMM@Noclip?5taken?5off?5?$CFs?6?$AA@ 1005206c     cheatcommands.obj
 0003:00007084       ??_C@_0CC@KHHA@?$FLAUTOOP?$FN?5?$CFs?5applied?5noclip?5to?5?$CFs@ 10052084     cheatcommands.obj
 0003:000070a8       ??_C@_0BG@LPOK@Noclip?5applied?5to?5?$CFs?6?$AA@ 100520a8     cheatcommands.obj
 0003:000070c0       ??_C@_0CH@BEKD@?$FLAUTOOP?$FN?5?$CFs?5took?5hologram?5mode?5o@ 100520c0     cheatcommands.obj
 0003:000070e8       ??_C@_0BJ@JGNF@?$CFs?5has?5been?5made?5solid?4?6?$AA@ 100520e8     cheatcommands.obj
 0003:00007104       ??_C@_0CJ@JAAI@?$FLAUTOOP?$FN?5?$CFs?5applied?5hologram?5mod@ 10052104     cheatcommands.obj
 0003:00007130       ??_C@_0CD@CBNP@?$CFs?5has?5been?5made?5into?5a?5hologram@ 10052130     cheatcommands.obj
 0003:00007154       ??_C@_0CG@PGH@?$FLAUTOOP?$FN?5?$CFs?5took?5invisibility?5of@ 10052154     cheatcommands.obj
 0003:0000717c       ??_C@_0BL@HALJ@?$CFs?5has?5been?5made?5visible?4?6?$AA@ 1005217c     cheatcommands.obj
 0003:00007198       ??_C@_0CI@LPCL@?$FLAUTOOP?$FN?5?$CFs?5applied?5invisibility@ 10052198     cheatcommands.obj
 0003:000071c0       ??_C@_0BN@PHID@?$CFs?5has?5been?5made?5invisible?4?6?$AA@ 100521c0     cheatcommands.obj
 0003:000071e0       ??_C@_0CA@EDKO@?$FLAUTOOP?$FN?5?$CFs?5gave?5?$CFs?5?$CFd?5health?4?6?$AA@ 100521e0     cheatcommands.obj
 0003:00007200       ??_C@_0BL@OFI@?$CFs?5has?5now?5got?5?$CFd?5health?4?6?$AA@ 10052200     cheatcommands.obj
 0003:0000721c       ??_C@_0CI@HNOH@?$FLAUTOOP?$FN?5?$CFs?5changed?5speed?5of?5?$CFs?5@ 1005221c     cheatcommands.obj
 0003:00007244       ??_C@_0CD@JEID@?$CFs?5had?5their?5speed?5changed?5to?5?$CFd@ 10052244     cheatcommands.obj
 0003:00007268       ??_C@_0CD@BIOD@?$FLAUTOOP?$FN?5?$CFs?5gave?5?$CFs?5all?5the?5guns@ 10052268     cheatcommands.obj
 0003:0000728c       ??_C@_0BP@PHIJ@?$FLAUTOOP?$FN?5?$CFs?5gave?5?$CFs?5?$CFd?5armor?4?6?$AA@ 1005228c     cheatcommands.obj
 0003:000072ac       ??_C@_0BK@BOE@?$CFs?5has?5now?5got?5?$CFd?5armor?4?6?$AA@ 100522ac     cheatcommands.obj
 0003:000072c8       ??_C@_0BP@EPHF@Please?5enter?5valid?5ammo?5type?4?6?$AA@ 100522c8     cheatcommands.obj
 0003:000072e8       ??_C@_0P@NJMN@Ammo?5changed?4?6?$AA@ 100522e8     cheatcommands.obj
 0003:000072f8       ??_C@_05ECJH@gren2?$AA@    100522f8     cheatcommands.obj
 0003:00007300       ??_C@_05LNCO@gren1?$AA@    10052300     cheatcommands.obj
 0003:00007308       ??_C@_05INDM@cells?$AA@    10052308     cheatcommands.obj
 0003:00007310       ??_C@_06FEJG@shells?$AA@   10052310     cheatcommands.obj
 0003:00007318       ??_C@_07DPNP@rockets?$AA@  10052318     cheatcommands.obj
 0003:00007320       ??_C@_05CDKC@nails?$AA@    10052320     cheatcommands.obj
 0003:00007328       ??_C@_0CA@IOAH@Please?5enter?5valid?5build?5type?4?6?$AA@ 10052328     cheatcommands.obj
 0003:00007348       ??_C@_0N@GBCN@Successful?4?6?$AA@ 10052348     cheatcommands.obj
 0003:00007358       ??_C@_09LAGG@dispenser?$AA@ 10052358     cheatcommands.obj
 0003:00007364       ??_C@_09HMFL@sentrygun?$AA@ 10052364     cheatcommands.obj
 0003:00007370       ??_C@_0BH@LBPK@speak?5?$CCaccess?5denied?$CC?6?$AA@ 10052370     commands.obj
 0003:00007388       ??_C@_01FBMM@4?$AA@        10052388     commands.obj
 0003:0000738c       ??_C@_01ECJ@3?$AA@         1005238c     commands.obj
 0003:00007390       ??_C@_01KOLO@2?$AA@        10052390     commands.obj
 0003:00007394       ??_C@_01FBAH@1?$AA@        10052394     commands.obj
 0003:00007398       ??_C@_0CE@PKJA@Too?5many?5players?5on?5selected?5tea@ 10052398     commands.obj
 0003:000073bc       ??_C@_0BM@EMEG@speak?5?$CCteam?5switch?5denied?$CC?6?$AA@ 100523bc     commands.obj
 0003:000073d8       ??_C@_0N@IBLG@3rdpersonoff?$AA@ 100523d8     commands.obj
 0003:000073e8       ??_C@_0M@LAID@3rdpersonon?$AA@ 100523e8     commands.obj
 0003:000073f4       ??_C@_07LDNK@aoclist?$AA@  100523f4     commands.obj
 0003:000073fc       ??_C@_07OKIJ@aochelp?$AA@  100523fc     commands.obj
 0003:00007404       ??_C@_03DGAG@aoc?$AA@      10052404     commands.obj
 0003:00007408       ??_C@_09HDPM@placeflag?$AA@ 10052408     commands.obj
 0003:00007414       ??_C@_0M@LPLK@?9superflame?$AA@ 10052414     commands.obj
 0003:00007420       ??_C@_0M@MAJK@?$CLsuperflame?$AA@ 10052420     commands.obj
 0003:0000742c       ??_C@_0CM@LPND@C4?5is?5set?5on?5a?5timer?0?5cannot?5be?5@ 1005242c     commands.obj
 0003:00007458       ??_C@_0P@LCGG@Detonating?4?4?4?6?$AA@ 10052458     commands.obj
 0003:00007468       ??_C@_05HIDN@detc4?$AA@    10052468     commands.obj
 0003:00007470       ??_C@_07ENBH@placec4?$AA@  10052470     commands.obj
 0003:00007478       ??_C@_08FAIB@dropmine?$AA@ 10052478     commands.obj
 0003:00007484       ??_C@_0BE@LPHH@weapon_ao_fencepost?$AA@ 10052484     commands.obj
 0003:00007498       ??_C@_09DOKB@detsensor?$AA@ 10052498     commands.obj
 0003:000074a4       ??_C@_0M@GEKL@buildsensor?$AA@ 100524a4     commands.obj
 0003:000074b0       ??_C@_07KACH@sgradar?$AA@  100524b0     commands.obj
 0003:000074b8       ??_C@_07DIJA@stealth?$AA@  100524b8     commands.obj
 0003:000074c0       ??_C@_0CN@MHJ@?$FLAOD?$FN?5?$DMmodel?3?5?$CFs?$DO?5?$DMskin?3?5?$CFd?$DO?5?$DMse@ 100524c0     commands.obj
 0003:000074f0       ??_C@_0DF@OALN@?$FLAOD?$FN?5?$DMangles?3?5?$CI?$CFf?0?5?$CFf?0?5?$CFf?$CJ?$DO?5?$DMor@ 100524f0     commands.obj
 0003:00007528       ??_C@_0EJ@KFMG@?$FLAOD?$FN?5?$DMteam?3?5?$CFd?$DO?5?$DMcolormap?3?5?$CFd?$DO?5@ 10052528     commands.obj
 0003:00007574       ??_C@_0CI@NMIB@?$FLAOD?$FN?5?$DMeuser?3?5?$CFd?1?$CFd?1?$CFd?1?$CFd?$DO?5?$DMchai@ 10052574     commands.obj
 0003:0000759c       ??_C@_0DB@ELJM@?$FLAOD?$FN?5?$DMiuser?3?5?$CFd?1?$CFd?1?$CFd?1?$CFd?$DO?5?$DMfuse@ 1005259c     commands.obj
 0003:000075d0       ??_C@_0EK@BJBH@?$FLAOD?$FN?5?$DM?$CFs?5ent?5index?3?5?$CFd?$DO?5?$DMowner?5@ 100525d0     commands.obj
 0003:0000761c       ??_C@_07NECA@entinfo?$AA@  1005261c     commands.obj
 0003:00007624       ??_C@_0BK@NEDA@vecPlaneNormal?$CI?$CFf?0?$CFf?0?$CFf?$CJ?6?$AA@ 10052624     commands.obj
 0003:00007640       ??_C@_09EIEI@traceinfo?$AA@ 10052640     commands.obj
 0003:0000764c       ??_C@_08BPHG@friends?6?$AA@ 1005264c     commands.obj
 0003:00007658       ??_C@_08LCKH@enemies?6?$AA@ 10052658     commands.obj
 0003:00007664       ??_C@_0P@MMN@?$CFd?5and?5?$CFd?5are?5?$AA@ 10052664     commands.obj
 0003:00007674       ??_C@_09PIHM@allyinfo2?$AA@ 10052674     commands.obj
 0003:00007680       ??_C@_06JGDO@Friend?$AA@   10052680     commands.obj
 0003:00007688       ??_C@_05NJLA@Enemy?$AA@    10052688     commands.obj
 0003:00007690       ??_C@_0CH@FNLB@BLUE?3?$CFd?5?5RED?3?$CFd?5?5YELLOW?3?$CFd?5?5GREE@ 10052690     commands.obj
 0003:000076b8       ??_C@_08MCJL@allyinfo?$AA@ 100526b8     commands.obj
 0003:000076c4       ??_C@_0N@MHDG@selectloaded?$AA@ 100526c4     commands.obj
 0003:000076d4       ??_C@_0L@FNCP@deloadents?$AA@ 100526d4     commands.obj
 0003:000076e0       ??_C@_08HKJL@loadents?$AA@ 100526e0     commands.obj
 0003:000076ec       ??_C@_08MAFI@saveents?$AA@ 100526ec     commands.obj
 0003:000076f8       ??_C@_05OLEC@?9pull?$AA@   100526f8     commands.obj
 0003:00007700       ??_C@_05CLJN@?$CLpull?$AA@ 10052700     commands.obj
 0003:00007708       ??_C@_0L@FJFM@renderscan?$AA@ 10052708     commands.obj
 0003:00007714       ??_C@_07KAAO@entscan?$AA@  10052714     commands.obj
 0003:0000771c       ??_C@_0M@BJLK@selectclass?$AA@ 1005271c     commands.obj
 0003:00007728       ??_C@_0L@GFPB@triggerent?$AA@ 10052728     commands.obj
 0003:00007734       ??_C@_04JGIF@chkv?$AA@     10052734     commands.obj
 0003:0000773c       ??_C@_0M@PD@rotatebrush?$AA@ 1005273c     commands.obj
 0003:00007748       ??_C@_06NCLJ@rotate?$AA@   10052748     commands.obj
 0003:00007750       ??_C@_06OHFD@?9lockz?$AA@  10052750     commands.obj
 0003:00007758       ??_C@_06JKJD@?$CLlockz?$AA@ 10052758     commands.obj
 0003:00007760       ??_C@_06BIOK@?9locky?$AA@  10052760     commands.obj
 0003:00007768       ??_C@_06GFCK@?$CLlocky?$AA@ 10052768     commands.obj
 0003:00007770       ??_C@_06LCHN@?9lockx?$AA@  10052770     commands.obj
 0003:00007778       ??_C@_06MPLN@?$CLlockx?$AA@ 10052778     commands.obj
 0003:00007780       ??_C@_0L@FEEA@?9quickmove?$AA@ 10052780     commands.obj
 0003:0000778c       ??_C@_0L@HEMN@?$CLquickmove?$AA@ 1005278c     commands.obj
 0003:00007798       ??_C@_09KDF@delentity?$AA@ 10052798     commands.obj
 0003:000077a4       ??_C@_0M@EGAB@deselectall?$AA@ 100527a4     commands.obj
 0003:000077b0       ??_C@_05PJC@clone?$AA@     100527b0     commands.obj
 0003:000077b8       ??_C@_0L@JIAM@moveentity?$AA@ 100527b8     commands.obj
 0003:000077c4       ??_C@_08CCBO@colorent?$AA@ 100527c4     commands.obj
 0003:000077d0       ??_C@_08LKFM@transent?$AA@ 100527d0     commands.obj
 0003:000077dc       ??_C@_08PEFL@deselect?$AA@ 100527dc     commands.obj
 0003:000077e8       ??_C@_06DJIJ@select?$AA@   100527e8     commands.obj
 0003:000077f0       ??_C@_0L@LDMK@?9suckblood?$AA@ 100527f0     commands.obj
 0003:000077fc       ??_C@_0L@JDEH@?$CLsuckblood?$AA@ 100527fc     commands.obj
 0003:00007808       ??_C@_06OFHC@?$CLgren2?$AA@ 10052808     commands.obj
 0003:00007810       ??_C@_09PDJA@unstealth?$AA@ 10052810     commands.obj
 0003:0000781c       ??_C@_0M@FIKE@placemarker?$AA@ 1005281c     commands.obj
 0003:00007828       ??_C@_0L@LOKO@?9airstrike?$AA@ 10052828     commands.obj
 0003:00007834       ??_C@_0L@JOCD@?$CLairstrike?$AA@ 10052834     commands.obj
 0003:00007840       ??_C@_09BIAD@useturret?$AA@ 10052840     commands.obj
 0003:0000784c       ??_C@_09LAI@detturret?$AA@ 1005284c     commands.obj
 0003:00007858       ??_C@_0M@FBAC@buildturret?$AA@ 10052858     commands.obj
 0003:00007864       ??_C@_0BI@GELI@models?1v_tfc_sniper?4mdl?$AA@ 10052864     commands.obj
 0003:0000787c       ??_C@_05CPME@?$CLhook?$AA@ 1005287c     commands.obj
 0003:00007884       ??_C@_05OPBL@?9hook?$AA@   10052884     commands.obj
 0003:0000788c       ??_C@_04DHFN@icon?$AA@     1005288c     commands.obj
 0003:00007894       ??_C@_0P@HCPD@FlashLight?5ON?6?$AA@ 10052894     commands.obj
 0003:000078a4       ??_C@_0BA@DOAK@FlashLight?5OFF?6?$AA@ 100528a4     commands.obj
 0003:000078b4       ??_C@_0L@IKB@flashlight?$AA@ 100528b4     commands.obj
 0003:000078c0       ??_C@_0M@BAFA@killmessage?$AA@ 100528c0     commands.obj
 0003:000078cc       ??_C@_0BN@FJOD@You?5must?5specify?5a?5message?4?6?$AA@ 100528cc     commands.obj
 0003:000078ec       ??_C@_0M@GGAO@dropmessage?$AA@ 100528ec     commands.obj
 0003:000078f8       ??_C@_09GKOG@flashbang?$AA@ 100528f8     commands.obj
 0003:00007904       ??_C@_06GEJN@revive?$AA@   10052904     commands.obj
 0003:0000790c       ??_C@_0M@GLJM@currentskin?$AA@ 1005290c     commands.obj
 0003:00007918       ??_C@_08PEFL@killskin?$AA@ 10052918     commands.obj
 0003:00007924       ??_C@_09GHHE@applyskin?$AA@ 10052924     commands.obj
 0003:00007930       ??_C@_08KPKI@tripmine?$AA@ 10052930     commands.obj
 0003:0000793c       ??_C@_0BC@PPAL@tf_weapon_blaster?$AA@ 1005293c     commands.obj
 0003:00007950       ??_C@_0BA@GBIK@tf_weapon_tazar?$AA@ 10052950     commands.obj
 0003:00007960       ??_C@_0BE@CELE@tf_weapon_energygun?$AA@ 10052960     commands.obj
 0003:00007974       ??_C@_07NLKH@dropgun?$AA@  10052974     commands.obj
 0003:0000797c       ??_C@_0DI@DHHB@Sending?5and?5recieveing?5of?5privat@ 1005297c     commands.obj
 0003:000079b4       ??_C@_08KMNH@enablepm?$AA@ 100529b4     commands.obj
 0003:000079c0       ??_C@_0DJ@GOMH@Sending?5and?5recieveing?5of?5privat@ 100529c0     commands.obj
 0003:000079fc       ??_C@_09BGAD@disablepm?$AA@ 100529fc     commands.obj
 0003:00007a08       ??_C@_0CC@KGCC@Format?3?5private?5?$DMuser?$DO?5?$DMmessage?$DO@ 10052a08     commands.obj
 0003:00007a30       ??_C@_0EL@KNKL@You?5cannot?5send?5a?5private?5messag@ 10052a30     commands.obj
 0003:00007a7c       ??_C@_0CD@LDGD@You?5must?5enter?5a?5message?5to?5send@ 10052a7c     commands.obj
 0003:00007aa0       ??_C@_07MGEE@private?$AA@  10052aa0     commands.obj
 0003:00007aa8       ??_C@_08CLAP@spectate?$AA@ 10052aa8     commands.obj
 0003:00007ab4       ??_C@_08BBHM@kickvote?$AA@ 10052ab4     commands.obj
 0003:00007ac0       ??_C@_0L@KGNG@sgrotate45?$AA@ 10052ac0     commands.obj
 0003:00007acc       ??_C@_0M@GCCO@sgrotate180?$AA@ 10052acc     commands.obj
 0003:00007ad8       ??_C@_09IIFJ@sgoptions?$AA@ 10052ad8     commands.obj
 0003:00007ae4       ??_C@_03JKHD@buy?$AA@      10052ae4     commands.obj
 0003:00007ae8       ??_C@_0CA@FDBO@Can?8t?5use?5TELL?0?5you?5are?5gagged?4?$AA@ 10052ae8     commands.obj
 0003:00007b08       ??_C@_04HKFA@tell?$AA@     10052b08     commands.obj
 0003:00007b10       ??_C@_0M@IOFO@givecredits?$AA@ 10052b10     commands.obj
 0003:00007b1c       ??_C@_03CJGO@201?$AA@      10052b1c     commands.obj
 0003:00007b20       ??_C@_07ENEF@impulse?$AA@  10052b20     commands.obj
 0003:00007b28       ??_C@_08BEPD@jointeam?$AA@ 10052b28     commands.obj
 0003:00007b34       ??_C@_02ELCB@no?$AA@       10052b34     commands.obj
 0003:00007b38       ??_C@_03LGKI@yes?$AA@      10052b38     commands.obj
 0003:00007b3c       ??_C@_0M@JOJG@fuckthevote?$AA@ 10052b3c     commands.obj
 0003:00007b48       ??_C@_0L@IPAO@endthevote?$AA@ 10052b48     commands.obj
 0003:00007b54       ??_C@_08PMCP@votestat?$AA@ 10052b54     commands.obj
 0003:00007b60       ??_C@_05COMF@vote?5?$AA@   10052b60     commands.obj
 0003:00007b68       ??_C@_0M@BOH@rockthevote?$AA@ 10052b68     commands.obj
 0003:00007b74       ??_C@_07LBIF@nextmap?$AA@  10052b74     commands.obj
 0003:00007b7c       ??_C@_08HOIK@timeleft?$AA@ 10052b7c     commands.obj
 0003:00007b88       ??_C@_05IMHF@rank?5?$AA@   10052b88     commands.obj
 0003:00007b90       ??_C@_06LCBM@check?5?$AA@  10052b90     commands.obj
 0003:00007b98       ??_C@_05FCKK@time?5?$AA@   10052b98     commands.obj
 0003:00007ba0       ??_C@_09JLFJ@warnings?5?$AA@ 10052ba0     commands.obj
 0003:00007bac       ??_C@_06DFMP@whois?5?$AA@  10052bac     commands.obj
 0003:00007bb4       ??_C@_05HFFE@info?5?$AA@   10052bb4     commands.obj
 0003:00007bbc       ??_C@_05GDLC@?$CBhelp?$AA@ 10052bbc     commands.obj
 0003:00007bc4       ??_C@_08PAEI@say_team?$AA@ 10052bc4     commands.obj
 0003:00007bd0       ??_C@_03NJAM@say?$AA@      10052bd0     commands.obj
 0003:00007bd4       ??_C@_0L@BKEM@menuselect?$AA@ 10052bd4     commands.obj
 0003:00007be0       ??_C@_0N@FPK@tf_weapon_ng?$AA@ 10052be0     commands.obj
 0003:00007bf0       ??_C@_0BC@LPGD@tf_weapon_shotgun?$AA@ 10052bf0     commands.obj
 0003:00007c04       ??_C@_0BE@ICBC@tf_weapon_autorifle?$AA@ 10052c04     commands.obj
 0003:00007c18       ??_C@_0BC@BGDJ@tf_weapon_railgun?$AA@ 10052c18     commands.obj
 0003:00007c2c       ??_C@_0BA@DHAB@tf_weapon_tranq?$AA@ 10052c2c     commands.obj
 0003:00007c3c       ??_C@_0N@MOPD@tf_weapon_ic?$AA@ 10052c3c     commands.obj
 0003:00007c4c       ??_C@_0N@GPJ@tf_weapon_pl?$AA@ 10052c4c     commands.obj
 0003:00007c5c       ??_C@_0N@NAF@tf_weapon_gl?$AA@ 10052c5c     commands.obj
 0003:00007c6c       ??_C@_0BH@LAEE@tf_weapon_flamethrower?$AA@ 10052c6c     commands.obj
 0003:00007c84       ??_C@_0BC@HAHI@tf_weapon_medikit?$AA@ 10052c84     commands.obj
 0003:00007c98       ??_C@_0BC@EDBO@tf_weapon_spanner?$AA@ 10052c98     commands.obj
 0003:00007cac       ??_C@_0BA@JILA@tf_weapon_knife?$AA@ 10052cac     commands.obj
 0003:00007cbc       ??_C@_0O@JBJC@tf_weapon_axe?$AA@ 10052cbc     commands.obj
 0003:00007ccc       ?g_LevelNames@@3PAPADA     10052ccc     credits.obj
 0003:00007ce4       ??_C@_0O@IBFE@Administrator?$AA@ 10052ce4     credits.obj
 0003:00007cf4       ??_C@_07LPJ@SuperOP?$AA@   10052cf4     credits.obj
 0003:00007cfc       ??_C@_07MEPO@PowerOP?$AA@  10052cfc     credits.obj
 0003:00007d04       ??_C@_08KOOK@ServerOP?$AA@ 10052d04     credits.obj
 0003:00007d10       ??_C@_05IMGC@LowOP?$AA@    10052d10     credits.obj
 0003:00007d18       ??_C@_04COF@None?$AA@      10052d18     credits.obj
 0003:00007d20       ??_C@_0BG@GIJF@Player?5using?5nologin?6?$AA@ 10052d20     credits.obj
 0003:00007d38       ??_C@_0BM@LAB@Player?5using?5admin?5stealth?6?$AA@ 10052d38     credits.obj
 0003:00007d54       ??_C@_08BGME@_nologin?$AA@ 10052d54     credits.obj
 0003:00007d60       ??_C@_0O@IIJE@_adminstealth?$AA@ 10052d60     credits.obj
 0003:00007d70       ??_C@_0EA@OEGC@TFXLoadPlayerInfo?$CI?$CJ?3?5Player?8s?5fl@ 10052d70     credits.obj
 0003:00007db0       ??_C@_0DB@INPP@TFXLoadPlayerInfo?$CI?$CJ?3?5Attempted?5t@ 10052db0     credits.obj
 0003:00007de4       ??_C@_0DB@EFOA@LoadPlayer?$CI?$CJ?3?5PLAYER?5DATAFILE?5VE@ 10052de4     credits.obj
 0003:00007e18       ??_C@_0BL@FNNJ@Reading?5user?5data?5from?5?$CFs?6?$AA@ 10052e18     credits.obj
 0003:00007e34       ??_C@_0BN@MKE@22Reading?5user?5data?5from?5?$CFs?6?$AA@ 10052e34     credits.obj
 0003:00007e54       ??_C@_04ENEK@?4dat?$AA@    10052e54     credits.obj
 0003:00007e5c       ??_C@_0BF@NGMP@tfc?2autoop?2userinfo?2?$AA@ 10052e5c     credits.obj
 0003:00007e74       ??_C@_0M@BIM@tfx_credits?$AA@ 10052e74     credits.obj
 0003:00007e80       ??_C@_0BE@JLGC@tfc?2autoop?2userinfo?$AA@ 10052e80     credits.obj
 0003:00007e94       ??_C@_0L@INJA@tfc?2autoop?$AA@ 10052e94     credits.obj
 0003:00007ea0       ??_C@_0BJ@BNGE@exec?5gp2_clientpack?4cfg?6?$AA@ 10052ea0     credits.obj
 0003:00007ebc       ??_C@_0CF@ENIB@alias?5lastinv?5?$CCm?$CC?$DLr_drawviewmode@ 10052ebc     credits.obj
 0003:00007ee4       ??_C@_0DE@FBNO@alias?5tf_weapon_shotgun?5?$CCm?$CC?$DLalia@ 10052ee4     credits.obj
 0003:00007f18       ??_C@_0EA@EKOC@alias?5tf_weapon_supershotgun?5?$CCm?$CC@ 10052f18     credits.obj
 0003:00007f58       ??_C@_0DJ@COG@alias?5tf_weapon_railgun?5?$CCm?$CC?$DLalia@ 10052f58     credits.obj
 0003:00007f94       ??_C@_0DC@KGKF@alias?5tf_weapon_ic?5?$CCm?$CC?$DLalias?5tf_@ 10052f94     credits.obj
 0003:00007fc8       ??_C@_0CP@HHGN@alias?5tf_weapon_gl?5?$CCm?$CC?$DLalias?5tf_@ 10052fc8     credits.obj
 0003:00007ff8       ??_C@_0DJ@GEKK@alias?5tf_weapon_flamethrower?5?$CCm?$CC@ 10052ff8     credits.obj
 0003:00008034       ??_C@_0DJ@MJOA@alias?5tf_weapon_rpg?5?$CCm?$CC?$DLalias?5tf@ 10053034     credits.obj
 0003:00008070       ??_C@_0CO@KING@TFXLoadPlayerInfo?$CI?$CJ?3?5Initializin@ 10053070     credits.obj
 0003:000080a0       ??_C@_0L@LNBE@console?51?6?$AA@ 100530a0     credits.obj
 0003:000080ac       ??_C@_0BB@NADO@tfc_newmodels?50?6?$AA@ 100530ac     credits.obj
 0003:000080c0       ??_C@_0DK@MMBP@TFXResetPlayerInfo?$CI?$CJ?3?5Resetting?5@ 100530c0     credits.obj
 0003:000080fc       ??_C@_02NGAF@wb?$AA@       100530fc     credits.obj
 0003:00008100       ??_C@_0DH@NLP@TFXPlayerDisconnect?$CI?$CJ?3?5User?5on?5s@ 10053100     credits.obj
 0003:00008138       ??_C@_0BE@LMHO@scr_connectmsg?5?$CC0?$CC?6?$AA@ 10053138     credits.obj
 0003:0000814c       ??_C@_0BB@MGJE@tfc_newmodels?51?6?$AA@ 1005314c     credits.obj
 0003:00008160       ??_C@_0DC@BGLC@TFXClientConnectionMsg?$CI?$CJ?3?5Copied@ 10053160     credits.obj
 0003:00008194       ??_C@_0DF@DMJJ@TFXClientConnectionMsg?$CI?$CJ?3?5Messag@ 10053194     credits.obj
 0003:000081d0       ??_C@_0EP@JBME@You?5have?5wasted?5?$CFd?5hours?0?5?$CFd?5min@ 100531d0     credits.obj
 0003:00008220       ??_C@_0EP@MAO@At?5the?5moment?5you?5have?5?$CFd?5credit@ 10053220     credits.obj
 0003:00008270       ??_C@_0DB@KAIO@Welcome?5back?5to?5the?5server?5?$CFs?0?5h@ 10053270     credits.obj
 0003:000082a4       ??_C@_0DJ@KCEN@Welcome?5to?5the?5server?5?$CFs?0?5we?5hop@ 100532a4     credits.obj
 0003:000082e0       ??_C@_0EH@IGHM@Please?5wait?4?4?5The?5download?5will?5@ 100532e0     credits.obj
 0003:00008328       ??_C@_0EF@BPHG@When?5in?5the?5server?5say?5?8?$CBhelp?8?5f@ 10053328     credits.obj
 0003:00008370       ??_C@_0EP@KHDN@An?5NAO?5map?5is?5currently?5playing?0@ 10053370     credits.obj
 0003:000083c0       ??_C@_0DN@ILFC@Downloading?5straight?5from?5the?5se@ 100533c0     credits.obj
 0003:00008400       ??_C@_0DD@IGFE@You?5can?5download?5the?5client?5pack@ 10053400     credits.obj
 0003:00008438       ??_C@_0EA@FPFG@We?5require?5you?5have?5the?5latest?5G@ 10053438     credits.obj
 0003:00008478       ??_C@_0EH@MJDB@However?5you?5may?5stay?5connected?5a@ 10053478     credits.obj
 0003:000084c0       ??_C@_0BP@NEEA@http?3?1?1www?4girlpower2?4dhs?4org?6?$AA@ 100534c0     credits.obj
 0003:000084e0       ??_C@_0EB@ENDM@It?5is?5recommended?5that?5you?5get?5t@ 100534e0     credits.obj
 0003:00008524       ??_C@_0DJ@DB@You?5need?5the?5latest?5GP2?5Clientpa@ 10053524     credits.obj
 0003:00008560       ??_C@_04KEGN@5?431?$AA@    10053560     credits.obj
 0003:00008568       ??_C@_0DI@IJDJ@There?5is?5currently?5?$CFd?5out?5of?5?$CFd?5@ 10053568     credits.obj
 0003:000085a0       ??_C@_0CD@IOFC@The?5last?5person?5to?5connect?5was?5?$CF@ 100535a0     credits.obj
 0003:000085c4       ??_C@_0CN@ICNA@You?5are?5the?5first?5to?5connect?5to?5@ 100535c4     credits.obj
 0003:000085f4       ??_C@_0CK@CCNK@Nothing?5has?5yet?5been?5said?5in?5the@ 100535f4     credits.obj
 0003:00008620       ??_C@_0CE@KADL@The?5last?5thing?5said?5was?5?$CC?$CFs?$CC?5by?5@ 10053620     credits.obj
 0003:00008644       ??_C@_0CK@PIN@Time?5left?5on?5current?5map?5is?5?$CFdh?3@ 10053644     credits.obj
 0003:00008670       ??_C@_0CE@IPLA@The?5current?5map?5being?5played?5is?5@ 10053670     credits.obj
 0003:00008694       ??_C@_0DO@BLNK@and?5also?5running?5Remote?9X?5?$CIwww?4p@ 10053694     credits.obj
 0003:000086d8       ??_C@_0EA@MCEC@?9?9?9?9?9?9?9?9?9?9?9?9?9?9?9?9?9?9?9?9?9?9?9?9?9?9?9?9?9?9?9?9@ 100536d8     credits.obj
 0003:00008718       ??_C@_0DB@MHKK@This?5server?5is?5using?5AutoOP?5Shod@ 10053718     credits.obj
 0003:0000874c       ??_C@_04HGEK@5?417?$AA@    1005374c     credits.obj
 0003:00008754       ??_C@_01PFH@A?$AA@         10053754     credits.obj
 0003:00008758       ??_C@_0P@MOMJ@Welcome?5to?5?$CFs?6?$AA@ 10053758     credits.obj
 0003:00008768       ??_C@_0DP@NDGH@?9?9?9?9?9?9?9?9?9?9?9?9?9?9?9?9?9?9?9?9?9?9?9?9?9?9?9?9?9?9?9?9@ 10053768     credits.obj
 0003:000087a8       ??_C@_0DD@KLOO@Protected?5by?5HLGuard?5?$CFs?5?9?5http?3?1@ 100537a8     credits.obj
 0003:000087dc       ??_C@_0BA@HJLM@hlguard_version?$AA@ 100537dc     credits.obj
 0003:000087ec       ??_C@_0DC@LGJB@TFXClientConnectionMsg?$CI?$CJ?3?5Calcul@ 100537ec     credits.obj
 0003:00008820       ??_C@_0DH@IMP@TFXClientConnectionMsg?$CI?$CJ?3?5Retriv@ 10053820     credits.obj
 0003:00008858       ??_C@_0BB@JKID@sv_allowdownload?$AA@ 10053858     credits.obj
 0003:0000886c       ??_C@_0N@DOEN@rx_infopulse?$AA@ 1005386c     credits.obj
 0003:0000887c       ??_C@_0L@OGIK@maxplayers?$AA@ 1005387c     credits.obj
 0003:00008888       ??_C@_08NNNB@hostname?$AA@ 10053888     credits.obj
 0003:00008898       ??_C@_0EE@KEFE@TFXClientConnectionMsg?$CI?$CJ?3?5Sendin@ 10053898     credits.obj
 0003:000088dc       ??_C@_0BK@IBDP@CreditThink?$CI?$CJ?3?5Completed?6?$AA@ 100538dc     credits.obj
 0003:000088f8       ??_C@_0CJ@KJNO@?$CK?$CK?$CK?5You?5have?5just?5earned?5the?5ran@ 100538f8     credits.obj
 0003:00008924       ??_C@_0DK@IDIM@You?5just?5earned?5another?5credit?0?5@ 10053924     credits.obj
 0003:00008960       ??_C@_0BH@GE@CreditThink?$CI?$CJ?3?5Called?6?$AA@ 10053960     credits.obj
 0003:00008978       ??_C@_0BM@JELN@?$CFs?5currently?5has?5?$CFd?5frags?4?6?$AA@ 10053978     credits.obj
 0003:00008994       ??_C@_0DN@MONF@?$CFs?5currently?5has?5?$CFd?5credits?0?5?$CFd?5@ 10053994     credits.obj
 0003:000089d4       ??_C@_0BK@LJIF@Playercredinfo?$CI?$CJ?3?5Called?6?$AA@ 100539d4     credits.obj
 0003:000089f0       ??_C@_0EF@KJFN@Players?5accounts?5are?5frozen?5at?5t@ 100539f0     credits.obj
 0003:00008a38       ??_C@_0EF@BAHD@?$CFs?5has?5been?5on?5this?5server?5for?5?$CF@ 10053a38     credits.obj
 0003:00008a80       ??_C@_0BF@ECH@?$CFs?5is?5NOT?5an?5admin?4?6?$AA@ 10053a80     credits.obj
 0003:00008a98       ??_C@_0CD@KBEI@?$CFs?5is?5a?5level?5?$CFd?5server?5operator@ 10053a98     credits.obj
 0003:00008abc       ??_C@_0CN@IAKI@?$CFs?5was?5last?5known?5as?5?$CFs?0?5first?5k@ 10053abc     credits.obj
 0003:00008aec       ??_C@_0CA@PIJI@Playerwhois?$CI?$CJ?3?5Function?5called?6?$AA@ 10053aec     credits.obj
 0003:00008b0c       ??_C@_0CF@CKEI@?$CFs?5has?5had?5?$CFd?5warnings?5from?5admi@ 10053b0c     credits.obj
 0003:00008b34       ??_C@_0CD@DJNE@Playerwarnings?$CI?$CJ?3?5Called?5functio@ 10053b34     credits.obj
 0003:00008b58       ??_C@_0EB@BLKM@?$CFs?5has?5a?5rank?5of?5?$CFs?5and?5must?5ear@ 10053b58     credits.obj
 0003:00008b9c       ??_C@_0BK@JBKF@Playerrankinfo?$CI?$CJ?3?5Called?6?$AA@ 10053b9c     credits.obj
 0003:00008bb8       ??_C@_0BI@CGND@Invalid?5credit?5amount?$CB?6?$AA@ 10053bb8     credits.obj
 0003:00008bd0       ??_C@_0BJ@HNEB@?$CFd?5credits?5given?5to?5?$CFs?4?6?$AA@ 10053bd0     credits.obj
 0003:00008bec       ??_C@_0BJ@GJOP@?$CFs?5gave?5you?5?$CFd?5credits?$CB?6?$AA@ 10053bec     credits.obj
 0003:00008c08       ??_C@_0CF@BJOK@You?5don?8t?5have?5any?5credits?5to?5gi@ 10053c08     credits.obj
 0003:00008c30       ??_C@_0BN@MBIE@Player?5?$CFd?5gave?5credits?5away?6?$AA@ 10053c30     credits.obj
 0003:00008c50       ??_C@_0DI@DIIC@?$FLAUTOOP?$FN?5Writing?5back?5everyones?5@ 10053c50     credits.obj
 0003:00008c88       ??_C@_0CI@ODLH@WriteBackFiles?$CI?$CJ?3?5Writing?5player@ 10053c88     credits.obj
 0003:00008cb0       ??_C@_0DB@LJCA@You?5have?5not?5been?5authenticated?5@ 10053cb0     credits.obj
 0003:00008ce4       ??_C@_0CH@EFFE@?$CFs?5logged?5in?5as?5a?5level?5?$CFd?5serve@ 10053ce4     credits.obj
 0003:00008d0c       ??_C@_0CP@OALI@You?5have?5been?5authed?5as?5a?5level?5@ 10053d0c     credits.obj
 0003:00008d3c       ??_C@_0BO@JADH@Player?5?$CFd?5called?5AdminAuth?$CI?$CJ?6?$AA@ 10053d3c     credits.obj
 0003:00008d5c       ??_C@_0BP@DNOD@You?5are?5not?5currently?5authed?$CB?6?$AA@ 10053d5c     credits.obj
 0003:00008d7c       ??_C@_0CC@INAK@?$CFs?5logged?5out?5of?5server?5op?5mode?4@ 10053d7c     credits.obj
 0003:00008da0       ??_C@_0CI@PEE@You?5have?5logged?5out?5of?5server?5op@ 10053da0     credits.obj
 0003:00008dc8       ??_C@_0CA@FEKJ@Player?5?$CFd?5called?5AdminDeAuth?$CI?$CJ?6?$AA@ 10053dc8     credits.obj
 0003:00008de8       ??_C@_0BL@INDP@setinfo?5?$CC_gp2clpckver?$CC?5?$CC?$CC?6?$AA@ 10053de8     credits.obj
 0003:00008e04       ??_C@_08OPFG@29fa51c8?$AA@ 10053e04     credits.obj
 0003:00008e10       ??_C@_08HHOF@32fd49b5?$AA@ 10053e10     credits.obj
 0003:00008e20       ?LastCalled@@3MA           10053e20     dll.obj
 0003:00008e24       ?MapVoteLast@@3MA          10053e24     dll.obj
 0003:00008e28       ?tfx_airstrike@@3Ucvar_s@@A 10053e28     dll.obj
 0003:00008e3c       ?tfx_manualsentrys@@3Ucvar_s@@A 10053e3c     dll.obj
 0003:00008e50       ?tfx_grapplehook@@3Ucvar_s@@A 10053e50     dll.obj
 0003:00008e64       ?tfx_laserfence@@3Ucvar_s@@A 10053e64     dll.obj
 0003:00008e78       ?tfx_snarks@@3Ucvar_s@@A   10053e78     dll.obj
 0003:00008e8c       ?tfx_credits@@3Ucvar_s@@A  10053e8c     dll.obj
 0003:00008ea0       ?tfx_skinshowteam@@3Ucvar_s@@A 10053ea0     dll.obj
 0003:00008eb4       ?tfx_c4@@3Ucvar_s@@A       10053eb4     dll.obj
 0003:00008ec8       ?tfx_tripmines@@3Ucvar_s@@A 10053ec8     dll.obj
 0003:00008edc       ?tfx_icons@@3Ucvar_s@@A    10053edc     dll.obj
 0003:00008ef0       ?tfx_mines@@3Ucvar_s@@A    10053ef0     dll.obj
 0003:00008f04       ?tfx_sgcloak@@3Ucvar_s@@A  10053f04     dll.obj
 0003:00008f18       ?tfx_skins@@3Ucvar_s@@A    10053f18     dll.obj
 0003:00008f2c       ?tfx_debug@@3Ucvar_s@@A    10053f2c     dll.obj
 0003:00008f40       ?tfx_mediflag@@3Ucvar_s@@A 10053f40     dll.obj
 0003:00008f54       ?tfx_superflame@@3Ucvar_s@@A 10053f54     dll.obj
 0003:00008f68       ?tfx_kickvote@@3Ucvar_s@@A 10053f68     dll.obj
 0003:00008f7c       ?tfx_flashbang@@3Ucvar_s@@A 10053f7c     dll.obj
 0003:00008f90       ?tfx_mapvote@@3Ucvar_s@@A  10053f90     dll.obj
 0003:00008fa4       ?tfx_skyhook@@3Ucvar_s@@A  10053fa4     dll.obj
 0003:00008fb8       ?tfx_adminspect@@3Ucvar_s@@A 10053fb8     dll.obj
 0003:00008fcc       ?tfx_stealthcamo@@3Ucvar_s@@A 10053fcc     dll.obj
 0003:00008fe0       ?tfx_sword@@3Ucvar_s@@A    10053fe0     dll.obj
 0003:00008ff4       ?tfx_revival@@3Ucvar_s@@A  10053ff4     dll.obj
 0003:00009008       ?tfx_voteratio@@3Ucvar_s@@A 10054008     dll.obj
 0003:0000901c       ?tfx_antispawncamp@@3Ucvar_s@@A 1005401c     dll.obj
 0003:00009030       ?tfx_logging@@3Ucvar_s@@A  10054030     dll.obj
 0003:00009044       ?tfx_editorprotection@@3Ucvar_s@@A 10054044     dll.obj
 0003:00009058       ?tfx_customweapons@@3Ucvar_s@@A 10054058     dll.obj
 0003:0000906c       ?tfx_bottalk@@3Ucvar_s@@A  1005406c     dll.obj
 0003:00009080       ?tfx_teamgrapple@@3Ucvar_s@@A 10054080     dll.obj
 0003:00009094       ?tfx_snipemapcheck@@3Ucvar_s@@A 10054094     dll.obj
 0003:000090a8       ?tfx_lockdown@@3Ucvar_s@@A 100540a8     dll.obj
 0003:000090bc       ?tfx_privmessages@@3Ucvar_s@@A 100540bc     dll.obj
 0003:000090d0       ?tfx_adminseepriv@@3Ucvar_s@@A 100540d0     dll.obj
 0003:000090e4       ?tfx_gundropping@@3Ucvar_s@@A 100540e4     dll.obj
 0003:000090f8       ?tfx_vampirism@@3Ucvar_s@@A 100540f8     dll.obj
 0003:0000910c       ?tfx_3rdperson@@3Ucvar_s@@A 1005410c     dll.obj
 0003:00009120       ?tfx_weaponsonskins@@3Ucvar_s@@A 10054120     dll.obj
 0003:00009134       ?tfx_hwradar@@3Ucvar_s@@A  10054134     dll.obj
 0003:00009148       ?tfx_adminteam@@3Ucvar_s@@A 10054148     dll.obj
 0003:0000915c       ?tfx_customdispenser@@3Ucvar_s@@A 1005415c     dll.obj
 0003:00009170       ?tfx_c4onplayers@@3Ucvar_s@@A 10054170     dll.obj
 0003:00009184       ?tfx_c4autodet@@3Ucvar_s@@A 10054184     dll.obj
 0003:00009198       ?tfx_forceteambalance@@3Ucvar_s@@A 10054198     dll.obj
 0003:000091ac       ?tfx_buying@@3Ucvar_s@@A   100541ac     dll.obj
 0003:000091c0       ?tfx_classicgrapple@@3Ucvar_s@@A 100541c0     dll.obj
 0003:000091d4       ?tfx_grapplespeed@@3Ucvar_s@@A 100541d4     dll.obj
 0003:000091e8       ?nailgun_paintball@@3Ucvar_s@@A 100541e8     dll.obj
 0003:000091fc       ?tfx_autodj@@3Ucvar_s@@A   100541fc     dll.obj
 0003:00009210       ?tfx_autodjdelay@@3Ucvar_s@@A 10054210     dll.obj
 0003:00009224       ?tfx_icqnotify@@3Ucvar_s@@A 10054224     dll.obj
 0003:00009238       ?tfx_messageflags@@3Ucvar_s@@A 10054238     dll.obj
 0003:0000924c       ?tfx_version@@3Ucvar_s@@A  1005424c     dll.obj
 0003:00009260       ?tfx_revision@@3Ucvar_s@@A 10054260     dll.obj
 0003:00009274       ?tfx_cost_quad@@3Ucvar_s@@A 10054274     dll.obj
 0003:00009288       ?tfx_cost_god@@3Ucvar_s@@A 10054288     dll.obj
 0003:0000929c       ?tfx_cost_invis@@3Ucvar_s@@A 1005429c     dll.obj
 0003:000092b0       ?tfx_cost_grav@@3Ucvar_s@@A 100542b0     dll.obj
 0003:000092c4       ?tfx_cost_speed@@3Ucvar_s@@A 100542c4     dll.obj
 0003:000092d8       ?tfx_cost_build@@3Ucvar_s@@A 100542d8     dll.obj
 0003:000092ec       ?tfx_cost_civilian@@3Ucvar_s@@A 100542ec     dll.obj
 0003:00009300       ?tfx_cost_ammo_nails@@3Ucvar_s@@A 10054300     dll.obj
 0003:00009314       ?tfx_cost_ammo_shells@@3Ucvar_s@@A 10054314     dll.obj
 0003:00009328       ?tfx_cost_ammo_rockets@@3Ucvar_s@@A 10054328     dll.obj
 0003:0000933c       ?tfx_cost_ammo_cells@@3Ucvar_s@@A 1005433c     dll.obj
 0003:00009350       ?tfx_cost_ammo_gren1@@3Ucvar_s@@A 10054350     dll.obj
 0003:00009364       ?tfx_cost_ammo_gren2@@3Ucvar_s@@A 10054364     dll.obj
 0003:00009378       ?tfx_cost_guns@@3Ucvar_s@@A 10054378     dll.obj
 0003:0000938c       ?tfx_cost_speech@@3Ucvar_s@@A 1005438c     dll.obj
 0003:000093a0       ?tfx_cost_heal@@3Ucvar_s@@A 100543a0     dll.obj
 0003:000093b4       ?tfx_cost_mapvote@@3Ucvar_s@@A 100543b4     dll.obj
 0003:000093c8       ?tfx_cost_trail@@3Ucvar_s@@A 100543c8     dll.obj
 0003:000093dc       ?tfx_cost_adminskin@@3Ucvar_s@@A 100543dc     dll.obj
 0003:000093f0       ?hlg_official@@3Ucvar_s@@A 100543f0     dll.obj
 0003:00009404       ?hlguard_version@@3Ucvar_s@@A 10054404     dll.obj
 0003:00009418       ?hlguard_cfgversion@@3Ucvar_s@@A 10054418     dll.obj
 0003:00009430       ?gFunctionTable@@3UDLL_FUNCTIONS@@A 10054430     dll.obj
 0003:000094f8       ??_C@_0BA@FJGO@HLG?5v1?407?5?$CINet?$CJ?$AA@ 100544f8     dll.obj
 0003:00009508       ??_C@_0BD@MDHN@hlguard_cfgversion?$AA@ 10054508     dll.obj
 0003:0000951c       ??_C@_04PFKI@1?407?$AA@    1005451c     dll.obj
 0003:00009524       ??_C@_0N@DGGI@hlg_official?$AA@ 10054524     dll.obj
 0003:00009534       ??_C@_0BD@KFNG@tfx_cost_adminskin?$AA@ 10054534     dll.obj
 0003:00009548       ??_C@_01PLFL@5?$AA@        10054548     dll.obj
 0003:0000954c       ??_C@_0P@IAPI@tfx_cost_trail?$AA@ 1005454c     dll.obj
 0003:0000955c       ??_C@_0BB@NNNI@tfx_cost_mapvote?$AA@ 1005455c     dll.obj
 0003:00009570       ??_C@_01KOHF@7?$AA@        10054570     dll.obj
 0003:00009574       ??_C@_0O@EJMF@tfx_cost_heal?$AA@ 10054574     dll.obj
 0003:00009584       ??_C@_0BA@JBJE@tfx_cost_speech?$AA@ 10054584     dll.obj
 0003:00009594       ??_C@_0O@MEKN@tfx_cost_guns?$AA@ 10054594     dll.obj
 0003:000095a4       ??_C@_0BE@GFAF@tfx_cost_ammo_gren2?$AA@ 100545a4     dll.obj
 0003:000095b8       ??_C@_0BE@JKLM@tfx_cost_ammo_gren1?$AA@ 100545b8     dll.obj
 0003:000095cc       ??_C@_02GJPF@25?$AA@       100545cc     dll.obj
 0003:000095d0       ??_C@_0BE@KKKO@tfx_cost_ammo_cells?$AA@ 100545d0     dll.obj
 0003:000095e4       ??_C@_02GJDO@20?$AA@       100545e4     dll.obj
 0003:000095e8       ??_C@_0BG@KMDI@tfx_cost_ammo_rockets?$AA@ 100545e8     dll.obj
 0003:00009600       ??_C@_0BF@LDLB@tfx_cost_ammo_shells?$AA@ 10054600     dll.obj
 0003:00009618       ??_C@_0BE@EDA@tfx_cost_ammo_nails?$AA@ 10054618     dll.obj
 0003:0000962c       ??_C@_0BC@JHID@tfx_cost_civilian?$AA@ 1005462c     dll.obj
 0003:00009640       ??_C@_02FCMB@10?$AA@       10054640     dll.obj
 0003:00009644       ??_C@_0P@DAMB@tfx_cost_build?$AA@ 10054644     dll.obj
 0003:00009654       ??_C@_02HPJE@30?$AA@       10054654     dll.obj
 0003:00009658       ??_C@_0P@FJLK@tfx_cost_speed?$AA@ 10054658     dll.obj
 0003:00009668       ??_C@_0O@KOAG@tfx_cost_grav?$AA@ 10054668     dll.obj
 0003:00009678       ??_C@_03HFMC@100?$AA@      10054678     dll.obj
 0003:0000967c       ??_C@_0P@HOOI@tfx_cost_invis?$AA@ 1005467c     dll.obj
 0003:0000968c       ??_C@_03IDPJ@200?$AA@      1005468c     dll.obj
 0003:00009690       ??_C@_0N@LHFH@tfx_cost_god?$AA@ 10054690     dll.obj
 0003:000096a0       ??_C@_02FCAK@15?$AA@       100546a0     dll.obj
 0003:000096a4       ??_C@_0O@GGPE@tfx_cost_quad?$AA@ 100546a4     dll.obj
 0003:000096b4       ??_C@_0BI@MHII@autoop_version_revision?$AA@ 100546b4     dll.obj
 0003:000096cc       ??_C@_0BG@DNFB@autoop_version_number?$AA@ 100546cc     dll.obj
 0003:000096e4       ??_C@_0BB@JFMN@tfx_messageflags?$AA@ 100546e4     dll.obj
 0003:000096f8       ??_C@_0O@MDLF@tfx_icqnotify?$AA@ 100546f8     dll.obj
 0003:00009708       ??_C@_03FIJH@120?$AA@      10054708     dll.obj
 0003:0000970c       ??_C@_0BA@LNKA@tfx_autodjdelay?$AA@ 1005470c     dll.obj
 0003:0000971c       ??_C@_0L@MDIN@tfx_autodj?$AA@ 1005471c     dll.obj
 0003:00009728       ??_C@_0BC@GCNN@nailgun_paintball?$AA@ 10054728     dll.obj
 0003:0000973c       ??_C@_04OHKJ@1500?$AA@     1005473c     dll.obj
 0003:00009744       ??_C@_0BB@CFDF@tfx_grapplespeed?$AA@ 10054744     dll.obj
 0003:00009758       ??_C@_0BD@FLMO@tfx_classicgrapple?$AA@ 10054758     dll.obj
 0003:0000976c       ??_C@_0L@MHOC@tfx_buying?$AA@ 1005476c     dll.obj
 0003:00009778       ??_C@_0BF@EGNM@tfx_forceteambalance?$AA@ 10054778     dll.obj
 0003:00009790       ??_C@_03HFAJ@105?$AA@      10054790     dll.obj
 0003:00009794       ??_C@_0O@JCHK@tfx_c4autodet?$AA@ 10054794     dll.obj
 0003:000097a4       ??_C@_0BA@FJDM@tfx_c4onplayers?$AA@ 100547a4     dll.obj
 0003:000097b4       ??_C@_0BE@PAJH@tfx_customdispenser?$AA@ 100547b4     dll.obj
 0003:000097c8       ??_C@_0O@PMEP@tfx_adminteam?$AA@ 100547c8     dll.obj
 0003:000097d8       ??_C@_0M@BBMN@tfx_hwradar?$AA@ 100547d8     dll.obj
 0003:000097e4       ??_C@_0BD@FFMJ@tfx_weaponsonskins?$AA@ 100547e4     dll.obj
 0003:000097f8       ??_C@_0O@KGF@tfx_3rdperson?$AA@ 100547f8     dll.obj
 0003:00009808       ??_C@_0O@LNAH@tfx_vampirism?$AA@ 10054808     dll.obj
 0003:00009818       ??_C@_0BA@IPNP@tfx_gundropping?$AA@ 10054818     dll.obj
 0003:00009828       ??_C@_0BB@ECEC@tfx_adminseepriv?$AA@ 10054828     dll.obj
 0003:0000983c       ??_C@_0BB@PHJC@tfx_privmessages?$AA@ 1005483c     dll.obj
 0003:00009850       ??_C@_0N@MDLG@tfx_lockdown?$AA@ 10054850     dll.obj
 0003:00009860       ??_C@_0BC@NINC@tfx_snipemapcheck?$AA@ 10054860     dll.obj
 0003:00009874       ??_C@_0BA@MAAM@tfx_teamgrapple?$AA@ 10054874     dll.obj
 0003:00009884       ??_C@_0M@FOOL@tfx_bottalk?$AA@ 10054884     dll.obj
 0003:00009890       ??_C@_0BC@NBHA@tfx_customweapons?$AA@ 10054890     dll.obj
 0003:000098a4       ??_C@_0BF@GCFD@tfx_editorprotection?$AA@ 100548a4     dll.obj
 0003:000098bc       ??_C@_0M@FGNC@tfx_logging?$AA@ 100548bc     dll.obj
 0003:000098c8       ??_C@_0BC@NLDG@tfx_antispawncamp?$AA@ 100548c8     dll.obj
 0003:000098dc       ??_C@_02IGL@50?$AA@        100548dc     dll.obj
 0003:000098e0       ??_C@_0O@LDAG@tfx_voteratio?$AA@ 100548e0     dll.obj
 0003:000098f0       ??_C@_0M@INKL@tfx_revival?$AA@ 100548f0     dll.obj
 0003:000098fc       ??_C@_09OHDN@tfx_sword?$AA@ 100548fc     dll.obj
 0003:00009908       ??_C@_0BA@MLOA@tfx_stealthcamo?$AA@ 10054908     dll.obj
 0003:00009918       ??_C@_0P@MNMA@tfx_adminspect?$AA@ 10054918     dll.obj
 0003:00009928       ??_C@_0M@EDPK@tfx_skyhook?$AA@ 10054928     dll.obj
 0003:00009934       ??_C@_0M@PBKL@tfx_mapvote?$AA@ 10054934     dll.obj
 0003:00009940       ??_C@_0O@DHKE@tfx_flashbang?$AA@ 10054940     dll.obj
 0003:00009950       ??_C@_0N@FDHJ@tfx_kickvote?$AA@ 10054950     dll.obj
 0003:00009960       ??_C@_0P@ENNB@tfx_superflame?$AA@ 10054960     dll.obj
 0003:00009970       ??_C@_0N@FFNC@tfx_mediflag?$AA@ 10054970     dll.obj
 0003:00009980       ??_C@_09IOAC@tfx_debug?$AA@ 10054980     dll.obj
 0003:0000998c       ??_C@_09JIHB@tfx_skins?$AA@ 1005498c     dll.obj
 0003:00009998       ??_C@_01PLJA@0?$AA@        10054998     dll.obj
 0003:0000999c       ??_C@_0M@KMKN@tfx_sgcloak?$AA@ 1005499c     dll.obj
 0003:000099a8       ??_C@_09CBLP@tfx_mines?$AA@ 100549a8     dll.obj
 0003:000099b4       ??_C@_09BNKD@tfx_icons?$AA@ 100549b4     dll.obj
 0003:000099c0       ??_C@_0O@OIAE@tfx_tripmines?$AA@ 100549c0     dll.obj
 0003:000099d0       ??_C@_06DAI@tfx_c4?$AA@    100549d0     dll.obj
 0003:000099d8       ??_C@_0BB@MKGH@tfx_skinshowteam?$AA@ 100549d8     dll.obj
 0003:000099ec       ??_C@_0L@JMCJ@tfx_snarks?$AA@ 100549ec     dll.obj
 0003:000099f8       ??_C@_0P@HGME@tfx_laserfence?$AA@ 100549f8     dll.obj
 0003:00009a08       ??_C@_0BA@GFNM@tfx_grapplehook?$AA@ 10054a08     dll.obj
 0003:00009a18       ??_C@_0M@FAGA@tfx_sentrys?$AA@ 10054a18     dll.obj
 0003:00009a24       ??_C@_0P@JHDM@tfx_airstrikes?$AA@ 10054a24     dll.obj
 0003:00009a34       ??_C@_04NKIK@admc?$AA@     10054a34     dll.obj
 0003:00009a3c       ??_C@_0BB@BLHO@exec?5autoop?4cfg?6?$AA@ 10054a3c     dll.obj
 0003:00009a50       ??_C@_0DI@IENJ@?9?9?9?9?9?9?9?9?9?9?9?9?9?9?6AutoOP?5Shodan?5v?$CFs@ 10054a50     dll.obj
 0003:00009a88       ??_C@_0BA@EHAC@tf_nailgun_nail?$AA@ 10054a88     dll.obj
 0003:00009a98       ??_C@_0O@GBJK@tf_rpg_rocket?$AA@ 10054a98     dll.obj
 0003:00009aa8       ??_C@_0BD@IOH@weapon_grapplehook?$AA@ 10054aa8     dll.obj
 0003:00009abc       ??_C@_0BA@DDMJ@maxammo_detpack?$AA@ 10054abc     dll.obj
 0003:00009acc       ??_C@_0BA@DFPD@maxammo_medikit?$AA@ 10054acc     dll.obj
 0003:00009adc       ??_C@_0N@EHKF@ammo_detpack?$AA@ 10054adc     dll.obj
 0003:00009aec       ??_C@_0N@EBJP@ammo_medikit?$AA@ 10054aec     dll.obj
 0003:00009afc       ??_C@_0L@DHLG@team4_name?$AA@ 10054afc     dll.obj
 0003:00009b08       ??_C@_0L@NPNG@team3_name?$AA@ 10054b08     dll.obj
 0003:00009b14       ??_C@_0L@EKHG@team2_name?$AA@ 10054b14     dll.obj
 0003:00009b20       ??_C@_0BD@IGBJ@tfc_balance_scores?$AA@ 10054b20     dll.obj
 0003:00009b34       ??_C@_0BC@NLDE@tfc_balance_teams?$AA@ 10054b34     dll.obj
 0003:00009b48       ??_C@_0N@IJFL@tfc_autoteam?$AA@ 10054b48     dll.obj
 0003:00009b58       ??_C@_06GGGJ@ADMINS?$AA@   10054b58     dll.obj
 0003:00009b60       ??_C@_0L@PEJG@team1_name?$AA@ 10054b60     dll.obj
 0003:00009b6c       ??_C@_0O@HBBI@maxammo_nails?$AA@ 10054b6c     dll.obj
 0003:00009b7c       ??_C@_0O@NPIG@maxammo_cells?$AA@ 10054b7c     dll.obj
 0003:00009b8c       ??_C@_0P@KCME@maxammo_shells?$AA@ 10054b8c     dll.obj
 0003:00009b9c       ??_C@_0BA@HHCJ@maxammo_rockets?$AA@ 10054b9c     dll.obj
 0003:00009bac       ??_C@_0N@NMLB@team4_allies?$AA@ 10054bac     dll.obj
 0003:00009bbc       ??_C@_0N@CEHI@team3_allies?$AA@ 10054bbc     dll.obj
 0003:00009bcc       ??_C@_0N@GMFG@team2_allies?$AA@ 10054bcc     dll.obj
 0003:00009bdc       ??_C@_0N@LECF@team1_allies?$AA@ 10054bdc     dll.obj
 0003:00009bec       ??_C@_0O@BPFN@info_tfdetect?$AA@ 10054bec     dll.obj
 0003:00009bfc       ??_C@_07DDFO@team_no?$AA@  10054bfc     dll.obj
 0003:00009c04       ??_C@_0BG@CPD@info_player_teamspawn?$AA@ 10054c04     dll.obj
 0003:00009c1c       ??_C@_0BB@MHDF@Server?5is?5full?4?6?$AA@ 10054c1c     dll.obj
 0003:00009c30       ??_C@_0EC@OKCE@ClientConnected?$CI?$CJ?3?5Established?5c@ 10054c30     dll.obj
 0003:00009c74       ??_C@_0BB@CHKK@STEAM_ID_PENDING?$AA@ 10054c74     dll.obj
 0003:00009c88       ??_C@_0N@DNHC@_gp2clpckver?$AA@ 10054c88     dll.obj
 0003:00009c98       ??_C@_01FCOA@?5?$AA@       10054c98     dll.obj
 0003:00009c9c       ??_C@_03HKGO@?5?$CFs?$AA@  10054c9c     dll.obj
 0003:00009ca0       ??_C@_0BD@GBHC@Command?$CI?$CC?$CFs?$CC?$CJ?5?3?5?$CFs?$AA@ 10054ca0     dll.obj
 0003:00009cb4       ??_C@_04OPJK@name?$AA@     10054cb4     dll.obj
 0003:00009cbc       ??_C@_0BD@LHBI@building_sentrygun?$AA@ 10054cbc     dll.obj
 0003:00009cd0       ??_C@_0BI@JANF@building_sentrygun_base?$AA@ 10054cd0     dll.obj
 0003:00009ce8       ??_C@_0BP@FCLC@models?1autoop?1ao_dispenser?4mdl?$AA@ 10054ce8     dll.obj
 0003:00009d08       ??_C@_0BD@HLCF@building_dispenser?$AA@ 10054d08     dll.obj
 0003:00009d1c       ??_C@_0BC@CFNP@autoop?1endmap?4wav?$AA@ 10054d1c     dll.obj
 0003:00009d30       ??_C@_09KLBP@cr_sniper?$AA@ 10054d30     dll.obj
 0003:00009d3c       ??_C@_05DBG@snipe?$AA@     10054d3c     dll.obj
 0003:00009d44       ??_C@_0M@EKIN@net_address?$AA@ 10054d44     dll.obj
 0003:00009d50       ??_C@_07HCFB@grenade?$AA@  10054d50     dll.obj
 0003:00009d58       ??_C@_07KPNM@d_snark?$AA@  10054d58     dll.obj
 0003:00009d60       ??_C@_0M@IGHO@SecAmmoIcon?$AA@ 10054d60     dll.obj
 0003:00009d6c       ??_C@_0L@EJOA@SecAmmoVal?$AA@ 10054d6c     dll.obj
 0003:00009d78       ??_C@_0BB@NBKM@SYS_ERROR?$CI?$CJ?3?5?$CFs?6?$AA@ 10054d78     dll.obj
 0003:00009d8c       ??_C@_0M@MJCB@ao_mailflag?$AA@ 10054d8c     dll.obj
 0003:00009d98       ??_C@_08MBFP@ao_light?$AA@ 10054d98     dll.obj
 0003:00009da4       ??_C@_0BG@FDOG@autoop_dropped_weapon?$AA@ 10054da4     dll.obj
 0003:00009dbc       ??_C@_08JIFI@tfx_skin?$AA@ 10054dbc     dll.obj
 0003:00009dc8       ??_C@_0BG@CJHC@weapon_ao_energyblast?$AA@ 10054dc8     dll.obj
 0003:00009de0       ??_C@_0O@BHN@ao_stealthent?$AA@ 10054de0     dll.obj
 0003:00009df0       ??_C@_07FNAP@tfx_gib?$AA@  10054df0     dll.obj
 0003:00009df8       ??_C@_0BE@NGID@weapon_ao_flashbang?$AA@ 10054df8     dll.obj
 0003:00009e0c       ??_C@_0BA@PKND@weapon_ao_snark?$AA@ 10054e0c     dll.obj
 0003:00009e1c       ??_C@_0M@DNOG@ao_mediflag?$AA@ 10054e1c     dll.obj
 0003:00009e28       ??_C@_0BD@MKBF@weapon_ao_tripmine?$AA@ 10054e28     dll.obj
 0003:00009e3c       ??_C@_0BF@CEDA@weapon_ao_superflame?$AA@ 10054e3c     dll.obj
 0003:00009e54       ??_C@_0BE@OOKB@ao_superflame_start?$AA@ 10054e54     dll.obj
 0003:00009e68       ??_C@_0BE@JMFG@weapon_ao_proximity?$AA@ 10054e68     dll.obj
 0003:00009e7c       ??_C@_0BA@NNKP@weapon_ao_sword?$AA@ 10054e7c     dualbar.obj
 0003:00009e8c       ??_C@_0BJ@FAJD@weapons?1cbar_hitbod2?4wav?$AA@ 10054e8c     dualbar.obj
 0003:00009ea8       ??_C@_0BG@DAIM@weapons?1xbow_hit1?4wav?$AA@ 10054ea8     dualbar.obj
 0003:00009ec0       ??_C@_0CC@DGDJ@models?1autoop?1p_tfc_energygun?4md@ 10054ec0     energyblast.obj
 0003:00009ee4       ??_C@_0BD@BCBH@sprites?1flare1?4spr?$AA@ 10054ee4     energyblast.obj
 0003:00009ef8       ??_C@_0BD@INCL@buttons?1spark6?4wav?$AA@ 10054ef8     energyblast.obj
 0003:00009f0c       ??_C@_0CL@BCBG@Fireenergy?$CI?$CJ?3?5Player?5fired?5energ@ 10054f0c     energyblast.obj
 0003:00009f38       ??_C@_0BD@GCDB@ao_energyblastkill?$AA@ 10054f38     energyblast.obj
 0003:00009f4c       ??_C@_0BF@CIGK@weapons?1electro5?4wav?$AA@ 10054f4c     energyblast.obj
 0003:00009f64       ??_C@_0CM@GNEE@EnergyBlastThink?$CI?$CJ?3?5Think?5functi@ 10054f64     energyblast.obj
 0003:00009f90       ??_C@_0CL@IJAF@KillEnergyBlast?$CI?$CJ?3?5Energyball?5wa@ 10054f90     energyblast.obj
 0003:00009fbc       ??_C@_0CC@CEKM@pfnRegUserMsg?3?5pszName?$DN?$CFs?5msg?$DN?$CFd@ 10054fbc     engine.obj
 0003:00009fe0       ??_C@_0L@OMID@clmsgs?4txt?$AA@ 10054fe0     engine.obj
 0003:00009fec       ??_C@_0M@NJMM@StatusValue?$AA@ 10054fec     engine.obj
 0003:00009ff8       ??_C@_0L@LPOH@StatusText?$AA@ 10054ff8     engine.obj
 0003:0000a004       ??_C@_08FJPD@DeathMsg?$AA@ 10055004     engine.obj
 0003:0000a010       ??_C@_0DB@CKPN@INVALID?5USER?5MESSAGE?5DETECTED?5FR@ 10055010     engine.obj
 0003:0000a044       ??_C@_0CE@OAGD@pfnMessageBegin?$CI?$CJ?3?5Hooked?5Messag@ 10055044     engine.obj
 0003:0000a068       ??_C@_0CL@MFDM@pfnMessageBegin?3?5edict?$DN?$CFx?5dest?$DN?$CF@ 10055068     engine.obj
 0003:0000a094       ??_C@_0BA@NPPK@pfnMessageEnd?3?6?$AA@ 10055094     engine.obj
 0003:0000a0a4       ??_C@_0BC@CCHJ@pfnWriteByte?3?5?$CFd?6?$AA@ 100550a4     engine.obj
 0003:0000a0b8       ??_C@_0BC@OFAN@pfnWriteChar?3?5?$CFd?6?$AA@ 100550b8     engine.obj
 0003:0000a0cc       ??_C@_0BD@OOMD@pfnWriteShort?3?5?$CFd?6?$AA@ 100550cc     engine.obj
 0003:0000a0e0       ??_C@_0BC@GEBK@pfnWriteLong?3?5?$CFd?6?$AA@ 100550e0     engine.obj
 0003:0000a0f4       ??_C@_0BD@FJNK@pfnWriteAngle?3?5?$CFf?6?$AA@ 100550f4     engine.obj
 0003:0000a108       ??_C@_0BD@CKEI@pfnWriteCoord?3?5?$CFf?6?$AA@ 10055108     engine.obj
 0003:0000a11c       ??_C@_0BE@JLMH@pfnWriteString?3?5?$CFs?6?$AA@ 1005511c     engine.obj
 0003:0000a130       ??_C@_0BE@BNPK@pfnWriteEntity?3?5?$CFd?6?$AA@ 10055130     engine.obj
 0003:0000a144       ??_C@_0L@BKDO@?$CDSbar_dead?$AA@ 10055144     engine.obj
 0003:0000a150       ??_C@_0BD@BLDG@?$CDEngineer_building?$AA@ 10055150     engine.obj
 0003:0000a164       ??_C@_0BM@FBGN@models?1autoop?1flashbang?4mdl?$AA@ 10055164     flashbang.obj
 0003:0000a180       ??_C@_0BP@OALJ@?$FLAUTOOP?$FN?5?$CFs?5threw?5a?5Flashbang?6?$AA@ 10055180     flashbang.obj
 0003:0000a1a0       ??_C@_0BM@HGFA@weapons?1concgren_blast1?4wav?$AA@ 100551a0     flashbang.obj
 0003:0000a1bc       ??_C@_0DD@JFKG@You?5must?5specify?5two?5unique?5play@ 100551bc     funcommands.obj
 0003:0000a1f0       ??_C@_0CK@MDBP@Second?5player?5specified?5cannot?5b@ 100551f0     funcommands.obj
 0003:0000a21c       ??_C@_0CJ@HBKM@First?5player?5specified?5cannot?5be@ 1005521c     funcommands.obj
 0003:0000a248       ??_C@_0CA@LCCD@NULL?5Ent?5in?5UTIL_PrecacheOther?6?$AA@ 10055248     funcommands.obj
 0003:0000a268       ??_C@_08PAGC@xen_tree?$AA@ 10055268     funcommands.obj
 0003:0000a274       ??_C@_0L@PEPD@ao_tfc_gun?$AA@ 10055274     funcommands.obj
 0003:0000a280       ??_C@_0L@EKA@item_cells?$AA@ 10055280     funcommands.obj
 0003:0000a28c       ??_C@_0BD@KIEN@monster_miniturret?$AA@ 1005528c     funcommands.obj
 0003:0000a2a0       ??_C@_0P@HKMM@monster_turret?$AA@ 100552a0     funcommands.obj
 0003:0000a2b0       ??_C@_0BL@BPD@item_artifact_invisibility?$AA@ 100552b0     funcommands.obj
 0003:0000a2cc       ??_C@_0P@JEN@xen_plantlight?$AA@ 100552cc     funcommands.obj
 0003:0000a2dc       ??_C@_08NOKB@xen_hair?$AA@ 100552dc     funcommands.obj
 0003:0000a2e8       ??_C@_0BA@DEMC@xen_spore_small?$AA@ 100552e8     funcommands.obj
 0003:0000a2f8       ??_C@_0BB@IIP@xen_spore_medium?$AA@ 100552f8     funcommands.obj
 0003:0000a30c       ??_C@_0BA@EPEK@xen_spore_large?$AA@ 1005530c     funcommands.obj
 0003:0000a31c       ??_C@_0BD@HPGE@sprites?1steam1?4spr?$AA@ 1005531c     funcommands.obj
 0003:0000a330       ??_C@_0M@EHAD@ao_dllsound?$AA@ 10055330     funcommands.obj
 0003:0000a33c       ??_C@_0CP@HCFC@Permlight?$CI?$CJ?3?5Admin?5created?5an?5ao@ 1005533c     funcommands.obj
 0003:0000a36c       ??_C@_0DA@KPLG@DropWeapon?$CI?$CJ?3?5Admin?5dropped?5a?5we@ 1005536c     funcommands.obj
 0003:0000a39c       ??_C@_0BJ@PDGH@models?1autoop?1w_guns?4mdl?$AA@ 1005539c     funcommands.obj
 0003:0000a3b8       ??_C@_0BG@MANB@items?1weapondrop1?4wav?$AA@ 100553b8     funcommands.obj
 0003:0000a3d0       ??_C@_02BMJK@pl?$AA@       100553d0     funcommands.obj
 0003:0000a3d4       ??_C@_07BLEE@railgun?$AA@  100553d4     funcommands.obj
 0003:0000a3dc       ??_C@_05LCIO@tranq?$AA@    100553dc     funcommands.obj
 0003:0000a3e4       ??_C@_02GBME@ac?$AA@       100553e4     funcommands.obj
 0003:0000a3e8       ??_C@_02NEJA@ic?$AA@       100553e8     funcommands.obj
 0003:0000a3ec       ??_C@_0N@BADA@flamethrower?$AA@ 100553ec     funcommands.obj
 0003:0000a3fc       ??_C@_02BHGG@gl?$AA@       100553fc     funcommands.obj
 0003:0000a400       ??_C@_07LEMA@superng?$AA@  10055400     funcommands.obj
 0003:0000a408       ??_C@_02BPJJ@ng?$AA@       10055408     funcommands.obj
 0003:0000a40c       ??_C@_0N@PPGF@supershotgun?$AA@ 1005540c     funcommands.obj
 0003:0000a41c       ??_C@_07LCBO@shotgun?$AA@  1005541c     funcommands.obj
 0003:0000a424       ??_C@_09LCPO@autorifle?$AA@ 10055424     funcommands.obj
 0003:0000a430       ??_C@_0M@IOH@sniperrifle?$AA@ 10055430     funcommands.obj
 0003:0000a43c       ??_C@_03PFKD@rpg?$AA@      1005543c     funcommands.obj
 0003:0000a440       ??_C@_0BK@KJMP@Sensor?5build?5flag?5reset?4?6?$AA@ 10055440     funcommands.obj
 0003:0000a45c       ??_C@_0CC@IINN@?6For?5help?5on?5features?5say?5?$CC?$CBhelp@ 1005545c     generalstuff.obj
 0003:0000a480       ??_C@_0BJ@KBLA@?6GP2?5Anniversary?5Edition?$AA@ 10055480     generalstuff.obj
 0003:0000a49c       ??_C@_0L@CJDC@?5Revision?5?$AA@ 1005549c     generalstuff.obj
 0003:0000a4a8       ??_C@_0CB@OACC@This?5server?5uses?5AutoOP?5Shodan?5v@ 100554a8     generalstuff.obj
 0003:0000a4cc       ??_C@_0M@CKPB@halfwit?4log?$AA@ 100554cc     generalstuff.obj
 0003:0000a4d8       ??_C@_0DN@PDNE@?$CFs?5?$CC?$HM?$HM?$CC?5?$CFs?5?$CC?$HM?$HM?$CC?5?$CFs?5?$CC?$HM?$HM?$CC?5?$CFd?9?$CFd?9?$CFd@ 100554d8     generalstuff.obj
 0003:0000a518       ??_C@_0FE@ECC@halfwit?4dll?3?5?$CI?$CFd?9?$CFd?9?$CFd?5?9?5?$CFd?3?$CFd?3?$CF@ 10055518     generalstuff.obj
 0003:0000a56c       ??_C@_0M@BCMJ@hwiterr?4log?$AA@ 1005556c     generalstuff.obj
 0003:0000a578       ??_C@_0L@CJPA@hwitid?4txt?$AA@ 10055578     generalstuff.obj
 0003:0000a584       ??_C@_01LHO@r?$AA@         10055584     generalstuff.obj
 0003:0000a588       ??_C@_0BK@NKAH@You?5must?5specify?5a?5WONID?6?$AA@ 10055588     generalstuff.obj
 0003:0000a5a4       ??_C@_0BL@MJLE@You?5must?5specify?5a?5WONID?4?6?$AA@ 100555a4     generalstuff.obj
 0003:0000a5c0       ??_C@_0BP@KFNI@Added?5admin?5?$CFs?0?5with?5level?5?$CFs?6?$AA@ 100555c0     generalstuff.obj
 0003:0000a5e0       ??_C@_0CG@PCEN@?$FLAUTOOP?$FN?5?$CFs?5added?5admin?5?$CFs?0?5leve@ 100555e0     generalstuff.obj
 0003:0000a608       ??_C@_0BC@CHCM@Deleted?5admin?5?$CFs?6?$AA@ 10055608     generalstuff.obj
 0003:0000a61c       ??_C@_0BO@BAPP@?$FLAUTOOP?$FN?5?$CFs?5deleted?5admin?5?$CFs?6?$AA@ 1005561c     generalstuff.obj
 0003:0000a63c       ??_C@_0BB@NOLD@models?1hgibs?4mdl?$AA@ 1005563c     generalstuff.obj
 0003:0000a650       ??_C@_0BF@CHLM@common?1bodysplat?4wav?$AA@ 10055650     generalstuff.obj
 0003:0000a668       ??_C@_0ED@DPAI@You?5are?5welcome?5to?5return?5but?5pl@ 10055668     generalstuff.obj
 0003:0000a6ac       ??_C@_0DC@NMOJ@?6?9?9?9?9?9?9?9?9?9?9?9?9?9?9?9?9?9?9?6You?5were?5kic@ 100556ac     generalstuff.obj
 0003:0000a6e0       ??_C@_0L@DEMG@kick?5?$CD?5?$CFi?6?$AA@ 100556e0     generalstuff.obj
 0003:0000a6ec       ??_C@_09HCEC@ScoreInfo?$AA@ 100556ec     generalstuff.obj
 0003:0000a6f8       ?GRAPPLE_DELAY@@3HA        100556f8     grapple.obj
 0003:0000a6fc       ?GRAPPLE_SPEED@@3HA        100556fc     grapple.obj
 0003:0000a700       ??_C@_06EFLB@?9det5?6?$AA@ 10055700     grapple.obj
 0003:0000a708       ??_C@_07GMCJ@?9det50?6?$AA@ 10055708     grapple.obj
 0003:0000a710       ??_C@_07NCEI@?9det20?6?$AA@ 10055710     grapple.obj
 0003:0000a718       ??_C@_07CEHD@?9det10?6?$AA@ 10055718     grapple.obj
 0003:0000a720       ??_C@_0BD@KEGF@models?1caltrop?4mdl?$AA@ 10055720     grapple.obj
 0003:0000a734       ??_C@_0BH@EOBH@weapons?1xbow_fire1?4wav?$AA@ 10055734     grapple.obj
 0003:0000a74c       ??_C@_0BG@NAOD@weapons?1xbow_hit2?4wav?$AA@ 1005574c     grapple.obj
 0003:0000a764       ??_C@_05CKFJ@info_?$AA@    10055764     grapple.obj
 0003:0000a76c       ??_C@_0BA@BIBH@func_nogrenades?$AA@ 1005576c     grapple.obj
 0003:0000a77c       ??_C@_08KIN@trigger_?$AA@  1005577c     grapple.obj
 0003:0000a788       ??_C@_0BB@BJEH@player?1pain2?4wav?$AA@ 10055788     grapple.obj
 0003:0000a79c       ??_C@_0BB@PJCI@player?1pain1?4wav?$AA@ 1005579c     grapple.obj
 0003:0000a7b0       ??_C@_0BO@PJCJ@You?5cannot?5drop?5this?5weapon?4?6?$AA@ 100557b0     gundrop.obj
 0003:0000a7d0       ??_C@_0CO@DOEP@DropGun?$CI?$CJ?3?5Client?5dropped?5a?5weap@ 100557d0     gundrop.obj
 0003:0000a800       ??_C@_0ED@EDAC@tf_weapon_axe?$DLtf_weapon_spanner?$DL@ 10055800     gundrop.obj
 0003:0000a844       ??_C@_0BF@FDHL@items?1gunpickup2?4wav?$AA@ 10055844     gundrop.obj
 0003:0000a85c       ??_C@_0BA@BACA@GiveFnptrsToDll?$AA@ 1005585c     h_export.obj
 0003:0000a86c       ??_C@_0N@DMG@GetEntityAPI?$AA@ 1005586c     h_export.obj
 0003:0000a87c       ??_C@_07NDNK@General?$AA@  1005587c     h_export.obj
 0003:0000a884       ??_C@_07IDMI@gamedll?$AA@  10055884     h_export.obj
 0003:0000a88c       ??_C@_0BB@JIKH@tfc?2dlls?2tfc?4dll?$AA@ 1005588c     h_export.obj
 0003:0000a8a0       ??_C@_03KONO@tfc?$AA@      100558a0     h_export.obj
 0003:0000a8a4       ??_C@_0DE@JABP@Prices?5are?5displayed?5next?5to?5the@ 100558a4     helpsystem.obj
 0003:0000a8d8       ??_C@_0DF@JGNK@Type?5?8buy?8?5in?5the?5console?5to?5bri@ 100558d8     helpsystem.obj
 0003:0000a910       ??_C@_0CM@COPC@All?5item?5buying?5is?5done?5via?5a?5me@ 10055910     helpsystem.obj
 0003:0000a940       ??_C@_0EH@BBGL@Shodan?5Help?5system?5v3?40?5?9?5Item?5b@ 10055940     helpsystem.obj
 0003:0000a988       ??_C@_0EI@GAJO@?6Demomen?5get?52?5packbombs?5per?5lif@ 10055988     helpsystem.obj
 0003:0000a9d0       ??_C@_0CL@PBBE@?6When?5touched?5by?5enemies?5it?5will@ 100559d0     helpsystem.obj
 0003:0000a9fc       ??_C@_0DN@BMPM@?6The?5packbomb?5looks?5almost?5exact@ 100559fc     helpsystem.obj
 0003:0000aa3c       ??_C@_0CN@NDLI@?6Type?5?$CCdroppackbomb?$CC?5to?5deploy?5a@ 10055a3c     helpsystem.obj
 0003:0000aa70       ??_C@_0EF@HDCG@Shodan?5Help?5system?5v3?40?5?9?5Packbo@ 10055a70     helpsystem.obj
 0003:0000aab8       ??_C@_0P@NJDB@?$CBhelp?5packbomb?$AA@ 10055ab8     helpsystem.obj
 0003:0000aac8       ??_C@_0EA@LJHE@?6There?5is?5a?5minimum?515?5second?5de@ 10055ac8     helpsystem.obj
 0003:0000ab08       ??_C@_0EI@KGCO@?6Use?5the?5command?5?$CCkillmessage?$CC?5t@ 10055b08     helpsystem.obj
 0003:0000ab50       ??_C@_0CL@GFJN@?6The?5message?5must?5be?5max?540?5char@ 10055b50     helpsystem.obj
 0003:0000ab80       ??_C@_0EH@HIEF@?6Type?5?$CCdropmessage?5?$DMmessage?$DO?$CC?5in@ 10055b80     helpsystem.obj
 0003:0000abc8       ??_C@_0EJ@JCMA@Shodan?5Help?5system?5v3?40?5?9?5Messag@ 10055bc8     helpsystem.obj
 0003:0000ac14       ??_C@_0P@NIOD@?$CBhelp?5messages?$AA@ 10055c14     helpsystem.obj
 0003:0000ac28       ??_C@_0EI@KLFM@?6When?5stood?5still?5you?5are?5totall@ 10055c28     helpsystem.obj
 0003:0000ac70       ??_C@_0GJ@JKCN@?6When?5in?5stealth?5your?5view?5switc@ 10055c70     helpsystem.obj
 0003:0000acdc       ??_C@_0DF@FDAI@?6Stealth?5drains?52hp?5per?5second?5s@ 10055cdc     helpsystem.obj
 0003:0000ad14       ??_C@_0DK@FOHO@?6Type?5?8stealth?8?5into?5the?5console@ 10055d14     helpsystem.obj
 0003:0000ad50       ??_C@_0EE@DBBJ@Shodan?5Help?5system?5v3?40?5?9?5Stealt@ 10055d50     helpsystem.obj
 0003:0000ad94       ??_C@_0O@ONMA@?$CBhelp?5stealth?$AA@ 10055d94     helpsystem.obj
 0003:0000ada4       ??_C@_0CK@JLLP@?6Costs?530?5armor?5points?5to?5use?5th@ 10055da4     helpsystem.obj
 0003:0000add0       ??_C@_0EM@CPJL@?6Type?5?8sgradar?8?5into?5the?5console@ 10055dd0     helpsystem.obj
 0003:0000ae20       ??_C@_0EF@FPLK@Shodan?5Help?5system?5v3?40?5?9?5SG?5Rad@ 10055e20     helpsystem.obj
 0003:0000ae68       ??_C@_0O@HFHH@?$CBhelp?5sgradar?$AA@ 10055e68     helpsystem.obj
 0003:0000ae78       ??_C@_0EH@EEJP@?6NOTE?3?5As?5the?53rdperson?5is?5serve@ 10055e78     helpsystem.obj
 0003:0000aec0       ??_C@_0DF@CLKG@3rdpersonoff?5?9?5Type?5into?5console@ 10055ec0     helpsystem.obj
 0003:0000aef8       ??_C@_0DH@DEBN@3rdpersonon?5?9?5Type?5into?5console?5@ 10055ef8     helpsystem.obj
 0003:0000af30       ??_C@_0EG@JFGK@You?5can?5activare?5AutoOPs?53rdpers@ 10055f30     helpsystem.obj
 0003:0000af78       ??_C@_0EH@OBKN@Shodan?5Help?5system?5v3?40?5?9?53rd?5Pe@ 10055f78     helpsystem.obj
 0003:0000afc0       ??_C@_0BA@CNM@?$CBhelp?53rdperson?$AA@ 10055fc0     helpsystem.obj
 0003:0000afd0       ??_C@_0FN@GMEO@Other?5commands?3?6disablepm?5?9?5Disa@ 10055fd0     helpsystem.obj
 0003:0000b030       ??_C@_0DL@LCIF@private?5?$DMuser?$DO?5?$DMmessage?$DO?5?$CIrememb@ 10056030     helpsystem.obj
 0003:0000b06c       ??_C@_0CN@II@To?5send?5a?5private?5message?5use?5th@ 1005606c     helpsystem.obj
 0003:0000b0a0       ??_C@_0EO@DHCC@Shodan?5Help?5system?5v3?40?5?9?5Privat@ 100560a0     helpsystem.obj
 0003:0000b0f0       ??_C@_0O@BDBE@?$CBhelp?5private?$AA@ 100560f0     helpsystem.obj
 0003:0000b100       ??_C@_0DF@DDDH@Demomen?5use?5the?5blaster?6Press?56?5@ 10056100     helpsystem.obj
 0003:0000b138       ??_C@_0EE@OJND@Shodan?5Help?5system?5v3?40?5?9?5Blaste@ 10056138     helpsystem.obj
 0003:0000b17c       ??_C@_0O@CHCG@?$CBhelp?5blaster?$AA@ 1005617c     helpsystem.obj
 0003:0000b190       ??_C@_0FD@BGID@When?5you?5drop?5from?5the?5grapple?0?5@ 10056190     helpsystem.obj
 0003:0000b1e8       ??_C@_0FA@PJID@Anyone?5can?5use?5the?5grapple?5hook?6@ 100561e8     helpsystem.obj
 0003:0000b238       ??_C@_0EJ@FJBH@Shodan?5Help?5system?5v3?40?5?9?5Grappl@ 10056238     helpsystem.obj
 0003:0000b284       ??_C@_0O@EBOB@?$CBhelp?5grapple?$AA@ 10056284     helpsystem.obj
 0003:0000b294       ??_C@_0DP@DOMN@The?5energygun?5fires?5a?5green?5ball@ 10056294     helpsystem.obj
 0003:0000b2d4       ??_C@_0DH@DECL@It?5can?5be?5fired?5every?55?5seconds?0@ 100562d4     helpsystem.obj
 0003:0000b30c       ??_C@_0CC@INEJ@Soldiers?5can?5use?5the?5energy?5gun?4@ 1005630c     helpsystem.obj
 0003:0000b330       ??_C@_0EH@JHDK@Shodan?5Help?5system?5v3?40?5?9?5Energy@ 10056330     helpsystem.obj
 0003:0000b378       ??_C@_0BA@EBKD@?$CBhelp?5energygun?$AA@ 10056378     helpsystem.obj
 0003:0000b388       ??_C@_0EJ@MLEH@?6To?5use?5the?5manual?5sentry?5go?5up?5@ 10056388     helpsystem.obj
 0003:0000b3d8       ??_C@_0FP@LFOD@fixturret?5?9?5use?5this?5when?5stood?5@ 100563d8     helpsystem.obj
 0003:0000b438       ??_C@_0DJ@MHOD@Engineers?5commands?3?6buildturret?5@ 10056438     helpsystem.obj
 0003:0000b478       ??_C@_0EA@DEFP@Engineers?5can?5build?5manual?5sentr@ 10056478     helpsystem.obj
 0003:0000b4b8       ??_C@_0EK@JIAD@Shodan?5Help?5system?5v3?40?5?9?5Manual@ 100564b8     helpsystem.obj
 0003:0000b504       ??_C@_0N@HILJ@?$CBhelp?5sentry?$AA@ 10056504     helpsystem.obj
 0003:0000b518       ??_C@_0EA@DDJB@Use?5the?5command?5?$CCdropsnark?$CC?5to?5t@ 10056518     helpsystem.obj
 0003:0000b558       ??_C@_0DI@INNO@Snarks?5can?5be?5deployed?5by?5sniper@ 10056558     helpsystem.obj
 0003:0000b590       ??_C@_0ED@CJFE@Shodan?5Help?5system?5v3?40?5?9?5Snarks@ 10056590     helpsystem.obj
 0003:0000b5d4       ??_C@_0N@GNGE@?$CBhelp?5snarks?$AA@ 100565d4     helpsystem.obj
 0003:0000b5e8       ??_C@_0EA@NDJE@Use?5the?5command?5?$CCplaceflag?$CC?5to?5d@ 100565e8     helpsystem.obj
 0003:0000b628       ??_C@_0EA@FBOE@Mediflags?5can?5be?5placed?5by?5medic@ 10056628     helpsystem.obj
 0003:0000b668       ??_C@_0EF@MDIJ@Shodan?5Help?5system?5v3?40?5?9?5MediFl@ 10056668     helpsystem.obj
 0003:0000b6b0       ??_C@_0P@OMAC@?$CBhelp?5mediflag?$AA@ 100566b0     helpsystem.obj
 0003:0000b6c0       ??_C@_0DA@KEID@detonation?5delay?5?$CIin?5seconds?$CJ?4?5e@ 100566c0     helpsystem.obj
 0003:0000b6f0       ??_C@_0DH@FIAB@Optionally?0?5the?5placec4?5command?5@ 100566f0     helpsystem.obj
 0003:0000b728       ??_C@_0FG@KGIC@The?5console?5command?5to?5deploy?5a?5@ 10056728     helpsystem.obj
 0003:0000b780       ??_C@_0CG@MIPB@C4?5can?5only?5be?5placed?5on?5flat?5wa@ 10056780     helpsystem.obj
 0003:0000b7a8       ??_C@_0BL@POKG@C4?5can?5be?5used?5by?5medics?4?6?$AA@ 100567a8     helpsystem.obj
 0003:0000b7c4       ??_C@_0DP@IMEP@Shodan?5Help?5system?5v3?40?5?9?5C4?5Hel@ 100567c4     helpsystem.obj
 0003:0000b804       ??_C@_08CBBG@?$CBhelp?5c4?$AA@ 10056804     helpsystem.obj
 0003:0000b810       ??_C@_0DI@NCJE@The?5console?5command?5to?5deploy?5a?5@ 10056810     helpsystem.obj
 0003:0000b848       ??_C@_0EP@BNNO@Tripmines?5can?5only?5be?5placed?5on?5@ 10056848     helpsystem.obj
 0003:0000b898       ??_C@_0CD@MCCB@Tripmines?5can?5be?5used?5by?5Soldier@ 10056898     helpsystem.obj
 0003:0000b8c0       ??_C@_0EF@PGFG@Shodan?5Help?5system?5v3?40?5?9?5Tripmi@ 100568c0     helpsystem.obj
 0003:0000b908       ??_C@_0P@FEHN@?$CBhelp?5tripmine?$AA@ 10056908     helpsystem.obj
 0003:0000b918       ??_C@_0EJ@JIPE@Bind?5?$CLsuperflame?5to?5a?5key?0?5and?5p@ 10056918     helpsystem.obj
 0003:0000b964       ??_C@_0CN@LKHF@A?5Superflame?5muct?5be?5charged?5for@ 10056964     helpsystem.obj
 0003:0000b994       ??_C@_0CC@KBHE@Superflames?5can?5be?5used?5by?5Pyros@ 10056994     helpsystem.obj
 0003:0000b9b8       ??_C@_0EH@GNAL@Shodan?5Help?5system?5v3?40?5?9?5Superf@ 100569b8     helpsystem.obj
 0003:0000ba00       ??_C@_0BB@MFNJ@?$CBhelp?5superflame?$AA@ 10056a00     helpsystem.obj
 0003:0000ba14       ??_C@_0DC@JBEH@A?5Demoman?5cannot?5move?5when?5armin@ 10056a14     helpsystem.obj
 0003:0000ba48       ??_C@_0FO@DJKF@?$CIDEMOMAN?$CJ?5?$CLairstrike?5?9?5Bind?5to?5a@ 10056a48     helpsystem.obj
 0003:0000baa8       ??_C@_0EJ@LJHE@?$CISCOUT?$CJ?5placemarker?5?9?5Places?5the@ 10056aa8     helpsystem.obj
 0003:0000baf8       ??_C@_0EC@NHG@Use?5the?5following?5console?5comman@ 10056af8     helpsystem.obj
 0003:0000bb3c       ??_C@_0CF@OILL@A?5Demoman?5must?5launch?5the?5airstr@ 10056b3c     helpsystem.obj
 0003:0000bb64       ??_C@_0CJ@FNDJ@Airstrike?5markers?5must?5be?5set?5by@ 10056b64     helpsystem.obj
 0003:0000bb90       ??_C@_0EG@LMJP@Shodan?5Help?5system?5v3?40?5?9?5Airstr@ 10056b90     helpsystem.obj
 0003:0000bbd8       ??_C@_0BA@NNMF@?$CBhelp?5airstrike?$AA@ 10056bd8     helpsystem.obj
 0003:0000bbe8       ??_C@_0DA@HAEB@Mines?5are?5triggered?5by?5sensing?5n@ 10056be8     helpsystem.obj
 0003:0000bc18       ??_C@_0CF@LPED@dropmine?5?9?5Drops?5a?5proximity?5min@ 10056c18     helpsystem.obj
 0003:0000bc40       ??_C@_0EA@OLFL@Use?5the?5following?5console?5comman@ 10056c40     helpsystem.obj
 0003:0000bc80       ??_C@_0DN@KFMB@You?5get?52?5mines?5per?5life?0?5mines?5@ 10056c80     helpsystem.obj
 0003:0000bcc0       ??_C@_0CK@NBFH@Proximity?5mines?5can?5be?5dropped?5b@ 10056cc0     helpsystem.obj
 0003:0000bcf0       ??_C@_0EH@GHBK@Shodan?5Help?5system?5v3?40?5?9?5Prox?4?5@ 10056cf0     helpsystem.obj
 0003:0000bd38       ??_C@_0L@KLGF@?$CBhelp?5prox?$AA@ 10056d38     helpsystem.obj
 0003:0000bd48       ??_C@_0EL@HGNB@?6If?5another?5engineer?5builds?5near@ 10056d48     helpsystem.obj
 0003:0000bd98       ??_C@_0EL@BDGB@buildsensor?5?9?5builds?5a?5sensor?5po@ 10056d98     helpsystem.obj
 0003:0000bde8       ??_C@_0EJ@DFEA@Use?5the?5following?5console?5comman@ 10056de8     helpsystem.obj
 0003:0000be38       ??_C@_0GL@NMPF@2?5or?5more?5sensors?5must?5join?5up?5t@ 10056e38     helpsystem.obj
 0003:0000bea4       ??_C@_0CI@KJEH@Sensor?5posts?5can?5be?5built?5by?5eng@ 10056ea4     helpsystem.obj
 0003:0000bed0       ??_C@_0EJ@HEOK@Shodan?5Help?5system?5v3?40?5?9?5Sensor@ 10056ed0     helpsystem.obj
 0003:0000bf1c       ??_C@_0O@FPBH@?$CBhelp?5sensors?$AA@ 10056f1c     helpsystem.obj
 0003:0000bf2c       ??_C@_0DD@KJHN@uk?5?9?5United?5Kingdom?5flag?6usa?5?9?5U@ 10056f2c     helpsystem.obj
 0003:0000bf60       ??_C@_0DO@MPJJ@infected?5?9?5Warn?5teammates?5you?5ha@ 10056f60     helpsystem.obj
 0003:0000bfa0       ??_C@_0DM@JOFI@disabled?5?9?5Use?5if?5you?5have?5foot?5@ 10056fa0     helpsystem.obj
 0003:0000bfdc       ??_C@_0DE@JNBK@idea?5?9?5Light?5bulb?5above?5your?5hea@ 10056fdc     helpsystem.obj
 0003:0000c010       ??_C@_0CP@NCLE@sad?5?9?5Sad?5smiley?5Icon?6fix?5?9?5Need@ 10057010     helpsystem.obj
 0003:0000c040       ??_C@_0DF@LNDE@armour?5?9?5Need?5armour?5icon?6happy?5@ 10057040     helpsystem.obj
 0003:0000c078       ??_C@_0DI@POCA@suprise?5?9?5Exclaimation?5mark?5icon@ 10057078     helpsystem.obj
 0003:0000c0b0       ??_C@_0FC@LHPC@i?4e?5?$CCicon?5happy?$CC?5for?5the?5happy?5i@ 100570b0     helpsystem.obj
 0003:0000c108       ??_C@_0EG@LFOB@In?5the?5console?5type?5?$CCicon?$CC?5follo@ 10057108     helpsystem.obj
 0003:0000c150       ??_C@_0DG@CNAO@Use?5the?5new?5icons?5to?5communicate@ 10057150     helpsystem.obj
 0003:0000c188       ??_C@_0EC@HKBA@Shodan?5Help?5system?5v3?40?5?9?5Icons?5@ 10057188     helpsystem.obj
 0003:0000c1cc       ??_C@_0M@FADN@?$CBhelp?5icons?$AA@ 100571cc     helpsystem.obj
 0003:0000c1d8       ??_C@_0DF@FGGE@57?5?9?5Daffy?5Duck?658?5?9?5EVA?6?$CK59?5?9?5M@ 100571d8     helpsystem.obj
 0003:0000c210       ??_C@_0CO@IDIF@54?5?9?5Thor?6?$CK55?5?9?5Chris?5Redfield?65@ 10057210     helpsystem.obj
 0003:0000c240       ??_C@_0DL@EHDI@50?5?9?5Dunbine?651?5?9?5KitKat?652?5?9?5Mi@ 10057240     helpsystem.obj
 0003:0000c27c       ??_C@_0DD@KIJM@46?5?9?57?5of?59?647?5?9?5Bad?9Day?648?5?9?5Be@ 1005727c     helpsystem.obj
 0003:0000c2b0       ??_C@_0DA@FCHN@43?5?9?5Limp?5Bizkit?6?$CK44?5?9?5Solid?5Sna@ 100572b0     helpsystem.obj
 0003:0000c2e0       ??_C@_0DI@PBAD@39?5?9?5Spawn?640?5?9?5the?5Fist?641?5?9?5Ti@ 100572e0     helpsystem.obj
 0003:0000c318       ??_C@_0CD@GFFO@36?5?9?5OBI?507?637?5?9?5Quake?638?5?9?5Slav@ 10057318     helpsystem.obj
 0003:0000c33c       ??_C@_0CK@EAAK@33?5?9?5Scorpion?634?5?9?5Sniper?5Wolf?63@ 1005733c     helpsystem.obj
 0003:0000c368       ??_C@_0CK@KBLL@30?5?9?5Slim?5Shady?631?5?9?5Bender?632?5?9@ 10057368     helpsystem.obj
 0003:0000c394       ??_C@_0BI@BDM@28?5?9?5Baboon?629?5?9?5Hanky?6?$AA@ 10057394     helpsystem.obj
 0003:0000c3ac       ??_C@_0CF@KLOG@25?5?9?5Box?626?5?9?5Wolverine?627?5?9?5Rab@ 100573ac     helpsystem.obj
 0003:0000c3d4       ??_C@_0CC@IMFI@?$CK22?5?9?5Nude?623?5?9?5Yoda?624?5?9?5Kermit@ 100573d4     helpsystem.obj
 0003:0000c3f8       ??_C@_0CL@EAGC@19?5?9?5Reaper?620?5?9?5Trekker?621?5?9?5Ju@ 100573f8     helpsystem.obj
 0003:0000c424       ??_C@_0CL@JHPK@16?5?9?5Dispenser?6?$CK17?5?9?5RoboRob?618?5@ 10057424     helpsystem.obj
 0003:0000c450       ??_C@_0CK@FDI@13?5?9?5Barney?614?5?9?5Xen?5Tree?615?5?9?5S@ 10057450     helpsystem.obj
 0003:0000c47c       ??_C@_0CN@NMDN@10?5?9?5Superman?611?5?9?5Quake2?5Marine@ 1005747c     helpsystem.obj
 0003:0000c4ac       ??_C@_0CD@LEAH@7?5?9?5Alien?68?5?9?5Santa?69?5?9?5SpiderMa@ 100574ac     helpsystem.obj
 0003:0000c4d0       ??_C@_0DH@KBHK@3?5?9?5Barnes?64?5?9?5Toothpaste?65?5?9?5Sk@ 100574d0     helpsystem.obj
 0003:0000c508       ??_C@_0EE@LLNJ@A?5?8?$CK?8?5ondicates?5Admin?5Only?5skin?6@ 10057508     helpsystem.obj
 0003:0000c550       ??_C@_0EP@FFIJ@Use?5the?5?8currentskin?8?5console?5co@ 10057550     helpsystem.obj
 0003:0000c5a0       ??_C@_0DK@OPNN@To?5Take?5off?5your?5skin?5use?5the?5?8k@ 100575a0     helpsystem.obj
 0003:0000c5e0       ??_C@_0EO@MBPP@Heres?5the?5current?5GP2?5Skins?5list@ 100575e0     helpsystem.obj
 0003:0000c630       ??_C@_0EC@DBAA@Shodan?5Help?5system?5v3?40?5?9?5Skins?5@ 10057630     helpsystem.obj
 0003:0000c674       ??_C@_0M@NFOP@?$CBhelp?5skins?$AA@ 10057674     helpsystem.obj
 0003:0000c680       ??_C@_0DE@FDGP@and?5hold?5it?5down?5and?5speak?5to?5se@ 10057680     helpsystem.obj
 0003:0000c6b4       ??_C@_0DG@GNCI@If?5you?5have?5a?5microphone?0?5bind?5a@ 100576b4     helpsystem.obj
 0003:0000c6f0       ??_C@_0EH@HMFA@Shodan?5Help?5system?5v3?40?5?9?5Speech@ 100576f0     helpsystem.obj
 0003:0000c738       ??_C@_0N@BDKC@?$CBhelp?5speech?$AA@ 10057738     helpsystem.obj
 0003:0000c748       ??_C@_0BP@FJAH@You?5get?52?5Flashbangs?5per?5life?4?$AA@ 10057748     helpsystem.obj
 0003:0000c768       ??_C@_0EL@DCO@bind?5a?5key?5to?5?$CCflashbang?$CC?5to?5use@ 10057768     helpsystem.obj
 0003:0000c7b8       ??_C@_0EC@ILFC@The?5flashbang?5is?5designed?5to?5be?5@ 100577b8     helpsystem.obj
 0003:0000c800       ??_C@_0EJ@HEAD@Shodan?5Help?5system?5v3?40?5?9?5FlashB@ 10057800     helpsystem.obj
 0003:0000c84c       ??_C@_0BA@DPBN@?$CBhelp?5flashbang?$AA@ 1005784c     helpsystem.obj
 0003:0000c85c       ??_C@_0CO@DILF@KnightHawk?5?9?5Mail?3?5knighthawktfc@ 1005785c     helpsystem.obj
 0003:0000c88c       ??_C@_0DE@FOMH@Rob?5?9?5Mail?3?5rob?$EAplanetfortress?4c@ 1005788c     helpsystem.obj
 0003:0000c8c0       ??_C@_0DE@IJHE@Here?5is?5a?5contact?5list?5for?5main?5@ 100578c0     helpsystem.obj
 0003:0000c8f8       ??_C@_0EK@EEPJ@Shodan?5Help?5system?5v3?40?5?9?5Server@ 100578f8     helpsystem.obj
 0003:0000c944       ??_C@_0O@JPJG@?$CBhelp?5contact?$AA@ 10057944     helpsystem.obj
 0003:0000c958       ??_C@_0HB@MAOH@time?5?$DMplayer?$DO?5?9?5Tells?5you?5how?5lo@ 10057958     helpsystem.obj
 0003:0000c9d0       ??_C@_0HH@HOMB@?$CIIN?5CONSOLE?$CJ?5applyskin?5?$DMcode?$DO?5?9?5@ 100579d0     helpsystem.obj
 0003:0000ca48       ??_C@_0FO@MLOB@jess?5make?5me?5civilian?5?9?5makes?5yo@ 10057a48     helpsystem.obj
 0003:0000caa8       ??_C@_0DA@BOF@Use?5these?5commands?5in?5the?5server@ 10057aa8     helpsystem.obj
 0003:0000cad8       ??_C@_0FF@NOMJ@Shodan?5Help?5system?5v3?40?5?9?5Inform@ 10057ad8     helpsystem.obj
 0003:0000cb30       ??_C@_0P@JNJM@?$CBhelp?5commands?$AA@ 10057b30     helpsystem.obj
 0003:0000cb40       ??_C@_0DP@MNKB@Scout?5raper?6Cleaner?6Llama?5Elimin@ 10057b40     helpsystem.obj
 0003:0000cb80       ??_C@_0ED@GOPN@Lord?5Of?5Death?6Excellence?6Prez?5Bo@ 10057b80     helpsystem.obj
 0003:0000cbc4       ??_C@_0DP@PFAL@N00bie?6Greenhorn?61337?5Warrior?6Be@ 10057bc4     helpsystem.obj
 0003:0000cc04       ??_C@_0DP@FGHN@Below?5is?5a?5list?5of?5ranks?5in?5the?5@ 10057c04     helpsystem.obj
 0003:0000cc48       ??_C@_0FJ@KECK@To?5see?5how?5many?5credits?5a?5player@ 10057c48     helpsystem.obj
 0003:0000cca4       ??_C@_0DO@CNJD@Ranks?5show?5your?5progress?5you?5hav@ 10057ca4     helpsystem.obj
 0003:0000cce8       ??_C@_0EA@KBJB@Shodan?5Help?5system?5v3?40?5?9?5Rank?5L@ 10057ce8     helpsystem.obj
 0003:0000cd28       ??_C@_0L@HGPD@?$CBhelp?5rank?$AA@ 10057d28     helpsystem.obj
 0003:0000cd34       ??_C@_09DPEH@?$CBhelp?5buy?$AA@ 10057d34     helpsystem.obj
 0003:0000cd40       ??_C@_0N@DGKP@?$CBhelp?5buying?$AA@ 10057d40     helpsystem.obj
 0003:0000cd50       ??_C@_0CG@GLGM@You?5get?51?5credit?5for?5every?510?5fr@ 10057d50     helpsystem.obj
 0003:0000cd78       ??_C@_0EK@PEBF@use?5the?5command?5givecredits?5?$DMpla@ 10057d78     helpsystem.obj
 0003:0000cdc8       ??_C@_0HB@DHOF@When?5you?5leave?5the?5server?5you?5cr@ 10057dc8     helpsystem.obj
 0003:0000ce40       ??_C@_0FK@OGAI@As?5you?5play?5on?5the?5server?5you?5ga@ 10057e40     helpsystem.obj
 0003:0000cea0       ??_C@_0EE@JCNC@Shodan?5Help?5system?5v3?40?5?9?5Credit@ 10057ea0     helpsystem.obj
 0003:0000cee4       ??_C@_0O@NBHN@?$CBhelp?5credits?$AA@ 10057ee4     helpsystem.obj
 0003:0000cef4       ??_C@_0CP@JHKB@?6?6FOR?5MORE?5DETAILS?5SEE?5www?4girlp@ 10057ef4     helpsystem.obj
 0003:0000cf24       ??_C@_0CF@LCKH@?6?$CBhelp?5packbomb?5?9?5Demomans?5packb@ 10057f24     helpsystem.obj
 0003:0000cf50       ??_C@_0FC@HIKI@?6?$CBhelp?5stealth?5?9?5Spies?5stealth?5c@ 10057f50     helpsystem.obj
 0003:0000cfa8       ??_C@_0FI@DHMN@?6?$CBhelp?53rdperson?5?9?5How?5to?5activa@ 10057fa8     helpsystem.obj
 0003:0000d000       ??_C@_0FK@JNEG@?$CBhelp?5blaster?5?9?5help?5with?5demoma@ 10058000     helpsystem.obj
 0003:0000d060       ??_C@_0FO@LIJ@?$CBhelp?5sentry?5?9?5help?5with?5the?5man@ 10058060     helpsystem.obj
 0003:0000d0c0       ??_C@_0EN@KPPN@?$CBhelp?5prox?5?9?5help?5with?5the?5proxi@ 100580c0     helpsystem.obj
 0003:0000d110       ??_C@_0FC@MOKK@?$CBhelp?5snarks?5?9?5help?5with?5the?5sni@ 10058110     helpsystem.obj
 0003:0000d168       ??_C@_0FA@BPMB@?$CBhelp?5c4?5?9?5help?5with?5the?5medics?5@ 10058168     helpsystem.obj
 0003:0000d1b8       ??_C@_0FP@JGKG@?$CBhelp?5superflame?5?9?5help?5with?5the@ 100581b8     helpsystem.obj
 0003:0000d218       ??_C@_0FE@KPIL@?$CBhelp?5icons?5?9?5Information?5on?5the@ 10058218     helpsystem.obj
 0003:0000d270       ??_C@_0EG@OPGH@?$CBhelp?5speech?5?9?5Speech?5commands?6?$CB@ 10058270     helpsystem.obj
 0003:0000d2b8       ??_C@_0CM@DGBH@?$CBhelp?5flashbang?5?9?5Help?5with?5scou@ 100582b8     helpsystem.obj
 0003:0000d2e8       ??_C@_0EP@NCCK@?$CBhelp?5commands?5?9?5other?5commands?5@ 100582e8     helpsystem.obj
 0003:0000d338       ??_C@_0EI@KGHN@?$CBhelp?5buying?5?9?5info?5on?5the?5buyin@ 10058338     helpsystem.obj
 0003:0000d380       ??_C@_0EC@HFOM@?$CBhelp?5credits?5?9?5info?5on?5the?5cred@ 10058380     helpsystem.obj
 0003:0000d3c4       ??_C@_0DE@MMEM@Say?5the?5following?5in?5game?5for?5he@ 100583c4     helpsystem.obj
 0003:0000d3f8       ??_C@_0EE@PGEO@Shodan?5Help?5system?5v3?41?5?9?5Help?5c@ 100583f8     helpsystem.obj
 0003:0000d43c       ??_C@_04PAEL@MOTD?$AA@     1005843c     helpsystem.obj
 0003:0000d444       ??_C@_0BE@GGO@buttons?1button9?4wav?$AA@ 10058444     holoduke.obj
 0003:0000d458       ??_C@_0N@BJPC@ao_holosnipe?$AA@ 10058458     holoduke.obj
 0003:0000d468       ??_C@_0CE@MEGK@SG?5Radar?5requires?530?5armor?5point@ 10058468     hwradar.obj
 0003:0000d48c       ??_C@_0BN@GMEE@No?5sentryguns?5in?5this?5area?4?6?$AA@ 1005848c     hwradar.obj
 0003:0000d4ac       ??_C@_0BK@MMPL@sprites?1autoop?1canada?4spr?$AA@ 100584ac     icons.obj
 0003:0000d4c8       ??_C@_06CJAO@canada?$AA@   100584c8     icons.obj
 0003:0000d4d0       ??_C@_0BH@HNB@sprites?1autoop?1usa?4spr?$AA@ 100584d0     icons.obj
 0003:0000d4e8       ??_C@_03IPEP@usa?$AA@      100584e8     icons.obj
 0003:0000d4ec       ??_C@_0BG@GIDO@sprites?1autoop?1uk?4spr?$AA@ 100584ec     icons.obj
 0003:0000d504       ??_C@_02FHP@uk?$AA@        10058504     icons.obj
 0003:0000d508       ??_C@_0BM@CAKM@sprites?1autoop?1infected?4spr?$AA@ 10058508     icons.obj
 0003:0000d524       ??_C@_08DOFH@infected?$AA@ 10058524     icons.obj
 0003:0000d530       ??_C@_0BL@NLA@sprites?1autoop?1germany?4spr?$AA@ 10058530     icons.obj
 0003:0000d54c       ??_C@_06IAFA@german?$AA@   1005854c     icons.obj
 0003:0000d554       ??_C@_0BM@JAAB@sprites?1autoop?1disabled?4spr?$AA@ 10058554     icons.obj
 0003:0000d570       ??_C@_08FDGF@disabled?$AA@ 10058570     icons.obj
 0003:0000d57c       ??_C@_0BI@BMG@sprites?1autoop?1coke?4spr?$AA@ 1005857c     icons.obj
 0003:0000d594       ??_C@_04HOCN@coke?$AA@     10058594     icons.obj
 0003:0000d59c       ??_C@_0BI@BKO@sprites?1autoop?1bulb?4spr?$AA@ 1005859c     icons.obj
 0003:0000d5b4       ??_C@_04BAGA@idea?$AA@     100585b4     icons.obj
 0003:0000d5bc       ??_C@_0BJ@GKLE@sprites?1autoop?1fixit?4spr?$AA@ 100585bc     icons.obj
 0003:0000d5d8       ??_C@_03PNOJ@fix?$AA@      100585d8     icons.obj
 0003:0000d5dc       ??_C@_0BH@LBFO@sprites?1autoop?1sad?4spr?$AA@ 100585dc     icons.obj
 0003:0000d5f4       ??_C@_03CEAP@sad?$AA@      100585f4     icons.obj
 0003:0000d5f8       ??_C@_0BK@KFMG@sprites?1autoop?1smiley?4spr?$AA@ 100585f8     icons.obj
 0003:0000d614       ??_C@_05IEHF@happy?$AA@    10058614     icons.obj
 0003:0000d61c       ??_C@_06GJJG@smiley?$AA@   1005861c     icons.obj
 0003:0000d624       ??_C@_0BK@NHBO@sprites?1autoop?1armour?4spr?$AA@ 10058624     icons.obj
 0003:0000d640       ??_C@_05KBJH@armor?$AA@    10058640     icons.obj
 0003:0000d648       ??_C@_0BI@PABA@sprites?1autoop?1ammo?4spr?$AA@ 10058648     icons.obj
 0003:0000d660       ??_C@_04OGMN@ammo?$AA@     10058660     icons.obj
 0003:0000d668       ??_C@_0BP@DEHC@sprites?1autoop?1exclamation?4spr?$AA@ 10058668     icons.obj
 0003:0000d688       ??_C@_07JKGI@suprise?$AA@  10058688     icons.obj
 0003:0000d690       ?MAX_USERMSG@@3HA          10058690     inisettings.obj
 0003:0000d694       ?ICON_DELAY@@3HA           10058694     inisettings.obj
 0003:0000d698       ?KEEP_CLEAR@@3HA           10058698     inisettings.obj
 0003:0000d69c       ?CREDIT_GAP@@3HA           1005869c     inisettings.obj
 0003:0000d6a0       ?GUN_RESPAWN_DELAY@@3HA    100586a0     inisettings.obj
 0003:0000d6a4       ?GRAPPLE_DROPTIME@@3HA     100586a4     inisettings.obj
 0003:0000d6a8       ?GRAPPLE_HEALTH@@3HA       100586a8     inisettings.obj
 0003:0000d6ac       ?FENCEPOST_HEALTH@@3HA     100586ac     inisettings.obj
 0003:0000d6b0       ?FENCEPOST_FIX_REQ@@3HA    100586b0     inisettings.obj
 0003:0000d6b4       ?BIGGUN_REQUIRED@@3HA      100586b4     inisettings.obj
 0003:0000d6b8       ?BIGGUN_FIX_REQ@@3HA       100586b8     inisettings.obj
 0003:0000d6bc       ?BIGGUN_HEALTH@@3HA        100586bc     inisettings.obj
 0003:0000d6c0       ?AIRSTRIKE_RANDOMNESS@@3HA 100586c0     inisettings.obj
 0003:0000d6c4       ?AIRSTRIKE_CHARGE_TIME@@3HA 100586c4     inisettings.obj
 0003:0000d6c8       ?AIRSTRIKE_AMOUNT@@3HA     100586c8     inisettings.obj
 0003:0000d6cc       ?SUPERFLAME_CHARGE_TIME@@3HA 100586cc     inisettings.obj
 0003:0000d6d0       ?TRIPMINE_HEALTH@@3HA      100586d0     inisettings.obj
 0003:0000d6d4       ?TRIPMINE_DAMAGE@@3HA      100586d4     inisettings.obj
 0003:0000d6d8       ?C4_HEALTH@@3HA            100586d8     inisettings.obj
 0003:0000d6dc       ?C4_DETDELAY@@3MA          100586dc     inisettings.obj
 0003:0000d6e0       ?MEDI_FLAG_HEALTH@@3HA     100586e0     inisettings.obj
 0003:0000d6e4       ?MEDI_FLAG_RADIUS@@3HA     100586e4     inisettings.obj
 0003:0000d6e8       ?STEALTH_DRAIN@@3HA        100586e8     inisettings.obj
 0003:0000d6ec       ?SNARK_HEALTH@@3HA         100586ec     inisettings.obj
 0003:0000d6f0       ?ENERGY_BALL_SPEED@@3HA    100586f0     inisettings.obj
 0003:0000d6f4       ?ENERGY_AMMO@@3HA          100586f4     inisettings.obj
 0003:0000d6f8       ?ENERGY_DELAY@@3HA         100586f8     inisettings.obj
 0003:0000d6fc       ?TAZAR_DELAY@@3HA          100586fc     inisettings.obj
 0003:0000d700       ?TAZAR_DAMAGE@@3HA         10058700     inisettings.obj
 0003:0000d704       ?TRIPMINE_DELAY@@3MA       10058704     inisettings.obj
 0003:0000d708       ?ANTHRAX_DELAY@@3HA        10058708     inisettings.obj
 0003:0000d70c       ?ANTHRAX_AMMO@@3HA         1005870c     inisettings.obj
 0003:0000d710       ?ANTHRAX_DAMAGE@@3HA       10058710     inisettings.obj
 0003:0000d714       ?PROX_MINE_AMMO@@3HA       10058714     inisettings.obj
 0003:0000d718       ?TRIPMINE_AMMO@@3HA        10058718     inisettings.obj
 0003:0000d71c       ?TRIPMINE_MAX@@3HA         1005871c     inisettings.obj
 0003:0000d720       ?C4_AMMO@@3HA              10058720     inisettings.obj
 0003:0000d724       ?SNARK_AMMO@@3HA           10058724     inisettings.obj
 0003:0000d728       ??_C@_0DD@EICG@?$FLAUTOOP?$FN?5shodan?4ini?5found?5?9?5load@ 10058728     inisettings.obj
 0003:0000d75c       ??_C@_0M@LFD@sknocurrent?$AA@ 1005875c     inisettings.obj
 0003:0000d768       ??_C@_09FFKJ@skcurrent?$AA@ 10058768     inisettings.obj
 0003:0000d774       ??_C@_09JEMA@skremoved?$AA@ 10058774     inisettings.obj
 0003:0000d780       ??_C@_0N@PLMO@skfatalerror?$AA@ 10058780     inisettings.obj
 0003:0000d790       ??_C@_09NEIB@skapplied?$AA@ 10058790     inisettings.obj
 0003:0000d79c       ??_C@_0L@LJCF@sknoaccess?$AA@ 1005879c     inisettings.obj
 0003:0000d7a8       ??_C@_0M@NCOM@sknosnipers?$AA@ 100587a8     inisettings.obj
 0003:0000d7b4       ??_C@_0M@CKJM@kvcantstart?$AA@ 100587b4     inisettings.obj
 0003:0000d7c0       ??_C@_09KPIJ@kvvoteend?$AA@ 100587c0     inisettings.obj
 0003:0000d7cc       ??_C@_08NBNG@kvvoteno?$AA@ 100587cc     inisettings.obj
 0003:0000d7d8       ??_C@_09CEDC@kvvoteyes?$AA@ 100587d8     inisettings.obj
 0003:0000d7e4       ??_C@_0M@DLJL@kvvotestart?$AA@ 100587e4     inisettings.obj
 0003:0000d7f0       ??_C@_0P@KMPG@notenoughvotes?$AA@ 100587f0     inisettings.obj
 0003:0000d800       ??_C@_09EACE@cancelled?$AA@ 10058800     inisettings.obj
 0003:0000d80c       ??_C@_08HPGM@nowinner?$AA@ 1005880c     inisettings.obj
 0003:0000d818       ??_C@_09JAOJ@mapwinner?$AA@ 10058818     inisettings.obj
 0003:0000d824       ??_C@_0L@DDEM@extendlead?$AA@ 10058824     inisettings.obj
 0003:0000d830       ??_C@_09JJGC@extendwin?$AA@ 10058830     inisettings.obj
 0003:0000d83c       ??_C@_07KAKM@novotes?$AA@  1005883c     inisettings.obj
 0003:0000d844       ??_C@_0N@JBFJ@mapstartfail?$AA@ 10058844     inisettings.obj
 0003:0000d854       ??_C@_0M@ELIH@mapvotecast?$AA@ 10058854     inisettings.obj
 0003:0000d860       ??_C@_0L@OFCM@removevote?$AA@ 10058860     inisettings.obj
 0003:0000d86c       ??_C@_06JKCC@mapmax?$AA@   1005886c     inisettings.obj
 0003:0000d874       ??_C@_0M@IEBA@mapnotfound?$AA@ 10058874     inisettings.obj
 0003:0000d880       ??_C@_0O@EPGC@alreadyvoting?$AA@ 10058880     inisettings.obj
 0003:0000d890       ??_C@_07EME@nocheat?$AA@   10058890     inisettings.obj
 0003:0000d898       ??_C@_08FCAL@noaccess?$AA@ 10058898     inisettings.obj
 0003:0000d8a4       ??_C@_0L@IALK@badcommand?$AA@ 100588a4     inisettings.obj
 0003:0000d8b0       ??_C@_04OIAL@spam?$AA@     100588b0     inisettings.obj
 0003:0000d8b8       ??_C@_0L@BJJE@clientpack?$AA@ 100588b8     inisettings.obj
 0003:0000d8c4       ??_C@_09LIMA@snarkammo?$AA@ 100588c4     inisettings.obj
 0003:0000d8d0       ??_C@_06CEK@c4ammo?$AA@    100588d0     inisettings.obj
 0003:0000d8d8       ??_C@_0M@EDNC@tripminemax?$AA@ 100588d8     inisettings.obj
 0003:0000d8e4       ??_C@_0N@OKKA@tripmineammo?$AA@ 100588e4     inisettings.obj
 0003:0000d8f4       ??_C@_0N@GPMG@proxmineammo?$AA@ 100588f4     inisettings.obj
 0003:0000d904       ??_C@_0O@NLPH@blasterdamage?$AA@ 10058904     inisettings.obj
 0003:0000d914       ??_C@_0M@LBKN@blasterammo?$AA@ 10058914     inisettings.obj
 0003:0000d920       ??_C@_0N@NJFD@blasterdelay?$AA@ 10058920     inisettings.obj
 0003:0000d930       ??_C@_0O@LEAI@tripminedelay?$AA@ 10058930     inisettings.obj
 0003:0000d940       ??_C@_0M@KEEA@tazardamage?$AA@ 10058940     inisettings.obj
 0003:0000d94c       ??_C@_0L@GOAF@tazardelay?$AA@ 1005894c     inisettings.obj
 0003:0000d958       ??_C@_0P@NKNN@energygundelay?$AA@ 10058958     inisettings.obj
 0003:0000d968       ??_C@_0L@CFKF@energyammo?$AA@ 10058968     inisettings.obj
 0003:0000d974       ??_C@_0BA@FLMJ@energyballspeed?$AA@ 10058974     inisettings.obj
 0003:0000d984       ??_C@_0M@DCEB@snarkhealth?$AA@ 10058984     inisettings.obj
 0003:0000d990       ??_C@_0N@LNDO@stealthdrain?$AA@ 10058990     inisettings.obj
 0003:0000d9a0       ??_C@_0P@OFHB@mediflagradius?$AA@ 100589a0     inisettings.obj
 0003:0000d9b0       ??_C@_0P@HCK@mediflaghealth?$AA@ 100589b0     inisettings.obj
 0003:0000d9c0       ??_C@_0L@PEGD@c4detdelay?$AA@ 100589c0     inisettings.obj
 0003:0000d9cc       ??_C@_03NNAL@1?45?$AA@     100589cc     inisettings.obj
 0003:0000d9d0       ??_C@_08CDJH@c4health?$AA@ 100589d0     inisettings.obj
 0003:0000d9dc       ??_C@_0P@CJJK@tripminedamage?$AA@ 100589dc     inisettings.obj
 0003:0000d9ec       ??_C@_0P@GCIK@tripminehealth?$AA@ 100589ec     inisettings.obj
 0003:0000d9fc       ??_C@_0BF@HGKF@superflamechargetime?$AA@ 100589fc     inisettings.obj
 0003:0000da14       ??_C@_0BA@HFEE@airstrikeamount?$AA@ 10058a14     inisettings.obj
 0003:0000da24       ??_C@_0BE@NAAK@airstrikechargetime?$AA@ 10058a24     inisettings.obj
 0003:0000da38       ??_C@_0BE@HLKO@airstrikerandomness?$AA@ 10058a38     inisettings.obj
 0003:0000da4c       ??_C@_0M@FDNF@turrethealt?$AA@ 10058a4c     inisettings.obj
 0003:0000da58       ??_C@_0N@GPKC@turretfixreq?$AA@ 10058a58     inisettings.obj
 0003:0000da68       ??_C@_0P@PDOA@turretrequired?$AA@ 10058a68     inisettings.obj
 0003:0000da78       ??_C@_0BA@JODL@fencepostfixreq?$AA@ 10058a78     inisettings.obj
 0003:0000da88       ??_C@_0BA@ODFC@fenceposthealth?$AA@ 10058a88     inisettings.obj
 0003:0000da98       ??_C@_0O@OJDA@grapplehealth?$AA@ 10058a98     inisettings.obj
 0003:0000daa8       ??_C@_0BA@OGIC@grappledroptime?$AA@ 10058aa8     inisettings.obj
 0003:0000dab8       ??_C@_0BA@KKMI@Special?5Weapons?$AA@ 10058ab8     inisettings.obj
 0003:0000dac8       ??_C@_0BA@HCDC@gunrespawndelay?$AA@ 10058ac8     inisettings.obj
 0003:0000dad8       ??_C@_09DEML@creditgap?$AA@ 10058ad8     inisettings.obj
 0003:0000dae4       ??_C@_0M@PBB@minfreeents?$AA@ 10058ae4     inisettings.obj
 0003:0000daf0       ??_C@_09OFC@icondelay?$AA@ 10058af0     inisettings.obj
 0003:0000dafc       ??_C@_08EDGN@botname2?$AA@ 10058afc     inisettings.obj
 0003:0000db08       ??_C@_04GGMK@Jess?$AA@     10058b08     inisettings.obj
 0003:0000db10       ??_C@_08LMNE@botname1?$AA@ 10058b10     inisettings.obj
 0003:0000db1c       ??_C@_07KEHE@Jessica?$AA@  10058b1c     inisettings.obj
 0003:0000db24       ??_C@_0L@CNOK@maxusermsg?$AA@ 10058b24     inisettings.obj
 0003:0000db30       ??_C@_0DO@JOOB@?$FLAUTOOP?$FN?5shodan?4ini?5not?5found?5?9?5@ 10058b30     inisettings.obj
 0003:0000db70       ??_C@_02HDBI@?2n?$AA@      10058b70     inisettings.obj
 0003:0000db74       ??_C@_0N@INJL@Text?5Strings?$AA@ 10058b74     inisettings.obj
 0003:0000db84       ??_C@_0CK@BFOM@?$CFd?5person?5voted?5yes?0?5?$CFd?5person?5v@ 10058b84     kickvote.obj
 0003:0000dbb0       ??_C@_0M@GBPB@banid?55?5?$CFs?6?$AA@ 10058bb0     kickvote.obj
 0003:0000dbbc       ??_C@_0CH@NGPH@Contact?5the?5server?5owner?5for?5det@ 10058bbc     kickvote.obj
 0003:0000dbe4       ??_C@_0DB@FPDE@You?5were?5kicked?5for?55?5minutes?5du@ 10058be4     kickvote.obj
 0003:0000dc18       ??_C@_0CK@CBEG@?$CFd?5people?5voted?5yes?0?5?$CFd?5people?5v@ 10058c18     kickvote.obj
 0003:0000dc44       ??_C@_0CK@BMEO@?$CFd?5people?5voted?5yes?0?5?$CFd?5person?5v@ 10058c44     kickvote.obj
 0003:0000dc70       ??_C@_0CK@CIOE@?$CFd?5person?5voted?5yes?0?5?$CFd?5people?5v@ 10058c70     kickvote.obj
 0003:0000dc9c       ?FENCEPOST_REQUIRED@@3HA   10058c9c     laserfence.obj
 0003:0000dca0       ??_C@_0CB@JNNI@?$FLAUTOOP?$FN?5?$CFs?5built?5a?5Sensor?5post?6@ 10058ca0     laserfence.obj
 0003:0000dcc4       ??_C@_0BN@FMKM@models?1autoop?1sensorpost?4mdl?$AA@ 10058cc4     laserfence.obj
 0003:0000dce4       ??_C@_0CD@EAPB@Not?5enough?5metal?5to?5build?5sensor@ 10058ce4     laserfence.obj
 0003:0000dd08       ??_C@_0CA@FMGL@You?5cant?5build?5another?5sensor?4?6?$AA@ 10058d08     laserfence.obj
 0003:0000dd28       ??_C@_0O@NDHK@ao_sensorkill?$AA@ 10058d28     laserfence.obj
 0003:0000dd38       ??_C@_0BF@MIAF@weapons?1electro6?4wav?$AA@ 10058d38     laserfence.obj
 0003:0000dd50       ??_C@_0CC@ELEF@Your?5sensor?5joined?5with?5another?4@ 10058d50     laserfence.obj
 0003:0000dd74       ??_C@_0BC@MMKI@ao_sensordetonate?$AA@ 10058d74     laserfence.obj
 0003:0000dd88       ??_C@_0CB@LJJD@?$FLAUTOOP?$FN?5A?5fence?5post?5detonated?6@ 10058d88     laserfence.obj
 0003:0000ddac       ??_C@_0BM@BECN@Your?5sensor?5was?5destroyed?4?6?$AA@ 10058dac     laserfence.obj
 0003:0000ddc8       ??_C@_0EF@HCIH@All?5of?5your?5workslots?5are?5in?5use@ 10058dc8     leveleditor.obj
 0003:0000de10       ??_C@_0CM@DLJO@SelectEntity?$CI?$CJ?3?5Player?5selected?5@ 10058e10     leveleditor.obj
 0003:0000de3c       ??_C@_0O@FODH@multi_manager?$AA@ 10058e3c     leveleditor.obj
 0003:0000de4c       ??_C@_0M@JKFL@info_tfgoal?$AA@ 10058e4c     leveleditor.obj
 0003:0000de58       ??_C@_0BB@HNOL@trigger_multiple?$AA@ 10058e58     leveleditor.obj
 0003:0000de6c       ??_C@_0N@HKNA@trigger_hurt?$AA@ 10058e6c     leveleditor.obj
 0003:0000de7c       ??_C@_0CG@CECD@DeselectEntity?$CI?$CJ?3?5Entity?5deselec@ 10058e7c     leveleditor.obj
 0003:0000dea4       ??_C@_0CP@DMDH@PointTransent?$CI?$CJ?3?5Transent?5used?5w@ 10058ea4     leveleditor.obj
 0003:0000ded4       ??_C@_0CG@KJNF@PointColorEnt?$CI?$CJ?3?5Used?5with?5?$CFd?0?$CFd@ 10058ed4     leveleditor.obj
 0003:0000defc       ??_C@_0BE@MDHA@Invalid?5Direction?4?6?$AA@ 10058efc     leveleditor.obj
 0003:0000df10       ??_C@_0CA@HPCH@CloneEnt?$CI?$CJ?3?5Entity?5was?5cloned?4?6?$AA@ 10058f10     leveleditor.obj
 0003:0000df30       ??_C@_0CA@IFC@DeselectAll?$CI?$CJ?3?5Deselected?5All?4?6?$AA@ 10058f30     leveleditor.obj
 0003:0000df50       ??_C@_0CB@OGD@DeleteEntity?$CI?$CJ?3?5Entity?5deleted?4?6@ 10058f50     leveleditor.obj
 0003:0000df74       ??_C@_0CF@KOOB@ChangeKeyValue?$CI?$CJ?3?5Keyvalue?5chang@ 10058f74     leveleditor.obj
 0003:0000df9c       ??_C@_0N@JM@trigger_auto?$AA@ 10058f9c     leveleditor.obj
 0003:0000dfac       ??_C@_0BH@NCHD@?$CFd?5entities?5selected?4?6?$AA@ 10058fac     leveleditor.obj
 0003:0000dfc8       ??_C@_0EG@LBIJ@CLASS?3?5?$CFs?5?$HMR?9amt?3?5?$CFf?$HMR?9fx?3?5?$CFd?$HMR?9@ 10058fc8     leveleditor.obj
 0003:0000e010       ??_C@_0CP@IKN@CLASS?3?5?$CFs?5?$HM?5TARG?3?5?$CFs?5?$HM?5TARGN?3?5?$CFs@ 10059010     leveleditor.obj
 0003:0000e040       ??_C@_0CA@GABJ@StartPull?$CI?$CJ?3?5Player?5used?5pull?4?6?$AA@ 10059040     leveleditor.obj
 0003:0000e060       ??_C@_04PBPC@?4aef?$AA@    10059060     leveleditor.obj
 0003:0000e068       ??_C@_0BF@KLMB@tfc?2autoop?2entfiles?2?$AA@ 10059068     leveleditor.obj
 0003:0000e080       ??_C@_0BE@JFJL@tfc?2autoop?2entfiles?$AA@ 10059080     leveleditor.obj
 0003:0000e094       ??_C@_0BM@MBMF@You?5must?5enter?5a?5filename?4?6?$AA@ 10059094     leveleditor.obj
 0003:0000e0b0       ??_C@_0DF@NOLA@Cant?5complete?5load?0?5not?5enough?5f@ 100590b0     leveleditor.obj
 0003:0000e0e8       ??_C@_0L@OLKI@func_train?$AA@ 100590e8     leveleditor.obj
 0003:0000e0f4       ??_C@_0O@HHKP@func_rotating?$AA@ 100590f4     leveleditor.obj
 0003:0000e104       ??_C@_0CI@PNAC@LoadEnts?3?5Entities?5loaded?5and?5cr@ 10059104     leveleditor.obj
 0003:0000e12c       ??_C@_0DM@CDLM@LoadEnts?3?5ERROR?5?9?5Loaded?5file?5co@ 1005912c     leveleditor.obj
 0003:0000e168       ??_C@_0DC@FOAD@Entfile?5has?5greater?5numberof?5ent@ 10059168     leveleditor.obj
 0003:0000e19c       ??_C@_0DG@MINA@LoadEnts?3?5ERROR?5?9?5Loaded?5file?5co@ 1005919c     leveleditor.obj
 0003:0000e1d4       ??_C@_0CA@NHDI@Entfile?5has?5no?5entities?5in?5it?$CB?6?$AA@ 100591d4     leveleditor.obj
 0003:0000e1f4       ??_C@_0CG@KOCK@LoadEnts?3?5?$CFd?5Entities?5found?5in?5f@ 100591f4     leveleditor.obj
 0003:0000e21c       ??_C@_0CO@DOCM@Entfile?5made?5with?5a?5newer?5versio@ 1005921c     leveleditor.obj
 0003:0000e24c       ??_C@_0DA@KEKE@Entfile?5not?5made?5for?5this?5map?0?5i@ 1005924c     leveleditor.obj
 0003:0000e27c       ??_C@_0BE@PLEK@Entfile?5not?5found?$CB?6?$AA@ 1005927c     leveleditor.obj
 0003:0000e290       ??_C@_0CC@EBOJ@LoadEnts?3?5User?5loading?5entities?4@ 10059290     leveleditor.obj
 0003:0000e2b4       ??_C@_0DA@HNDK@Entities?5loaded?5from?5?$CFs?4aef?5have@ 100592b4     leveleditor.obj
 0003:0000e2e4       ??_C@_0DD@IJFG@KillAEFEnts?3?5Entities?5loaded?5fro@ 100592e4     leveleditor.obj
 0003:0000e318       ??_C@_07JLIF@netname?$AA@  10059318     leveleditor.obj
 0003:0000e320       ??_C@_0DN@PKFJ@The?5Entfile?5these?5entities?5were?5@ 10059320     leveleditor.obj
 0003:0000e360       ??_C@_0BE@LKAD@aiscripted_sequence?$AA@ 10059360     linkfunc.obj
 0003:0000e374       ??_C@_0BA@IFMB@ambient_generic?$AA@ 10059374     linkfunc.obj
 0003:0000e384       ??_C@_08BGGJ@ammo_357?$AA@ 10059384     linkfunc.obj
 0003:0000e390       ??_C@_0L@HEPA@ammo_9mmAR?$AA@ 10059390     linkfunc.obj
 0003:0000e39c       ??_C@_0M@MGNN@ammo_9mmbox?$AA@ 1005939c     linkfunc.obj
 0003:0000e3a8       ??_C@_0N@MPPM@ammo_9mmclip?$AA@ 100593a8     linkfunc.obj
 0003:0000e3b8       ??_C@_0BA@OEBJ@ammo_ARgrenades?$AA@ 100593b8     linkfunc.obj
 0003:0000e3c8       ??_C@_0O@FHCF@ammo_buckshot?$AA@ 100593c8     linkfunc.obj
 0003:0000e3d8       ??_C@_0O@OFDM@ammo_crossbow?$AA@ 100593d8     linkfunc.obj
 0003:0000e3e8       ??_C@_0O@HE@ammo_egonclip?$AA@ 100593e8     linkfunc.obj
 0003:0000e3f8       ??_C@_0P@MILI@ammo_gaussclip?$AA@ 100593f8     linkfunc.obj
 0003:0000e408       ??_C@_0P@HIPJ@ammo_glockclip?$AA@ 10059408     linkfunc.obj
 0003:0000e418       ??_C@_0N@HJA@ammo_mp5clip?$AA@ 10059418     linkfunc.obj
 0003:0000e428       ??_C@_0BB@GAME@ammo_mp5grenades?$AA@ 10059428     linkfunc.obj
 0003:0000e43c       ??_C@_0N@BIME@ammo_rpgclip?$AA@ 1005943c     linkfunc.obj
 0003:0000e44c       ??_C@_04KDFO@beam?$AA@     1005944c     linkfunc.obj
 0003:0000e454       ??_C@_07NJNL@bmortar?$AA@  10059454     linkfunc.obj
 0003:0000e45c       ??_C@_07IAGC@bodyque?$AA@  1005945c     linkfunc.obj
 0003:0000e464       ??_C@_0O@IGOM@button_target?$AA@ 10059464     linkfunc.obj
 0003:0000e474       ??_C@_0L@OLIB@cine_blood?$AA@ 10059474     linkfunc.obj
 0003:0000e480       ??_C@_0BH@MCMA@controller_energy_ball?$AA@ 10059480     linkfunc.obj
 0003:0000e498       ??_C@_0BF@HAMD@controller_head_ball?$AA@ 10059498     linkfunc.obj
 0003:0000e4b0       ??_C@_0O@MAAK@crossbow_bolt?$AA@ 100594b0     linkfunc.obj
 0003:0000e4c0       ??_C@_06HKGB@cycler?$AA@   100594c0     linkfunc.obj
 0003:0000e4c8       ??_C@_0P@PNNJ@cycler_prdroid?$AA@ 100594c8     linkfunc.obj
 0003:0000e4d8       ??_C@_0O@IMNK@cycler_sprite?$AA@ 100594d8     linkfunc.obj
 0003:0000e4e8       ??_C@_0O@GOKC@cycler_weapon?$AA@ 100594e8     linkfunc.obj
 0003:0000e4f8       ??_C@_0BA@KIAN@cycler_wreckage?$AA@ 100594f8     linkfunc.obj
 0003:0000e508       ??_C@_0L@HGKE@DelayedUse?$AA@ 10059508     linkfunc.obj
 0003:0000e514       ??_C@_08LAKP@env_beam?$AA@ 10059514     linkfunc.obj
 0003:0000e520       ??_C@_0N@MNHA@env_beverage?$AA@ 10059520     linkfunc.obj
 0003:0000e530       ??_C@_09PCJJ@env_blood?$AA@ 10059530     linkfunc.obj
 0003:0000e53c       ??_C@_0M@LNLA@env_bubbles?$AA@ 1005953c     linkfunc.obj
 0003:0000e548       ??_C@_0L@BNJJ@env_debris?$AA@ 10059548     linkfunc.obj
 0003:0000e554       ??_C@_0O@GAID@env_explosion?$AA@ 10059554     linkfunc.obj
 0003:0000e564       ??_C@_08HFAF@env_fade?$AA@ 10059564     linkfunc.obj
 0003:0000e570       ??_C@_0L@DFAC@env_funnel?$AA@ 10059570     linkfunc.obj
 0003:0000e57c       ??_C@_0L@KEOP@env_global?$AA@ 1005957c     linkfunc.obj
 0003:0000e588       ??_C@_08KIFL@env_glow?$AA@ 10059588     linkfunc.obj
 0003:0000e594       ??_C@_09JOGA@env_laser?$AA@ 10059594     linkfunc.obj
 0003:0000e5a0       ??_C@_0O@MIEB@env_lightning?$AA@ 100595a0     linkfunc.obj
 0003:0000e5b0       ??_C@_0M@HJFK@env_message?$AA@ 100595b0     linkfunc.obj
 0003:0000e5bc       ??_C@_0L@NPH@env_render?$AA@ 100595bc     linkfunc.obj
 0003:0000e5c8       ??_C@_09EJFO@env_shake?$AA@ 100595c8     linkfunc.obj
 0003:0000e5d4       ??_C@_0M@OOAE@env_shooter?$AA@ 100595d4     linkfunc.obj
 0003:0000e5e0       ??_C@_0L@JCPL@env_smoker?$AA@ 100595e0     linkfunc.obj
 0003:0000e5ec       ??_C@_09DMEH@env_sound?$AA@ 100595ec     linkfunc.obj
 0003:0000e5f8       ??_C@_09FEHC@env_spark?$AA@ 100595f8     linkfunc.obj
 0003:0000e604       ??_C@_0L@JGGD@fireanddie?$AA@ 10059604     linkfunc.obj
 0003:0000e610       ??_C@_0P@KFIJ@func_breakable?$AA@ 10059610     linkfunc.obj
 0003:0000e620       ??_C@_0M@BFDL@func_button?$AA@ 10059620     linkfunc.obj
 0003:0000e62c       ??_C@_0O@ONIM@func_conveyor?$AA@ 1005962c     linkfunc.obj
 0003:0000e63c       ??_C@_0BD@DIJK@func_door_rotating?$AA@ 1005963c     linkfunc.obj
 0003:0000e650       ??_C@_0O@EACE@func_friction?$AA@ 10059650     linkfunc.obj
 0003:0000e660       ??_C@_0P@MJPL@func_guntarget?$AA@ 10059660     linkfunc.obj
 0003:0000e670       ??_C@_0BD@GODM@func_healthcharger?$AA@ 10059670     linkfunc.obj
 0003:0000e684       ??_C@_0BB@ECKI@func_illusionary?$AA@ 10059684     linkfunc.obj
 0003:0000e698       ??_C@_0M@PMOE@func_ladder?$AA@ 10059698     linkfunc.obj
 0003:0000e6a4       ??_C@_0BB@FHFO@func_monsterclip?$AA@ 100596a4     linkfunc.obj
 0003:0000e6b8       ??_C@_0BC@CMBE@func_mortar_field?$AA@ 100596b8     linkfunc.obj
 0003:0000e6cc       ??_C@_0O@OIAN@func_pendulum?$AA@ 100596cc     linkfunc.obj
 0003:0000e6dc       ??_C@_09HHKD@func_plat?$AA@ 100596dc     linkfunc.obj
 0003:0000e6e8       ??_C@_0N@HNBH@func_platrot?$AA@ 100596e8     linkfunc.obj
 0003:0000e6f8       ??_C@_0O@JFIP@func_pushable?$AA@ 100596f8     linkfunc.obj
 0003:0000e708       ??_C@_0O@BJEL@func_recharge?$AA@ 10059708     linkfunc.obj
 0003:0000e718       ??_C@_0BA@GHEL@func_rot_button?$AA@ 10059718     linkfunc.obj
 0003:0000e728       ??_C@_09BEDO@func_tank?$AA@ 10059728     linkfunc.obj
 0003:0000e734       ??_C@_0BC@GHMC@func_tankcontrols?$AA@ 10059734     linkfunc.obj
 0003:0000e748       ??_C@_0P@JLJO@func_tanklaser?$AA@ 10059748     linkfunc.obj
 0003:0000e758       ??_C@_0BA@EGMI@func_tankmortar?$AA@ 10059758     linkfunc.obj
 0003:0000e768       ??_C@_0BA@IDLO@func_tankrocket?$AA@ 10059768     linkfunc.obj
 0003:0000e778       ??_C@_0BF@NFLJ@func_trackautochange?$AA@ 10059778     linkfunc.obj
 0003:0000e790       ??_C@_0BB@EDIN@func_trackchange?$AA@ 10059790     linkfunc.obj
 0003:0000e7a4       ??_C@_0BA@KOLE@func_tracktrain?$AA@ 100597a4     linkfunc.obj
 0003:0000e7b4       ??_C@_0BD@PKJK@func_traincontrols?$AA@ 100597b4     linkfunc.obj
 0003:0000e7c8       ??_C@_0BB@LACP@func_wall_toggle?$AA@ 100597c8     linkfunc.obj
 0003:0000e7dc       ??_C@_0L@LCFM@func_water?$AA@ 100597dc     linkfunc.obj
 0003:0000e7e8       ??_C@_0N@BHBN@game_counter?$AA@ 100597e8     linkfunc.obj
 0003:0000e7f8       ??_C@_0BB@KLGM@game_counter_set?$AA@ 100597f8     linkfunc.obj
 0003:0000e80c       ??_C@_08NMAM@game_end?$AA@ 1005980c     linkfunc.obj
 0003:0000e818       ??_C@_0BC@PFFH@game_player_equip?$AA@ 10059818     linkfunc.obj
 0003:0000e82c       ??_C@_0BB@EJAP@game_player_hurt?$AA@ 1005982c     linkfunc.obj
 0003:0000e840       ??_C@_0BB@IEJF@game_player_team?$AA@ 10059840     linkfunc.obj
 0003:0000e854       ??_C@_0L@FFIO@game_score?$AA@ 10059854     linkfunc.obj
 0003:0000e860       ??_C@_0BB@MMGN@game_team_master?$AA@ 10059860     linkfunc.obj
 0003:0000e874       ??_C@_0O@PDJF@game_team_set?$AA@ 10059874     linkfunc.obj
 0003:0000e884       ??_C@_09IHHK@game_text?$AA@ 10059884     linkfunc.obj
 0003:0000e890       ??_C@_0BB@BKKN@game_zone_player?$AA@ 10059890     linkfunc.obj
 0003:0000e8a4       ??_C@_0L@ILHN@garg_stomp?$AA@ 100598a4     linkfunc.obj
 0003:0000e8b0       ??_C@_0L@HKIM@gibshooter?$AA@ 100598b0     linkfunc.obj
 0003:0000e8bc       ??_C@_06IACG@hornet?$AA@   100598bc     linkfunc.obj
 0003:0000e8c4       ??_C@_0L@NPBL@hvr_rocket?$AA@ 100598c4     linkfunc.obj
 0003:0000e8d0       ??_C@_0O@MEDO@info_bigmomma?$AA@ 100598d0     linkfunc.obj
 0003:0000e8e0       ??_C@_0BC@FEBM@info_intermission?$AA@ 100598e0     linkfunc.obj
 0003:0000e8f4       ??_C@_0O@PFNL@info_landmark?$AA@ 100598f4     linkfunc.obj
 0003:0000e904       ??_C@_09KHFJ@info_node?$AA@ 10059904     linkfunc.obj
 0003:0000e910       ??_C@_0O@NGKI@info_node_air?$AA@ 10059910     linkfunc.obj
 0003:0000e920       ??_C@_09PJNA@info_null?$AA@ 10059920     linkfunc.obj
 0003:0000e92c       ??_C@_0BH@MKJP@info_player_deathmatch?$AA@ 1005992c     linkfunc.obj
 0003:0000e944       ??_C@_0BC@MCPA@info_player_start?$AA@ 10059944     linkfunc.obj
 0003:0000e958       ??_C@_0BK@NHGH@info_teleport_destination?$AA@ 10059958     linkfunc.obj
 0003:0000e974       ??_C@_09GPEF@infodecal?$AA@ 10059974     linkfunc.obj
 0003:0000e980       ??_C@_0N@HPP@item_airtank?$AA@ 10059980     linkfunc.obj
 0003:0000e990       ??_C@_0O@HJKP@item_antidote?$AA@ 10059990     linkfunc.obj
 0003:0000e9a0       ??_C@_0N@CIMM@item_battery?$AA@ 100599a0     linkfunc.obj
 0003:0000e9b0       ??_C@_0P@LMGJ@item_healthkit?$AA@ 100599b0     linkfunc.obj
 0003:0000e9c0       ??_C@_0O@ODAO@item_longjump?$AA@ 100599c0     linkfunc.obj
 0003:0000e9d0       ??_C@_0O@GMKO@item_security?$AA@ 100599d0     linkfunc.obj
 0003:0000e9e0       ??_C@_0N@JJBI@item_sodacan?$AA@ 100599e0     linkfunc.obj
 0003:0000e9f0       ??_C@_09IMIN@item_suit?$AA@ 100599f0     linkfunc.obj
 0003:0000e9fc       ??_C@_0L@FNBF@laser_spot?$AA@ 100599fc     linkfunc.obj
 0003:0000ea08       ??_C@_05DKPF@light?$AA@    10059a08     linkfunc.obj
 0003:0000ea10       ??_C@_0BC@CPAF@light_environment?$AA@ 10059a10     linkfunc.obj
 0003:0000ea24       ??_C@_0L@HAKJ@light_spot?$AA@ 10059a24     linkfunc.obj
 0003:0000ea30       ??_C@_0P@GFNB@momentary_door?$AA@ 10059a30     linkfunc.obj
 0003:0000ea40       ??_C@_0BF@GEEH@momentary_rot_button?$AA@ 10059a40     linkfunc.obj
 0003:0000ea58       ??_C@_0N@CCNC@monstermaker?$AA@ 10059a58     linkfunc.obj
 0003:0000ea68       ??_C@_0BJ@JKEJ@monster_alien_controller?$AA@ 10059a68     linkfunc.obj
 0003:0000ea84       ??_C@_0BE@OKKG@monster_alien_grunt?$AA@ 10059a84     linkfunc.obj
 0003:0000ea98       ??_C@_0BE@HNBB@monster_alien_slave?$AA@ 10059a98     linkfunc.obj
 0003:0000eaac       ??_C@_0P@HAEG@monster_apache?$AA@ 10059aac     linkfunc.obj
 0003:0000eabc       ??_C@_0BB@JADK@monster_babycrab?$AA@ 10059abc     linkfunc.obj
 0003:0000ead0       ??_C@_0BB@DNPO@monster_barnacle?$AA@ 10059ad0     linkfunc.obj
 0003:0000eae4       ??_C@_0P@HCDI@monster_barney?$AA@ 10059ae4     linkfunc.obj
 0003:0000eaf4       ??_C@_0BE@ONCH@monster_barney_dead?$AA@ 10059af4     linkfunc.obj
 0003:0000eb08       ??_C@_0BB@FFG@monster_bigmomma?$AA@ 10059b08     linkfunc.obj
 0003:0000eb1c       ??_C@_0BA@MGOH@monster_bloater?$AA@ 10059b1c     linkfunc.obj
 0003:0000eb2c       ??_C@_0BE@DGJL@monster_bullchicken?$AA@ 10059b2c     linkfunc.obj
 0003:0000eb40       ??_C@_0BJ@FEIG@monster_cine2_hvyweapons?$AA@ 10059b40     linkfunc.obj
 0003:0000eb5c       ??_C@_0BI@KHHN@monster_cine2_scientist?$AA@ 10059b5c     linkfunc.obj
 0003:0000eb74       ??_C@_0BE@NFPE@monster_cine2_slave?$AA@ 10059b74     linkfunc.obj
 0003:0000eb88       ??_C@_0BF@NGLE@monster_cine3_barney?$AA@ 10059b88     linkfunc.obj
 0003:0000eba0       ??_C@_0BI@ENPC@monster_cine3_scientist?$AA@ 10059ba0     linkfunc.obj
 0003:0000ebb8       ??_C@_0BE@IDF@monster_cine_barney?$AA@ 10059bb8     linkfunc.obj
 0003:0000ebcc       ??_C@_0BF@JBFG@monster_cine_panther?$AA@ 10059bcc     linkfunc.obj
 0003:0000ebe4       ??_C@_0BH@GNFI@monster_cine_scientist?$AA@ 10059be4     linkfunc.obj
 0003:0000ebfc       ??_C@_0BC@KPHF@monster_cockroach?$AA@ 10059bfc     linkfunc.obj
 0003:0000ec10       ??_C@_0O@EJCH@monster_flyer?$AA@ 10059c10     linkfunc.obj
 0003:0000ec20       ??_C@_0BE@DINJ@monster_flyer_flock?$AA@ 10059c20     linkfunc.obj
 0003:0000ec34       ??_C@_0BC@IBCF@monster_furniture?$AA@ 10059c34     linkfunc.obj
 0003:0000ec48       ??_C@_0BA@FPIG@monster_generic?$AA@ 10059c48     linkfunc.obj
 0003:0000ec58       ??_C@_0N@FKMC@monster_gman?$AA@ 10059c58     linkfunc.obj
 0003:0000ec68       ??_C@_0BE@LFFA@monster_grunt_repel?$AA@ 10059c68     linkfunc.obj
 0003:0000ec7c       ??_C@_0BB@GGGK@monster_headcrab?$AA@ 10059c7c     linkfunc.obj
 0003:0000ec90       ??_C@_0BF@BGGJ@monster_hevsuit_dead?$AA@ 10059c90     linkfunc.obj
 0003:0000eca8       ??_C@_0BE@DOBH@monster_hgrunt_dead?$AA@ 10059ca8     linkfunc.obj
 0003:0000ecbc       ??_C@_0BB@ONKD@monster_houndeye?$AA@ 10059cbc     linkfunc.obj
 0003:0000ecd0       ??_C@_0BH@DBHM@monster_human_assassin?$AA@ 10059cd0     linkfunc.obj
 0003:0000ece8       ??_C@_0BE@HADJ@monster_human_grunt?$AA@ 10059ce8     linkfunc.obj
 0003:0000ecfc       ??_C@_0BE@BPIL@monster_ichthyosaur?$AA@ 10059cfc     linkfunc.obj
 0003:0000ed10       ??_C@_0O@CBBJ@monster_leech?$AA@ 10059d10     linkfunc.obj
 0003:0000ed20       ??_C@_0P@BCPF@monster_mortar?$AA@ 10059d20     linkfunc.obj
 0003:0000ed30       ??_C@_0BC@PJBM@monster_nihilanth?$AA@ 10059d30     linkfunc.obj
 0003:0000ed44       ??_C@_0P@ONCH@monster_osprey?$AA@ 10059d44     linkfunc.obj
 0003:0000ed54       ??_C@_0M@FFKN@monster_rat?$AA@ 10059d54     linkfunc.obj
 0003:0000ed60       ??_C@_0BA@DNIC@monster_satchel?$AA@ 10059d60     linkfunc.obj
 0003:0000ed70       ??_C@_0BC@CNFL@monster_scientist?$AA@ 10059d70     linkfunc.obj
 0003:0000ed84       ??_C@_0BH@JPPH@monster_scientist_dead?$AA@ 10059d84     linkfunc.obj
 0003:0000ed9c       ??_C@_0P@MJPI@monster_sentry?$AA@ 10059d9c     linkfunc.obj
 0003:0000edac       ??_C@_0BK@LMBN@monster_sitting_scientist?$AA@ 10059dac     linkfunc.obj
 0003:0000edc8       ??_C@_0O@MMBK@monster_snark?$AA@ 10059dc8     linkfunc.obj
 0003:0000edd8       ??_C@_0BB@FHBA@monster_tentacle?$AA@ 10059dd8     linkfunc.obj
 0003:0000edec       ??_C@_0BE@KHK@monster_tentaclemaw?$AA@ 10059dec     linkfunc.obj
 0003:0000ee00       ??_C@_0BB@LJEC@monster_tripmine?$AA@ 10059e00     linkfunc.obj
 0003:0000ee14       ??_C@_0BD@KBLP@monster_vortigaunt?$AA@ 10059e14     linkfunc.obj
 0003:0000ee28       ??_C@_0P@KBEE@monster_zombie?$AA@ 10059e28     linkfunc.obj
 0003:0000ee38       ??_C@_0M@FNLL@multisource?$AA@ 10059e38     linkfunc.obj
 0003:0000ee44       ??_C@_0BG@IMFL@nihilanth_energy_ball?$AA@ 10059e44     linkfunc.obj
 0003:0000ee5c       ??_C@_0M@DMHE@node_viewer?$AA@ 10059e5c     linkfunc.obj
 0003:0000ee68       ??_C@_0BA@ILEJ@node_viewer_fly?$AA@ 10059e68     linkfunc.obj
 0003:0000ee78       ??_C@_0BC@IDJE@node_viewer_human?$AA@ 10059e78     linkfunc.obj
 0003:0000ee8c       ??_C@_0BC@BACI@node_viewer_large?$AA@ 10059e8c     linkfunc.obj
 0003:0000eea0       ??_C@_0M@PJIA@path_corner?$AA@ 10059ea0     linkfunc.obj
 0003:0000eeac       ??_C@_0L@NGLK@path_track?$AA@ 10059eac     linkfunc.obj
 0003:0000eeb8       ??_C@_0BB@IBM@player_loadsaved?$AA@ 10059eb8     linkfunc.obj
 0003:0000eecc       ??_C@_0BD@LCP@player_weaponstrip?$AA@ 10059ecc     linkfunc.obj
 0003:0000eee0       ??_C@_0L@CFGE@rpg_rocket?$AA@ 10059ee0     linkfunc.obj
 0003:0000eeec       ??_C@_0BC@MFEK@scripted_sentence?$AA@ 10059eec     linkfunc.obj
 0003:0000ef00       ??_C@_0BC@HKAM@scripted_sequence?$AA@ 10059f00     linkfunc.obj
 0003:0000ef14       ??_C@_08OILM@soundent?$AA@ 10059f14     linkfunc.obj
 0003:0000ef20       ??_C@_0N@BFLM@spark_shower?$AA@ 10059f20     linkfunc.obj
 0003:0000ef30       ??_C@_07EJE@speaker?$AA@   10059f30     linkfunc.obj
 0003:0000ef38       ??_C@_09BEGG@squidspit?$AA@ 10059f38     linkfunc.obj
 0003:0000ef44       ??_C@_0O@JBAF@streak_spiral?$AA@ 10059f44     linkfunc.obj
 0003:0000ef54       ??_C@_0P@PLHD@target_cdaudio?$AA@ 10059f54     linkfunc.obj
 0003:0000ef64       ??_C@_0M@DCMM@test_effect?$AA@ 10059f64     linkfunc.obj
 0003:0000ef70       ??_C@_08EJCJ@testhull?$AA@ 10059f70     linkfunc.obj
 0003:0000ef7c       ??_C@_07GAIA@trigger?$AA@  10059f7c     linkfunc.obj
 0003:0000ef84       ??_C@_0BB@LMPH@trigger_autosave?$AA@ 10059f84     linkfunc.obj
 0003:0000ef98       ??_C@_0P@LDLO@trigger_camera?$AA@ 10059f98     linkfunc.obj
 0003:0000efa8       ??_C@_0BA@OEDJ@trigger_cdaudio?$AA@ 10059fa8     linkfunc.obj
 0003:0000efb8       ??_C@_0BE@BFAJ@trigger_changelevel?$AA@ 10059fb8     linkfunc.obj
 0003:0000efcc       ??_C@_0BF@ECBE@trigger_changetarget?$AA@ 10059fcc     linkfunc.obj
 0003:0000efe4       ??_C@_0BA@FGMI@trigger_counter?$AA@ 10059fe4     linkfunc.obj
 0003:0000eff4       ??_C@_0BD@CPBK@trigger_endsection?$AA@ 10059ff4     linkfunc.obj
 0003:0000f008       ??_C@_0BA@FJFN@trigger_gravity?$AA@ 1005a008     linkfunc.obj
 0003:0000f018       ??_C@_0BE@PKDJ@trigger_monsterjump?$AA@ 1005a018     linkfunc.obj
 0003:0000f02c       ??_C@_0N@LIGO@trigger_once?$AA@ 1005a02c     linkfunc.obj
 0003:0000f03c       ??_C@_0N@EEFP@trigger_push?$AA@ 1005a03c     linkfunc.obj
 0003:0000f04c       ??_C@_0O@JNBA@trigger_relay?$AA@ 1005a04c     linkfunc.obj
 0003:0000f05c       ??_C@_0BB@EDMK@trigger_teleport?$AA@ 1005a05c     linkfunc.obj
 0003:0000f070       ??_C@_0BD@GEBN@trigger_transition?$AA@ 1005a070     linkfunc.obj
 0003:0000f084       ??_C@_0L@NPOO@weapon_357?$AA@ 1005a084     linkfunc.obj
 0003:0000f090       ??_C@_0N@JNOE@weapon_9mmAR?$AA@ 1005a090     linkfunc.obj
 0003:0000f0a0       ??_C@_0BC@MNAJ@weapon_9mmhandgun?$AA@ 1005a0a0     linkfunc.obj
 0003:0000f0b4       ??_C@_0BA@HAEF@weapon_crossbow?$AA@ 1005a0b4     linkfunc.obj
 0003:0000f0c4       ??_C@_0P@NAIF@weapon_crowbar?$AA@ 1005a0c4     linkfunc.obj
 0003:0000f0d4       ??_C@_0M@IOMI@weapon_egon?$AA@ 1005a0d4     linkfunc.obj
 0003:0000f0e0       ??_C@_0N@DDMO@weapon_gauss?$AA@ 1005a0e0     linkfunc.obj
 0003:0000f0f0       ??_C@_0N@CLNH@weapon_glock?$AA@ 1005a0f0     linkfunc.obj
 0003:0000f100       ??_C@_0BD@HGIA@weapon_handgrenade?$AA@ 1005a100     linkfunc.obj
 0003:0000f114       ??_C@_0BB@CILK@weapon_hornetgun?$AA@ 1005a114     linkfunc.obj
 0003:0000f128       ??_C@_0L@LEGH@weapon_mp5?$AA@ 1005a128     linkfunc.obj
 0003:0000f134       ??_C@_0O@BJCF@weapon_python?$AA@ 1005a134     linkfunc.obj
 0003:0000f144       ??_C@_0L@OCEH@weapon_rpg?$AA@ 1005a144     linkfunc.obj
 0003:0000f150       ??_C@_0P@JCMM@weapon_satchel?$AA@ 1005a150     linkfunc.obj
 0003:0000f160       ??_C@_0P@PHLB@weapon_shotgun?$AA@ 1005a160     linkfunc.obj
 0003:0000f170       ??_C@_0N@ODHC@weapon_snark?$AA@ 1005a170     linkfunc.obj
 0003:0000f180       ??_C@_0BA@LLON@weapon_tripmine?$AA@ 1005a180     linkfunc.obj
 0003:0000f190       ??_C@_09KMAI@weaponbox?$AA@ 1005a190     linkfunc.obj
 0003:0000f19c       ??_C@_0M@NALO@world_items?$AA@ 1005a19c     linkfunc.obj
 0003:0000f1a8       ??_C@_08PJCL@xen_hull?$AA@ 1005a1a8     linkfunc.obj
 0003:0000f1b4       ??_C@_0N@LFGG@xen_ttrigger?$AA@ 1005a1b4     linkfunc.obj
 0003:0000f1c4       ??_C@_0O@HDJM@entity_botcam?$AA@ 1005a1c4     linkfunc.obj
 0003:0000f1d4       ??_C@_07JCAC@CTF_Map?$AA@  1005a1d4     linkfunc.obj
 0003:0000f1dc       ??_C@_0N@DEFH@info_areadef?$AA@ 1005a1dc     linkfunc.obj
 0003:0000f1ec       ??_C@_0BC@FMJK@info_tf_teamcheck?$AA@ 1005a1ec     linkfunc.obj
 0003:0000f200       ??_C@_0BA@IMOE@info_tf_teamset?$AA@ 1005a200     linkfunc.obj
 0003:0000f210       ??_C@_07HLDP@detpack?$AA@  1005a210     linkfunc.obj
 0003:0000f218       ??_C@_05IKFF@ghost?$AA@    1005a218     linkfunc.obj
 0003:0000f220       ??_C@_0BC@KEIE@info_tfgoal_timer?$AA@ 1005a220     linkfunc.obj
 0003:0000f234       ??_C@_0M@KDCP@item_armor1?$AA@ 1005a234     linkfunc.obj
 0003:0000f240       ??_C@_0M@FMJG@item_armor2?$AA@ 1005a240     linkfunc.obj
 0003:0000f24c       ??_C@_0M@PGAB@item_armor3?$AA@ 1005a24c     linkfunc.obj
 0003:0000f258       ??_C@_0BJ@KAMC@item_artifact_envirosuit?$AA@ 1005a258     linkfunc.obj
 0003:0000f274       ??_C@_0M@DFKC@item_health?$AA@ 1005a274     linkfunc.obj
 0003:0000f280       ??_C@_0N@IAJO@item_rockets?$AA@ 1005a280     linkfunc.obj
 0003:0000f290       ??_C@_0M@BFBP@item_shells?$AA@ 1005a290     linkfunc.obj
 0003:0000f29c       ??_C@_0M@LECH@item_spikes?$AA@ 1005a29c     linkfunc.obj
 0003:0000f2a8       ??_C@_0M@NBGM@item_tfgoal?$AA@ 1005a2a8     linkfunc.obj
 0003:0000f2b4       ??_C@_05HLGP@i_p_t?$AA@    1005a2b4     linkfunc.obj
 0003:0000f2bc       ??_C@_05GFPM@i_t_g?$AA@    1005a2bc     linkfunc.obj
 0003:0000f2c4       ??_C@_05DDDF@i_t_t?$AA@    1005a2c4     linkfunc.obj
 0003:0000f2cc       ??_C@_09IMPG@teledeath?$AA@ 1005a2cc     linkfunc.obj
 0003:0000f2d8       ??_C@_0BA@GLAF@tf_ammo_rpgclip?$AA@ 1005a2d8     linkfunc.obj
 0003:0000f2e8       ??_C@_08CDPA@tf_flame?$AA@ 1005a2e8     linkfunc.obj
 0003:0000f2f4       ??_C@_0BG@HJOL@tf_flamethrower_burst?$AA@ 1005a2f4     linkfunc.obj
 0003:0000f30c       ??_C@_0N@OEBN@tf_ic_rocket?$AA@ 1005a30c     linkfunc.obj
 0003:0000f31c       ??_C@_0BC@EFMD@tf_weapon_caltrop?$AA@ 1005a31c     linkfunc.obj
 0003:0000f330       ??_C@_0BJ@IAAA@tf_weapon_caltropgrenade?$AA@ 1005a330     linkfunc.obj
 0003:0000f34c       ??_C@_0BM@IJJN@tf_weapon_concussiongrenade?$AA@ 1005a34c     linkfunc.obj
 0003:0000f368       ??_C@_0BF@NPMI@tf_weapon_empgrenade?$AA@ 1005a368     linkfunc.obj
 0003:0000f380       ??_C@_0BF@DFO@tf_weapon_gasgrenade?$AA@ 1005a380     linkfunc.obj
 0003:0000f398       ??_C@_0BP@IGPK@tf_weapon_genericprimedgrenade?$AA@ 1005a398     linkfunc.obj
 0003:0000f3b8       ??_C@_0BG@NPME@tf_weapon_mirvbomblet?$AA@ 1005a3b8     linkfunc.obj
 0003:0000f3d0       ??_C@_0BG@FOGC@tf_weapon_mirvgrenade?$AA@ 1005a3d0     linkfunc.obj
 0003:0000f3e8       ??_C@_0BG@DMDL@tf_weapon_nailgrenade?$AA@ 1005a3e8     linkfunc.obj
 0003:0000f400       ??_C@_0BI@BDDI@tf_weapon_napalmgrenade?$AA@ 1005a400     linkfunc.obj
 0003:0000f418       ??_C@_0BI@BFBA@tf_weapon_normalgrenade?$AA@ 1005a418     linkfunc.obj
 0003:0000f430       ??_C@_0DC@GBFP@?$FLAUTOOP?$FN?5Vote?5cast?5by?5?$CFs?0?5?$CFs?5now@ 1005a430     mapvoting.obj
 0003:0000f464       ??_C@_06BCBB@extend?$AA@   1005a464     mapvoting.obj
 0003:0000f46c       ??_C@_0DH@MMAD@Mapvote?5?9?5VoteCast?$CI?$CJ?5?3?5Mapvote?5w@ 1005a46c     mapvoting.obj
 0003:0000f4a4       ??_C@_0CA@IGKP@?$FLAUTOOP?$FN?5?$CFs?5started?5a?5map?5vote?6?$AA@ 1005a4a4     mapvoting.obj
 0003:0000f4c8       ??_C@_0FN@ENEN@Shodan?5Map?5Voting?5system?5enabled@ 1005a4c8     mapvoting.obj
 0003:0000f528       ??_C@_0DL@DGNK@Mapvote?5?9?5VoteStart?$CI?$CJ?5?3?5Mapvote?5@ 1005a528     mapvoting.obj
 0003:0000f564       ??_C@_0DB@ELNF@?$FLAUTOOP?$FN?5No?5map?5got?5the?5?$CFd?5votes@ 1005a564     mapvoting.obj
 0003:0000f598       ??_C@_0BC@IENI@mp_timelimit?50?41?6?$AA@ 1005a598     mapvoting.obj
 0003:0000f5ac       ??_C@_0CK@EDKE@?$FLAUTOOP?$FN?5No?5map?5got?5enough?5votes@ 1005a5ac     mapvoting.obj
 0003:0000f5d8       ??_C@_0BK@CKLN@?$FLAUTOOP?$FN?5Map?5vote?5ended?4?6?$AA@ 1005a5d8     mapvoting.obj
 0003:0000f5f4       ??_C@_0CG@LEGP@Mapvote?5?9?5VoteEnd?$CI?$CJ?5?3?5Mapvote?5en@ 1005a5f4     mapvoting.obj
 0003:0000f61c       ??_C@_0BM@BLDF@?$FLAUTOOP?$FN?5Mapvote?5cancelled?6?$AA@ 1005a61c     mapvoting.obj
 0003:0000f638       ??_C@_0DE@BHKE@Mapvote?5?9?5CancelMapVote?$CI?$CJ?5?3?5Mapv@ 1005a638     mapvoting.obj
 0003:0000f66c       ??_C@_0DE@GLAP@?$FLAUTOOP?$FN?5No?5map?5has?5the?5?$CFd?5votes@ 1005a66c     mapvoting.obj
 0003:0000f6a0       ??_C@_0CN@CFJC@?$FLAUTOOP?$FN?5Winning?5map?5is?5?$CFs?5with?5@ 1005a6a0     mapvoting.obj
 0003:0000f6d0       ??_C@_0CF@FLHM@No?5map?5has?5enough?5votes?5to?5win?5y@ 1005a6d0     mapvoting.obj
 0003:0000f6f8       ??_C@_0CF@MOEJ@Mapvote?5?9?5SayWinningMap?$CI?$CJ?5?3?5Call@ 1005a6f8     mapvoting.obj
 0003:0000f720       ??_C@_0N@MLDJ@mapcyclefile?$AA@ 1005a720     mapvoting.obj
 0003:0000f730       ??_C@_0CA@OGLG@?$FLAUTOOP?$FN?5?$CFs?5placed?5a?5mediflag?4?6?$AA@ 1005a730     mediflag.obj
 0003:0000f750       ??_C@_0BN@EDKD@You?5deployed?5your?5mediflag?4?6?$AA@ 1005a750     mediflag.obj
 0003:0000f770       ??_C@_0BL@NADE@models?1autoop?1mediflag?4mdl?$AA@ 1005a770     mediflag.obj
 0003:0000f78c       ??_C@_0CA@EAEE@You?5can?8t?5deploy?5your?5flag?5yet?6?$AA@ 1005a78c     mediflag.obj
 0003:0000f7ac       ??_C@_0BD@BBNB@items?1medshot4?4wav?$AA@ 1005a7ac     mediflag.obj
 0003:0000f7c0       ??_C@_0CE@GBE@?$FLAUTOOP?$FN?5A?5mediflag?5was?5destroye@ 1005a7c0     mediflag.obj
 0003:0000f7e4       ??_C@_0BG@JJGF@ao_mediflag_explosion?$AA@ 1005a7e4     mediflag.obj
 0003:0000f7fc       ??_C@_0CC@JMAM@?$FLAUTOOP?$FN?5?$CFs?5placed?5a?5mesageflag?4@ 1005a7fc     messageflag.obj
 0003:0000f820       ??_C@_0BF@KCM@You?5left?5a?5message?4?6?$AA@ 1005a820     messageflag.obj
 0003:0000f838       ??_C@_0BL@HPLK@models?1autoop?1mailflag?4mdl?$AA@ 1005a838     messageflag.obj
 0003:0000f854       ??_C@_0CL@NHCG@You?5can?8t?5deploy?5a?5message?5at?5th@ 1005a854     messageflag.obj
 0003:0000f880       ??_C@_07HFFO@?$CFs?6?9?5?$CFs?$AA@ 1005a880     messageflag.obj
 0003:0000f888       ??_C@_0CC@CMFO@Your?5message?5flag?5was?5destroyed?4@ 1005a888     messageflag.obj
 0003:0000f8ac       ??_C@_0BL@INBB@You?5have?5no?5message?5flag?4?6?$AA@ 1005a8ac     messageflag.obj
 0003:0000f8c8       ??_C@_0BG@KBGE@Precached?5resources?4?6?$AA@ 1005a8c8     modelprecache.obj
 0003:0000f8e0       ??_C@_0BC@KCPC@sprites?1blood?4spr?$AA@ 1005a8e0     modelprecache.obj
 0003:0000f8f4       ??_C@_0BH@PJF@sprites?1bloodspray?4spr?$AA@ 1005a8f4     modelprecache.obj
 0003:0000f90c       ??_C@_0BC@JGGL@autoop?1loop30?4wav?$AA@ 1005a90c     modelprecache.obj
 0003:0000f920       ??_C@_0BC@KCME@autoop?1loop29?4wav?$AA@ 1005a920     modelprecache.obj
 0003:0000f934       ??_C@_0BC@COB@autoop?1loop28?4wav?$AA@ 1005a934     modelprecache.obj
 0003:0000f948       ??_C@_0BC@GDDB@autoop?1loop27?4wav?$AA@ 1005a948     modelprecache.obj
 0003:0000f95c       ??_C@_0BC@MDBE@autoop?1loop26?4wav?$AA@ 1005a95c     modelprecache.obj
 0003:0000f970       ??_C@_0BC@CDHL@autoop?1loop25?4wav?$AA@ 1005a970     modelprecache.obj
 0003:0000f984       ??_C@_0BC@IDFO@autoop?1loop24?4wav?$AA@ 1005a984     modelprecache.obj
 0003:0000f998       ??_C@_0BC@ODKE@autoop?1loop23?4wav?$AA@ 1005a998     modelprecache.obj
 0003:0000f9ac       ??_C@_0BC@EDIB@autoop?1loop22?4wav?$AA@ 1005a9ac     modelprecache.obj
 0003:0000f9c0       ??_C@_0BC@KDOO@autoop?1loop21?4wav?$AA@ 1005a9c0     modelprecache.obj
 0003:0000f9d4       ??_C@_0BC@DML@autoop?1loop20?4wav?$AA@ 1005a9d4     modelprecache.obj
 0003:0000f9e8       ??_C@_0BC@BMCE@autoop?1loop19?4wav?$AA@ 1005a9e8     modelprecache.obj
 0003:0000f9fc       ??_C@_0BC@LMAB@autoop?1loop18?4wav?$AA@ 1005a9fc     modelprecache.obj
 0003:0000fa10       ??_C@_0BC@NNNB@autoop?1loop17?4wav?$AA@ 1005aa10     modelprecache.obj
 0003:0000fa24       ??_C@_0BC@HNPE@autoop?1loop16?4wav?$AA@ 1005aa24     modelprecache.obj
 0003:0000fa38       ??_C@_0BC@JNJL@autoop?1loop15?4wav?$AA@ 1005aa38     modelprecache.obj
 0003:0000fa4c       ??_C@_0BC@DNLO@autoop?1loop14?4wav?$AA@ 1005aa4c     modelprecache.obj
 0003:0000fa60       ??_C@_0BC@FNEE@autoop?1loop13?4wav?$AA@ 1005aa60     modelprecache.obj
 0003:0000fa74       ??_C@_0BC@PNGB@autoop?1loop12?4wav?$AA@ 1005aa74     modelprecache.obj
 0003:0000fa88       ??_C@_0BC@BNAO@autoop?1loop11?4wav?$AA@ 1005aa88     modelprecache.obj
 0003:0000fa9c       ??_C@_0BC@LNCL@autoop?1loop10?4wav?$AA@ 1005aa9c     modelprecache.obj
 0003:0000fab0       ??_C@_0BB@CPKN@autoop?1loop9?4wav?$AA@ 1005aab0     modelprecache.obj
 0003:0000fac4       ??_C@_0BB@IPII@autoop?1loop8?4wav?$AA@ 1005aac4     modelprecache.obj
 0003:0000fad8       ??_C@_0BB@OOFI@autoop?1loop7?4wav?$AA@ 1005aad8     modelprecache.obj
 0003:0000faec       ??_C@_0BB@EOHN@autoop?1loop6?4wav?$AA@ 1005aaec     modelprecache.obj
 0003:0000fb00       ??_C@_0BB@KOBC@autoop?1loop5?4wav?$AA@ 1005ab00     modelprecache.obj
 0003:0000fb14       ??_C@_0BB@ODH@autoop?1loop4?4wav?$AA@ 1005ab14     modelprecache.obj
 0003:0000fb28       ??_C@_0BB@GOMN@autoop?1loop3?4wav?$AA@ 1005ab28     modelprecache.obj
 0003:0000fb3c       ??_C@_0BB@MOOI@autoop?1loop2?4wav?$AA@ 1005ab3c     modelprecache.obj
 0003:0000fb50       ??_C@_0BB@COIH@autoop?1loop1?4wav?$AA@ 1005ab50     modelprecache.obj
 0003:0000fb64       ??_C@_0BA@LKHJ@autoop?1w00t?4wav?$AA@ 1005ab64     modelprecache.obj
 0003:0000fb74       ??_C@_0P@BFOI@autoop?1rob?4wav?$AA@ 1005ab74     modelprecache.obj
 0003:0000fb84       ??_C@_0BB@FKAG@autoop?1llama?4wav?$AA@ 1005ab84     modelprecache.obj
 0003:0000fb98       ??_C@_0P@HMBD@autoop?1gp2?4wav?$AA@ 1005ab98     modelprecache.obj
 0003:0000fba8       ??_C@_0BF@BGAF@autoop?1girlpower?4wav?$AA@ 1005aba8     modelprecache.obj
 0003:0000fbc0       ??_C@_0BD@ODJA@autoop?1roborob?4wav?$AA@ 1005abc0     modelprecache.obj
 0003:0000fbd4       ??_C@_0CB@ICHO@models?1autoop?1v_tfc_ablaster?4mdl@ 1005abd4     modelprecache.obj
 0003:0000fbf8       ??_C@_0BF@IIEP@weapons?1electro4?4wav?$AA@ 1005abf8     modelprecache.obj
 0003:0000fc10       ??_C@_0BO@HEKK@models?1autoop?1p_tfc_tazar?4mdl?$AA@ 1005ac10     modelprecache.obj
 0003:0000fc30       ??_C@_0BO@PLGL@models?1autoop?1v_tfc_tazar?4mdl?$AA@ 1005ac30     modelprecache.obj
 0003:0000fc50       ??_C@_0CC@DCEF@models?1autoop?1v_tfc_energygun?4md@ 1005ac50     modelprecache.obj
 0003:0000fc74       ??_C@_0CA@GHLO@models?1autoop?1p_tfc_dualbar?4mdl?$AA@ 1005ac74     modelprecache.obj
 0003:0000fc94       ??_C@_0CC@BHIM@sprites?1autoop?1player_warning?4sp@ 1005ac94     modelprecache.obj
 0003:0000fcb8       ??_C@_0BP@BMOO@models?1autoop?1origbackpack?4mdl?$AA@ 1005acb8     modelprecache.obj
 0003:0000fcd8       ??_C@_0BI@HKBA@models?1autoop?1chick?4mdl?$AA@ 1005acd8     modelprecache.obj
 0003:0000fcf0       ??_C@_0BI@PLLK@models?1autoop?1tree3?4mdl?$AA@ 1005acf0     modelprecache.obj
 0003:0000fd08       ??_C@_0BI@FLJP@models?1autoop?1tree2?4mdl?$AA@ 1005ad08     modelprecache.obj
 0003:0000fd20       ??_C@_0BI@LLPA@models?1autoop?1tree1?4mdl?$AA@ 1005ad20     modelprecache.obj
 0003:0000fd38       ??_C@_0BL@BHNE@models?1autoop?1gp2data7?4mdl?$AA@ 1005ad38     modelprecache.obj
 0003:0000fd54       ??_C@_0BL@LHPB@models?1autoop?1gp2data6?4mdl?$AA@ 1005ad54     modelprecache.obj
 0003:0000fd70       ??_C@_0BL@FHJO@models?1autoop?1gp2data5?4mdl?$AA@ 1005ad70     modelprecache.obj
 0003:0000fd8c       ??_C@_0BL@PHLL@models?1autoop?1gp2data4?4mdl?$AA@ 1005ad8c     modelprecache.obj
 0003:0000fda8       ??_C@_0BL@JHEB@models?1autoop?1gp2data3?4mdl?$AA@ 1005ada8     modelprecache.obj
 0003:0000fdc4       ??_C@_0BL@DHGE@models?1autoop?1gp2data2?4mdl?$AA@ 1005adc4     modelprecache.obj
 0003:0000fde0       ??_C@_0BL@NHAL@models?1autoop?1gp2data1?4mdl?$AA@ 1005ade0     modelprecache.obj
 0003:0000fdfc       ??_C@_0BI@GENG@weapons?1mine_charge?4wav?$AA@ 1005adfc     modelprecache.obj
 0003:0000fe14       ??_C@_0BI@IMBG@weapons?1mine_deploy?4wav?$AA@ 1005ae14     modelprecache.obj
 0003:0000fe2c       ??_C@_0BD@GCEE@sprites?1fthrow?4spr?$AA@ 1005ae2c     modelprecache.obj
 0003:0000fe40       ??_C@_0BC@MKHG@sprites?1exit1?4spr?$AA@ 1005ae40     modelprecache.obj
 0003:0000fe54       ??_C@_0BD@HOGM@sprites?1enter1?4spr?$AA@ 1005ae54     modelprecache.obj
 0003:0000fe68       ??_C@_0BD@ECPD@player?1geiger6?4wav?$AA@ 1005ae68     modelprecache.obj
 0003:0000fe7c       ??_C@_0BJ@FLII@ambience?1flameburst1?4wav?$AA@ 1005ae7c     modelprecache.obj
 0003:0000fe98       ??_C@_0BM@KHEF@ambience?1particle_suck1?4wav?$AA@ 1005ae98     modelprecache.obj
 0003:0000feb4       ??_C@_0BK@BNEA@weapons?1mine_activate?4wav?$AA@ 1005aeb4     modelprecache.obj
 0003:0000fed0       ??_C@_0BL@LCFN@models?1autoop?1packbomb?4mdl?$AA@ 1005aed0     modelprecache.obj
 0003:0000feec       ??_C@_0BN@MODA@models?1autoop?1aotripmine?4mdl?$AA@ 1005aeec     modelprecache.obj
 0003:0000ff0c       ??_C@_0BM@NJED@sprites?1autoop?1grapple1?4spr?$AA@ 1005af0c     modelprecache.obj
 0003:0000ff28       ??_C@_0BL@IGKK@models?1autoop?1proxmine?4mdl?$AA@ 1005af28     modelprecache.obj
 0003:0000ff44       ??_C@_0BF@CCGC@models?1chainammo?4mdl?$AA@ 1005af44     modelprecache.obj
 0003:0000ff5c       ??_C@_0BL@JCJE@models?1w_crossbow_clip?4mdl?$AA@ 1005af5c     modelprecache.obj
 0003:0000ff78       ??_C@_0BF@DNNJ@models?1w_shotbox?4mdl?$AA@ 1005af78     modelprecache.obj
 0003:0000ff90       ??_C@_0BF@FJPG@models?1w_rpgammo?4mdl?$AA@ 1005af90     modelprecache.obj
 0003:0000ffa8       ??_C@_0BF@FECN@sprites?1gargeye1?4spr?$AA@ 1005afa8     modelprecache.obj
 0003:0000ffc0       ??_C@_0BH@OOCF@squeek?1sqk_deploy1?4wav?$AA@ 1005afc0     modelprecache.obj
 0003:0000ffd8       ??_C@_0BF@OPIA@squeek?1sqk_hunt3?4wav?$AA@ 1005afd8     modelprecache.obj
 0003:0000fff0       ??_C@_0BF@EPKF@squeek?1sqk_hunt2?4wav?$AA@ 1005aff0     modelprecache.obj
 0003:00010008       ??_C@_0BF@KPMK@squeek?1sqk_hunt1?4wav?$AA@ 1005b008     modelprecache.obj
 0003:00010020       ??_C@_0BE@JGPG@squeek?1sqk_die1?4wav?$AA@ 1005b020     modelprecache.obj
 0003:00010034       ??_C@_0BG@CKOO@squeek?1sqk_blast1?4wav?$AA@ 1005b034     modelprecache.obj
 0003:0001004c       ??_C@_0BE@BJKE@models?1w_squeak?4mdl?$AA@ 1005b04c     modelprecache.obj
 0003:00010060       ??_C@_0BG@DJAM@weapons?1mortarhit?4wav?$AA@ 1005b060     modelprecache.obj
 0003:00010078       ??_C@_0BB@HFHM@weapons?1hks3?4wav?$AA@ 1005b078     modelprecache.obj
 0003:0001008c       ??_C@_0BB@NFFJ@weapons?1hks2?4wav?$AA@ 1005b08c     modelprecache.obj
 0003:000100a0       ??_C@_0BB@DFDG@weapons?1hks1?4wav?$AA@ 1005b0a0     modelprecache.obj
 0003:000100b4       ??_C@_0BG@HBNJ@models?1miniturret?4mdl?$AA@ 1005b0b4     modelprecache.obj
 0003:000100cc       ??_C@_0BC@GKKE@models?1turret?4mdl?$AA@ 1005b0cc     modelprecache.obj
 0003:000100e0       ??_C@_0BE@BOFH@turret?1tu_alert?4wav?$AA@ 1005b0e0     modelprecache.obj
 0003:000100f4       ??_C@_0BF@KGEB@turret?1tu_search?4wav?$AA@ 1005b0f4     modelprecache.obj
 0003:0001010c       ??_C@_0BH@IBHA@turret?1tu_spindown?4wav?$AA@ 1005b10c     modelprecache.obj
 0003:00010124       ??_C@_0BF@LMD@turret?1tu_spinup?4wav?$AA@ 1005b124     modelprecache.obj
 0003:0001013c       ??_C@_0BF@BMJG@turret?1tu_deploy?4wav?$AA@ 1005b13c     modelprecache.obj
 0003:00010154       ??_C@_0BD@MGNG@turret?1tu_die3?4wav?$AA@ 1005b154     modelprecache.obj
 0003:00010168       ??_C@_0BD@GGPD@turret?1tu_die2?4wav?$AA@ 1005b168     modelprecache.obj
 0003:0001017c       ??_C@_0BC@LMCO@turret?1tu_die?4wav?$AA@ 1005b17c     modelprecache.obj
 0003:00010190       ??_C@_0BG@IODL@turret?1tu_active2?4wav?$AA@ 1005b190     modelprecache.obj
 0003:000101a8       ??_C@_0BD@PMPA@turret?1tu_ping?4wav?$AA@ 1005b1a8     modelprecache.obj
 0003:000101bc       ??_C@_0BE@ICAP@turret?1tu_fire1?4wav?$AA@ 1005b1bc     modelprecache.obj
 0003:000101d0       ??_C@_0BD@GBHD@items?1protect3?4wav?$AA@ 1005b1d0     modelprecache.obj
 0003:000101e4       ??_C@_0BD@MBFG@items?1protect2?4wav?$AA@ 1005b1e4     modelprecache.obj
 0003:000101f8       ??_C@_0BC@BJLH@items?1protect?4wav?$AA@ 1005b1f8     modelprecache.obj
 0003:0001020c       ??_C@_0P@CDDI@items?1inv3?4wav?$AA@ 1005b20c     modelprecache.obj
 0003:0001021c       ??_C@_0P@IDBN@items?1inv2?4wav?$AA@ 1005b21c     modelprecache.obj
 0003:0001022c       ??_C@_0P@GDHC@items?1inv1?4wav?$AA@ 1005b22c     modelprecache.obj
 0003:0001023c       ??_C@_0BC@FALO@items?1damage3?4wav?$AA@ 1005b23c     modelprecache.obj
 0003:00010250       ??_C@_0BC@PAJL@items?1damage2?4wav?$AA@ 1005b250     modelprecache.obj
 0003:00010264       ??_C@_0BB@NELB@items?1damage?4wav?$AA@ 1005b264     modelprecache.obj
 0003:00010278       ??_C@_0BB@FCFP@models?1invis?4mdl?$AA@ 1005b278     modelprecache.obj
 0003:0001028c       ??_C@_0BA@DKOK@models?1quad?4mdl?$AA@ 1005b28c     modelprecache.obj
 0003:0001029c       ??_C@_0BJ@HMDO@models?1fungus?$CIlarge?$CJ?4mdl?$AA@ 1005b29c     modelprecache.obj
 0003:000102b8       ??_C@_0BC@CNEC@models?1fungus?4mdl?$AA@ 1005b2b8     modelprecache.obj
 0003:000102cc       ??_C@_0BJ@CPAO@models?1fungus?$CIsmall?$CJ?4mdl?$AA@ 1005b2cc     modelprecache.obj
 0003:000102e8       ??_C@_0BA@INNO@models?1hair?4mdl?$AA@ 1005b2e8     modelprecache.obj
 0003:000102f8       ??_C@_0BD@FCFN@sprites?1flare3?4spr?$AA@ 1005b2f8     modelprecache.obj
 0003:0001030c       ??_C@_0BB@FDGL@models?1light?4mdl?$AA@ 1005b30c     modelprecache.obj
 0003:00010320       ??_C@_0BG@CPHF@zombie?1claw_miss2?4wav?$AA@ 1005b320     modelprecache.obj
 0003:00010338       ??_C@_0BG@MPBK@zombie?1claw_miss1?4wav?$AA@ 1005b338     modelprecache.obj
 0003:00010350       ??_C@_0BI@NMAI@zombie?1claw_strike3?4wav?$AA@ 1005b350     modelprecache.obj
 0003:00010368       ??_C@_0BI@HMCN@zombie?1claw_strike2?4wav?$AA@ 1005b368     modelprecache.obj
 0003:00010380       ??_C@_0BI@JMEC@zombie?1claw_strike1?4wav?$AA@ 1005b380     modelprecache.obj
 0003:00010398       ??_C@_0BA@GNDD@models?1tree?4mdl?$AA@ 1005b398     modelprecache.obj
 0003:000103a8       ??_C@_0BE@GCJH@models?1mechgibs?4mdl?$AA@ 1005b3a8     modelprecache.obj
 0003:000103bc       ??_C@_0BA@FMHH@models?1ball?4mdl?$AA@ 1005b3bc     modelprecache.obj
 0003:000103cc       ??_C@_0BD@GNFL@models?1uplant3?4mdl?$AA@ 1005b3cc     modelprecache.obj
 0003:000103e0       ??_C@_0BA@NEHD@models?1gman?4mdl?$AA@ 1005b3e0     modelprecache.obj
 0003:000103f0       ??_C@_0BE@DBL@models?1chumtoad?4mdl?$AA@ 1005b3f0     modelprecache.obj
 0003:00010404       ??_C@_0BC@DFBD@models?1bigrat?4mdl?$AA@ 1005b404     modelprecache.obj
 0003:00010418       ??_C@_0BC@FMFA@models?1agrunt?4mdl?$AA@ 1005b418     modelprecache.obj
 0003:0001042c       ??_C@_0BF@OGB@models?1presentsm?4mdl?$AA@ 1005b42c     modelprecache.obj
 0003:00010444       ??_C@_0BF@FAGC@models?1presentlg?4mdl?$AA@ 1005b444     modelprecache.obj
 0003:0001045c       ??_C@_0BC@CABK@models?1aflock?4mdl?$AA@ 1005b45c     modelprecache.obj
 0003:00010470       ??_C@_0BP@ILKL@sprites?1autoop?1predaim_yel?4spr?$AA@ 1005b470     modelprecache.obj
 0003:00010490       ??_C@_0BP@INJC@sprites?1autoop?1predaim_red?4spr?$AA@ 1005b490     modelprecache.obj
 0003:000104b0       ??_C@_07JJMH@sv_zmax?$AA@  1005b4b0     nightgame.obj
 0003:000104b8       ??_C@_03CEJN@nao?$AA@      1005b4b8     nightgame.obj
 0003:000104bc       ??_C@_03KOCH@bld?$AA@      1005b4bc     nightgame.obj
 0003:000104c0       ??_C@_0CE@EBBP@?$FLAUTOOP?$FN?5?$CFs?5moved?5?$CFs?5to?5blue?5tea@ 1005b4c0     playercommands.obj
 0003:000104e4       ??_C@_0BI@JNGF@?$CFs?5moved?5to?5blue?5team?4?6?$AA@ 1005b4e4     playercommands.obj
 0003:00010500       ??_C@_0FG@NMDL@The?5player?5you?5are?5trying?5to?5mes@ 1005b500     playercommands.obj
 0003:00010558       ??_C@_0M@EGHF@jointeam?51?6?$AA@ 1005b558     playercommands.obj
 0003:00010564       ??_C@_0CD@LMGL@?$FLAUTOOP?$FN?5?$CFs?5moved?5?$CFs?5to?5red?5team@ 1005b564     playercommands.obj
 0003:00010588       ??_C@_0BH@MGAF@?$CFs?5moved?5to?5red?5team?4?6?$AA@ 1005b588     playercommands.obj
 0003:000105a0       ??_C@_0M@HNIK@jointeam?52?6?$AA@ 1005b5a0     playercommands.obj
 0003:000105ac       ??_C@_0CG@PJFA@?$FLAUTOOP?$FN?5?$CFs?5moved?5?$CFs?5to?5yellow?5t@ 1005b5ac     playercommands.obj
 0003:000105d4       ??_C@_0BK@KNFO@?$CFs?5moved?5to?5yellow?5team?4?6?$AA@ 1005b5d4     playercommands.obj
 0003:000105f0       ??_C@_0M@GLCA@jointeam?53?6?$AA@ 1005b5f0     playercommands.obj
 0003:000105fc       ??_C@_0CF@CIMF@?$FLAUTOOP?$FN?5?$CFs?5moved?5?$CFs?5to?5green?5te@ 1005b5fc     playercommands.obj
 0003:00010624       ??_C@_0BJ@CGBJ@?$CFs?5moved?5to?5green?5team?4?6?$AA@ 1005b624     playercommands.obj
 0003:00010640       ??_C@_0M@KHF@jointeam?54?6?$AA@ 1005b640     playercommands.obj
 0003:0001064c       ??_C@_0CD@BCBL@?$FLAUTOOP?$FN?5?$CFs?5ran?5command?5on?5?$CFs?3?5?$CF@ 1005b64c     playercommands.obj
 0003:00010670       ??_C@_0CH@GGLD@Console?5command?5run?5on?5users?5con@ 1005b670     playercommands.obj
 0003:00010698       ??_C@_0BP@MPHL@?$FLAUTOOP?$FN?5?$CFs?5used?5VOX?5with?3?$CFs?4?6?$AA@ 1005b698     playercommands.obj
 0003:000106b8       ??_C@_0M@LEGI@speak?5?$CC?$CFs?$CC?6?$AA@ 1005b6b8     playercommands.obj
 0003:000106c4       ??_C@_0CC@ICHL@?$FLAUTOOP?$FN?5?$CFs?5moved?5?$CFs?5to?5himself?4@ 1005b6c4     playercommands.obj
 0003:000106e8       ??_C@_0BK@HNAG@?$FLAUTOOP?$FN?5?$CFs?5moved?5to?5?$CFs?4?6?$AA@ 1005b6e8     playercommands.obj
 0003:00010704       ??_C@_0CM@ELMM@?$FLAUTOOP?$FN?5?$CFs?5changed?5?$CFs?5to?5class?5@ 1005b704     playercommands.obj
 0003:00010730       ??_C@_0CE@DIFM@?$FLAUTOOP?$FN?5?$CFs?5took?5all?5guns?5from?5?$CF@ 1005b730     playercommands.obj
 0003:00010754       ??_C@_0BM@HAJD@Player?5may?5use?5spraypaint?4?6?$AA@ 1005b754     playercommands.obj
 0003:00010770       ??_C@_0BP@FLLF@Player?5cannot?5use?5spraypaint?4?6?$AA@ 1005b770     playercommands.obj
 0003:00010790       ??_C@_0CI@HGFN@Player?5may?5vote?5in?5a?5map?5or?5kick@ 1005b790     playercommands.obj
 0003:000107b8       ??_C@_0CL@CMH@Player?5cannot?5vote?5in?5a?5map?5or?5k@ 1005b7b8     playercommands.obj
 0003:000107e4       ??_C@_0DH@PKIK@You?5have?5been?5warned?5by?5?$CFs?6You?5n@ 1005b7e4     playercommands.obj
 0003:0001081c       ??_C@_0CN@GHHF@Player?5warned?5?9?5player?5now?5has?5?$CF@ 1005b81c     playercommands.obj
 0003:0001084c       ??_C@_0BP@LBIH@Custom?5spawn?5point?5set?5for?5?$CFs?6?$AA@ 1005b84c     playercommands.obj
 0003:0001086c       ??_C@_0CI@OMDL@Killed?5custom?5spawn?5point?5linked@ 1005b86c     playercommands.obj
 0003:00010894       ??_C@_0CB@FIPE@Changed?5time?5of?5?$CFs?5to?5?$CFd?5hours?4?6@ 1005b894     playercommands.obj
 0003:000108b8       ??_C@_0BD@MEBB@From?5?$CFs?5to?5?$CFs?3?5?$CFs?6?$AA@ 1005b8b8     playercommands.obj
 0003:000108cc       ??_C@_0BA@LDCH@Sent?5to?5?$CFs?3?5?$CFs?6?$AA@ 1005b8cc     playercommands.obj
 0003:000108dc       ??_C@_0P@HDND@?$CIPRIV?$CJ?5?$CFs?3?5?$CFs?6?$AA@ 1005b8dc     playercommands.obj
 0003:000108ec       ??_C@_0CL@FLJM@Player?5is?5not?5accepting?5private?5@ 1005b8ec     playercommands.obj
 0003:00010918       ??_C@_09HMLN@spectate?6?$AA@ 1005b918     playercommands.obj
 0003:00010924       ??_C@_0BF@BHMB@scr_connectmsg?5?$CC?$CFs?$CC?6?$AA@ 1005b924     playercommands.obj
 0003:0001093c       ??_C@_0N@IJAH@name?5Player?6?$AA@ 1005b93c     playerstuff.obj
 0003:0001094c       ??_C@_01FPAN@?$HP?$AA@     1005b94c     playerstuff.obj
 0003:00010950       ??_C@_0P@KCLB@banid?51440?5?$CFs?6?$AA@ 1005b950     playerstuff.obj
 0003:00010960       ??_C@_0DO@IFMN@By?5Server?$CIAutoBan?$CJ?0?5Reason?3?5Warn@ 1005b960     playerstuff.obj
 0003:000109a0       ??_C@_0CE@JONC@You?5have?5been?5banned?5for?524?5hour@ 1005b9a0     playerstuff.obj
 0003:000109c4       ??_C@_0BG@HOJK@models?1v_tripmine?4mdl?$AA@ 1005b9c4     playerstuff.obj
 0003:000109dc       ??_C@_0BF@KKOA@disguise_friendly?58?6?$AA@ 1005b9dc     playerstuff.obj
 0003:000109f4       ??_C@_0BG@LPHN@models?1p_tripmine?4mdl?$AA@ 1005b9f4     playerstuff.obj
 0003:00010a0c       ??_C@_0BG@GOPL@models?1v_umbrella?4mdl?$AA@ 1005ba0c     playerstuff.obj
 0003:00010b00       ??_C@_02NNKG@?2?2?$AA@     1005bb00     plugins.obj
 0003:00010b04       ??_C@_0BH@LPHF@tfc?2autoop?2plugins?4ini?$AA@ 1005bb04     plugins.obj
 0003:00010b1c       ??_C@_0DI@MCBO@?$FLAUTOOP?$FN?5Plugin?5?$CC?$CFs?$CC?5seems?5to?5no@ 1005bb1c     plugins.obj
 0003:00010b54       ??_C@_0BO@MLPL@?$FLAUTOOP?$FN?5Loaded?5plugin?5?$CC?$CFs?$CC?4?6?$AA@ 1005bb54     plugins.obj
 0003:00010b74       ??_C@_0BF@ENPC@fnPluginGetInterface?$AA@ 1005bb74     plugins.obj
 0003:00010b8c       ??_C@_0N@EGE@fnPluginInit?$AA@ 1005bb8c     plugins.obj
 0003:00010b9c       ??_C@_0DC@PJEH@?$FLAUTOOP?$FN?5Tried?5to?5load?5plugin?5?$CC?$CF@ 1005bb9c     plugins.obj
 0003:00010bd0       ??_C@_0DO@MOGK@?$FLAUTOOP?$FN?5Ignoring?5load?5of?5plugin@ 1005bbd0     plugins.obj
 0003:00010c10       ??_C@_0M@OEPI@fnPluginEnd?$AA@ 1005bc10     plugins.obj
 0003:00010c1c       ??_C@_0O@EPKO@fnPluginThink?$AA@ 1005bc1c     plugins.obj
 0003:00010c2c       ??_C@_0BD@BGBP@fnClientDisconnect?$AA@ 1005bc2c     plugins.obj
 0003:00010c40       ??_C@_0BA@OAAK@fnClientConnect?$AA@ 1005bc40     plugins.obj
 0003:00010c50       ??_C@_0BA@HHON@fnClientCommand?$AA@ 1005bc50     plugins.obj
 0003:00010c60       ?PROXIMITY_RADIUS@@3HA     1005bc60     proxmine.obj
 0003:00010c64       ??_C@_0CH@PFKK@?$FLAUTOOP?$FN?5?$CFs?5dropped?5a?5proximity?5@ 1005bc64     proxmine.obj
 0003:00010c8c       ??_C@_0BP@NFOJ@You?5cannot?5place?5a?5mine?5here?4?6?$AA@ 1005bc8c     proxmine.obj
 0003:00010cac       ??_C@_0CD@KNAE@You?5have?5no?5proximity?5mines?5left@ 1005bcac     proxmine.obj
 0003:00010cd0       ??_C@_0BH@HNAB@weapon_ao_minedetonate?$AA@ 1005bcd0     proxmine.obj
 0003:00010ce8       ??_C@_0BM@KHDI@Your?5mines?5were?5destroyed?4?6?$AA@ 1005bce8     proxmine.obj
 0003:00010d04       ??_C@_0BO@GFPE@?$FLAUTOOP?$FN?5?$CFs?8s?5mines?5blew?5up?4?6?$AA@ 1005bd04     proxmine.obj
 0003:00010d24       ??_C@_0CA@MFMK@You?5disarmed?5a?5proximity?5mine?4?6?$AA@ 1005bd24     proxmine.obj
 0003:00010d44       ??_C@_0BG@DEJJ@A?5mine?5got?5disarmed?4?6?$AA@ 1005bd44     proxmine.obj
 0003:00010d5c       ??_C@_0BH@OHDF@A?5mine?5got?5triggered?4?6?$AA@ 1005bd5c     proxmine.obj
 0003:00010d78       ?g_Ranks@@3PAUTFXPlayerRank_s@@A 1005bd78     ranks.obj
 0003:00011d68       ??_C@_05IHIJ@Llama?$AA@    1005cd68     ranks.obj
 0003:00011d70       ??_C@_0BN@IFPO@?$FLAUTOOP?$FN?5bot_say?5?$CC?$FL?$CFs?$FN?3?5?$CFs?$CC?6?$AA@ 1005cd70     responsebot.obj
 0003:00011d90       ??_C@_09KEDH@?$FL?$CFs?$FN?3?5?$CFs?6?$AA@ 1005cd90     responsebot.obj
 0003:00011d9c       ??_C@_0CG@KNNF@?$FLAUTOOP?$FN?5bot_say_one?5?$CC?$CFs?$CC?5?$CC?$FL?$CFs?$FN?3@ 1005cd9c     responsebot.obj
 0003:00011dc4       ??_C@_0BP@GOEL@?$FLAUTOOP?$FN?5bot_say_one?5?$FL?$CFs?$FN?3?5?$CFs?6?$AA@ 1005cdc4     responsebot.obj
 0003:00011de4       ??_C@_0N@BIME@BOTRAND?3?5?$CFd?6?$AA@ 1005cde4     responsebot.obj
 0003:00011df4       ??_C@_06OEBF@Hello?4?$AA@  1005cdf4     responsebot.obj
 0003:00011dfc       ??_C@_0N@FBPN@Hello?5there?4?$AA@ 1005cdfc     responsebot.obj
 0003:00011e0c       ??_C@_0M@EJGG@Hey?5there?0?5?$AA@ 1005ce0c     responsebot.obj
 0003:00011e18       ??_C@_05PCGC@Heya?4?$AA@   1005ce18     responsebot.obj
 0003:00011e20       ??_C@_09OEHK@Hi?5there?5?$AA@ 1005ce20     responsebot.obj
 0003:00011e2c       ??_C@_0P@EBCC@lol?$CB?5Ok?5then?0?5?$AA@ 1005ce2c     responsebot.obj
 0003:00011e3c       ??_C@_09MGFF@Anytime?0?5?$AA@ 1005ce3c     responsebot.obj
 0003:00011e48       ??_C@_08CIGB@No?5prob?4?$AA@ 1005ce48     responsebot.obj
 0003:00011e54       ??_C@_0BM@EKOK@Yea?5yea?5I?5know?5im?5the?5best?4?$AA@ 1005ce54     responsebot.obj
 0003:00011e70       ??_C@_01PIHH@?$CB?$AA@     1005ce70     responsebot.obj
 0003:00011e74       ??_C@_0O@GBKG@Fine?0?5thanks?5?$AA@ 1005ce74     responsebot.obj
 0003:00011e84       ??_C@_09OKJO@I?8m?5good?4?$AA@ 1005ce84     responsebot.obj
 0003:00011e90       ??_C@_0BB@NNKE@No?5problem?5here?4?$AA@ 1005ce90     responsebot.obj
 0003:00011ea8       ??_C@_0ED@JAOK@?0?5I?5heard?5they?5make?5lederhosen?5o@ 1005cea8     responsebot.obj
 0003:00011eec       ??_C@_0DK@HCCF@I?5heard?5they?5have?5those?5green?0?5f@ 1005ceec     responsebot.obj
 0003:00011f28       ??_C@_0FI@OIJC@?0?5they?5might?5drive?5a?5bit?5fast?5on@ 1005cf28     responsebot.obj
 0003:00011f80       ??_C@_0EG@OHNN@The?5fat?5guys?5that?5drink?5insane?5a@ 1005cf80     responsebot.obj
 0003:00011fc8       ??_C@_07DGJ@germans?$AA@   1005cfc8     responsebot.obj
 0003:00011fd0       ??_C@_0EC@NDCH@?0?5I?5heard?5they?5make?5crumpets?5out@ 1005cfd0     responsebot.obj
 0003:00012014       ??_C@_06HFOC@well?0?5?$AA@ 1005d014     responsebot.obj
 0003:0001201c       ??_C@_0DB@LNGH@I?5heard?5they?5ate?5crumpets?5and?5dr@ 1005d01c     responsebot.obj
 0003:00012050       ??_C@_0EL@ECAH@?0?5they?5might?5drive?5on?5the?5wrong?5@ 1005d050     responsebot.obj
 0003:0001209c       ??_C@_09HLGN@You?5see?0?5?$AA@ 1005d09c     responsebot.obj
 0003:000120a8       ??_C@_0FJ@DPJF@The?5guys?5that?5wear?5slippers?5and?5@ 1005d0a8     responsebot.obj
 0003:00012104       ??_C@_07ELCN@english?$AA@  1005d104     responsebot.obj
 0003:0001210c       ??_C@_0CP@PF@Better?5not?0?5your?5rubber?9doll?5wou@ 1005d10c     responsebot.obj
 0003:0001213c       ??_C@_0BM@GJFI@?0?5go?5fuck?5a?5tree?0?5alright?$DP?$CB?$AA@ 1005d13c     responsebot.obj
 0003:00012158       ??_C@_0N@GNOJ@Oh?0?5come?5on?5?$AA@ 1005d158     responsebot.obj
 0003:00012168       ??_C@_0CN@FIAA@?5sticking?5his?5noodle?5in?5his?5CD?9R@ 1005d168     responsebot.obj
 0003:00012198       ??_C@_0L@LHFI@I?5can?5see?5?$AA@ 1005d198     responsebot.obj
 0003:000121a4       ??_C@_0CP@HHJJ@Watch?5out?0?5jerk?$CB?5Your?5keyboard?5i@ 1005d1a4     responsebot.obj
 0003:000121d4       ??_C@_04MFFL@fuck?$AA@     1005d1d4     responsebot.obj
 0003:000121dc       ??_C@_0CI@KHJA@Oh?5no?0?5not?5that?5mouthy?5guy?5from?5@ 1005d1dc     responsebot.obj
 0003:00012204       ??_C@_0P@PMLM@its?5me?5scrappy?$AA@ 1005d204     responsebot.obj
 0003:00012214       ??_C@_0CG@NDNK@They?5have?5huge?5beer?9mugs?5in?5germ@ 1005d214     responsebot.obj
 0003:0001223c       ??_C@_0BM@JHBG@?5want?5to?5drink?5one?5with?5me?$DP?$AA@ 1005d23c     responsebot.obj
 0003:00012258       ??_C@_04EHGG@Hey?5?$AA@    1005d258     responsebot.obj
 0003:00012260       ??_C@_0DM@GKFF@If?5you?5go?5to?5germany?0?5try?5a?5beer@ 1005d260     responsebot.obj
 0003:0001229c       ??_C@_04FBNJ@beer?$AA@     1005d29c     responsebot.obj
 0003:000122a4       ??_C@_0BD@MCII@?0?5want?5a?5cup?0?5too?$DP?$AA@ 1005d2a4     responsebot.obj
 0003:000122b8       ??_C@_0BL@HLDO@Oh?0?5how?5unfriendly?5of?5me?$CB?5?$AA@ 1005d2b8     responsebot.obj
 0003:000122d4       ??_C@_0CF@MFAI@No?5thanx?0?5I?5just?5had?5a?5whole?5tea@ 1005d2d4     responsebot.obj
 0003:000122fc       ??_C@_0BH@FEC@YEAH?$CB?5Lets?5get?5drunk?$CB?5?$AA@ 1005d2fc     responsebot.obj
 0003:00012314       ??_C@_0CP@BEBN@I?5have?5mine?5with?5milk?0?5sugar?5and@ 1005d314     responsebot.obj
 0003:00012344       ??_C@_03MAAP@tea?$AA@      1005d344     responsebot.obj
 0003:00012348       ??_C@_0BB@KLNF@Um?4?4?5yeah?0?5sure?5?$AA@ 1005d348     responsebot.obj
 0003:0001235c       ??_C@_0BH@OOCI@Takes?5one?5to?5know?5one?4?$AA@ 1005d35c     responsebot.obj
 0003:00012374       ??_C@_07ICAC@you?5are?$AA@ 1005d374     responsebot.obj
 0003:0001237c       ??_C@_0BB@PEDG@Rob?50wnz?5my?5ass?5?$AA@ 1005d37c     responsebot.obj
 0003:00012390       ??_C@_0BA@BHOH@What?5about?5him?$DP?$AA@ 1005d390     responsebot.obj
 0003:000123a0       ??_C@_0BB@PAPH@I?5know?5that?5guy?4?$AA@ 1005d3a0     responsebot.obj
 0003:000123b4       ??_C@_03ELMA@rob?$AA@      1005d3b4     responsebot.obj
 0003:000123b8       ??_C@_0BD@KFLH@?0?5why?$DP?5aren?8t?5you?$DP?$AA@ 1005d3b8     responsebot.obj
 0003:000123cc       ??_C@_0P@IHJD@Yes?5of?5course?5?$AA@ 1005d3cc     responsebot.obj
 0003:000123dc       ??_C@_07KCNB@are?5you?$AA@ 1005d3dc     responsebot.obj
 0003:000123e4       ??_C@_0N@EFBO@No?5I?5wasn?8t?4?$AA@ 1005d3e4     responsebot.obj
 0003:000123f4       ??_C@_0P@KFOB@Definatly?5not?$CB?$AA@ 1005d3f4     responsebot.obj
 0003:00012404       ??_C@_05ECDD@Yeah?4?$AA@   1005d404     responsebot.obj
 0003:0001240c       ??_C@_08GMNA@were?5you?$AA@ 1005d40c     responsebot.obj
 0003:00012418       ??_C@_06HMHO@you?5ok?$AA@  1005d418     responsebot.obj
 0003:00012420       ??_C@_0M@GIIH@how?5are?5you?$AA@ 1005d420     responsebot.obj
 0003:0001242c       ??_C@_08EAIJ@thankyou?$AA@ 1005d42c     responsebot.obj
 0003:00012438       ??_C@_06OMMG@thanks?$AA@   1005d438     responsebot.obj
 0003:00012440       ??_C@_0BB@ELAH@?4?5I?5shut?5you?5up?4?$AA@ 1005d440     responsebot.obj
 0003:00012454       ??_C@_0BD@DGLM@Thats?5a?5bad?5word?0?5?$AA@ 1005d454     responsebot.obj
 0003:00012468       ??_C@_06OFND@nigger?$AA@   1005d468     responsebot.obj
 0003:00012470       ??_C@_0BP@EBNG@?0?5I?8m?5not?5a?5qualified?5doctor?4?4?$AA@ 1005d470     responsebot.obj
 0003:00012490       ??_C@_0BC@BMEP@I?5can?8t?5help?5you?5?$AA@ 1005d490     responsebot.obj
 0003:000124a4       ??_C@_0BO@NMLI@Try?5saying?5?$CBhelp?5to?5get?5help?4?$AA@ 1005d4a4     responsebot.obj
 0003:000124c4       ??_C@_04MHDN@help?$AA@     1005d4c4     responsebot.obj
 0003:000124cc       ??_C@_0BF@EOIO@?0?5you?8re?5a?5civilian?4?$AA@ 1005d4cc     responsebot.obj
 0003:000124e4       ??_C@_0O@BAOD@make?5me?5a?5civ?$AA@ 1005d4e4     responsebot.obj
 0003:000124f4       ??_C@_0M@CDFA@make?5me?5civ?$AA@ 1005d4f4     responsebot.obj
 0003:00012500       ??_C@_07NCIG@boot?5me?$AA@ 1005d500     responsebot.obj
 0003:00012508       ??_C@_07PBMO@kick?5me?$AA@ 1005d508     responsebot.obj
 0003:00012510       ??_C@_0BG@OONB@What?5flavour?5is?5that?$DP?$AA@ 1005d510     responsebot.obj
 0003:00012528       ??_C@_0BJ@OLOE@No?5thanks?0?5im?5on?5a?5diet?4?$AA@ 1005d528     responsebot.obj
 0003:00012544       ??_C@_0CE@CBEM@mmm?4?4?5Im?5starving?0?5wheres?5the?5fo@ 1005d544     responsebot.obj
 0003:00012568       ??_C@_0L@HML@Got?5pizza?$DP?$AA@ 1005d568     responsebot.obj
 0003:00012574       ??_C@_0CA@OMBP@?0?5I?8m?5not?5hungry?5at?5the?5moment?4?$AA@ 1005d574     responsebot.obj
 0003:00012594       ??_C@_0L@DGE@No?5thanks?5?$AA@ 1005d594     responsebot.obj
 0003:000125a0       ??_C@_03EAGC@eat?$AA@      1005d5a0     responsebot.obj
 0003:000125a4       ??_C@_0CC@DBAO@Hmm?0?5let?5me?5think?5about?5that?5one@ 1005d5a4     responsebot.obj
 0003:000125c8       ??_C@_0BO@CHBE@Of?5course?0?5wheres?5the?5church?$DP?$AA@ 1005d5c8     responsebot.obj
 0003:000125e8       ??_C@_0CJ@LHK@Sorry?5but?5you?8re?5not?5good?5enough@ 1005d5e8     responsebot.obj
 0003:00012614       ??_C@_0BP@NHFF@Sorry?0?5im?5not?5into?5commitment?4?$AA@ 1005d614     responsebot.obj
 0003:00012634       ??_C@_0BB@DGFO@?5wheres?5my?5ring?$DP?$AA@ 1005d634     responsebot.obj
 0003:00012648       ??_C@_03IMC@Ok?5?$AA@      1005d648     responsebot.obj
 0003:0001264c       ??_C@_08LMJ@marry?5me?$AA@ 1005d64c     responsebot.obj
 0003:00012658       ??_C@_0P@GHEF@Yes?5ok?0?5later?4?$AA@ 1005d658     responsebot.obj
 0003:00012668       ??_C@_0P@JDHO@Maybe?5you?5can?4?$AA@ 1005d668     responsebot.obj
 0003:00012678       ??_C@_0O@PEHD@No?5you?5can?8t?4?$AA@ 1005d678     responsebot.obj
 0003:00012688       ??_C@_05FBOE@can?5i?$AA@   1005d688     responsebot.obj
 0003:00012690       ??_C@_06JNDK@do?5you?$AA@  1005d690     responsebot.obj
 0003:00012698       ??_C@_0CE@DKEO@Yes?5I?5do?0?5are?5you?5interested?5in?5@ 1005d698     responsebot.obj
 0003:000126bc       ??_C@_0M@BCBI@do?5you?5have?$AA@ 1005d6bc     responsebot.obj
 0003:000126c8       ??_C@_09NNDH@Thats?5ok?4?$AA@ 1005d6c8     responsebot.obj
 0003:000126d4       ??_C@_0M@IEBI@do?5you?5like?$AA@ 1005d6d4     responsebot.obj
 0003:000126e0       ??_C@_04DPCB@Yep?4?$AA@    1005d6e0     responsebot.obj
 0003:000126e8       ??_C@_05MKIA@Nope?4?$AA@   1005d6e8     responsebot.obj
 0003:000126f0       ??_C@_09IGLP@Yes?5I?5do?4?$AA@ 1005d6f0     responsebot.obj
 0003:000126fc       ??_C@_0N@FPHC@No?5thankyou?4?$AA@ 1005d6fc     responsebot.obj
 0003:0001270c       ??_C@_0L@MINN@No?5I?5dont?4?$AA@ 1005d70c     responsebot.obj
 0003:00012718       ??_C@_0M@ELAN@do?5you?5want?$AA@ 1005d718     responsebot.obj
 0003:00012724       ??_C@_03KLLE@No?4?$AA@     1005d724     responsebot.obj
 0003:00012728       ??_C@_0BC@NMNB@I?5don?8t?5think?5so?4?$AA@ 1005d728     responsebot.obj
 0003:0001273c       ??_C@_0CD@INKL@I?5dont?5want?5to?5seperate?5with?5tha@ 1005d73c     responsebot.obj
 0003:00012760       ??_C@_0BE@JDHL@Then?5give?5me?5money?4?$AA@ 1005d760     responsebot.obj
 0003:00012774       ??_C@_0BH@EDPH@?5I?5won?8t?5give?5you?5that?$AA@ 1005d774     responsebot.obj
 0003:0001278c       ??_C@_07EELJ@Sorry?0?5?$AA@ 1005d78c     responsebot.obj
 0003:00012794       ??_C@_07OIKM@give?5me?$AA@ 1005d794     responsebot.obj
 0003:0001279c       ??_C@_0BI@LCMH@erm?4?4?5Ask?5someone?5else?4?$AA@ 1005d79c     responsebot.obj
 0003:000127b4       ??_C@_0N@CNIO@Not?5from?5me?4?$AA@ 1005d7b4     responsebot.obj
 0003:000127c4       ??_C@_0L@MALD@Dream?5on?0?5?$AA@ 1005d7c4     responsebot.obj
 0003:000127d0       ??_C@_0BC@EMBK@Ok?0?5later?5though?4?$AA@ 1005d7d0     responsebot.obj
 0003:000127e4       ??_C@_0BE@KMGE@I?5want?5never?5gets?0?5?$AA@ 1005d7e4     responsebot.obj
 0003:000127f8       ??_C@_06GNGH@i?5want?$AA@  1005d7f8     responsebot.obj
 0003:00012800       ??_C@_0P@IACA@Maybe?5you?5are?4?$AA@ 1005d800     responsebot.obj
 0003:00012810       ??_C@_0BC@JPLF@I?5don?8t?5you?5are?0?5?$AA@ 1005d810     responsebot.obj
 0003:00012824       ??_C@_0BB@CDP@I?5already?5knew?0?5?$AA@ 1005d824     responsebot.obj
 0003:00012838       ??_C@_04HJNO@i?5am?$AA@    1005d838     responsebot.obj
 0003:00012840       ??_C@_0O@DMAP@I?8m?5not?5sure?4?$AA@ 1005d840     responsebot.obj
 0003:00012850       ??_C@_0BD@POGJ@I?5don?8t?5think?5so?0?5?$AA@ 1005d850     responsebot.obj
 0003:00012864       ??_C@_0P@CPPN@Yeah?0?5I?5agree?4?$AA@ 1005d864     responsebot.obj
 0003:00012874       ??_C@_0BD@LBAP@I?5agree?5with?5you?0?5?$AA@ 1005d874     responsebot.obj
 0003:00012888       ??_C@_05CABN@thats?$AA@    1005d888     responsebot.obj
 0003:00012890       ??_C@_0L@KIKO@No?5thanks?4?$AA@ 1005d890     responsebot.obj
 0003:0001289c       ??_C@_0N@FHPF@I?5think?5not?4?$AA@ 1005d89c     responsebot.obj
 0003:000128ac       ??_C@_01PJCK@?4?$AA@       1005d8ac     responsebot.obj
 0003:000128b0       ??_C@_0BI@BLIM@Whatever?5turns?5you?5on?0?5?$AA@ 1005d8b0     responsebot.obj
 0003:000128c8       ??_C@_0N@NLOB@Suck?5what?$DP?$CB?$DP?$AA@ 1005d8c8     responsebot.obj
 0003:000128d8       ??_C@_0P@GJJO@Um?5no?5thinks?0?5?$AA@ 1005d8d8     responsebot.obj
 0003:000128e8       ??_C@_04CAGA@suck?$AA@     1005d8e8     responsebot.obj
 0003:000128f0       ??_C@_02EANN@yo?$AA@       1005d8f0     responsebot.obj
 0003:000128f4       ??_C@_05DLON@hello?$AA@    1005d8f4     responsebot.obj
 0003:000128fc       ??_C@_03MEEC@hey?$AA@      1005d8fc     responsebot.obj
 0003:00012900       ??_C@_02MDKM@hi?$AA@       1005d900     responsebot.obj
 0003:00012904       ??_C@_0BI@CFLB@Found?5noone?5to?5revive?4?6?$AA@ 1005d904     revive.obj
 0003:0001291c       ??_C@_0CL@OBPP@You?5cannot?5revive?5more?6than?5once@ 1005d91c     revive.obj
 0003:00012948       ??_C@_0DG@OHHM@?$CC?$CFs?$CC?5is?5an?5unrecognised?5AutoOP?5H@ 1005d948     servercommands.obj
 0003:00012980       ??_C@_0EC@FDAA@useage?3?5admc?5?$DMcommand?$DO?5?$DMparamete@ 1005d980     servercommands.obj
 0003:000129c4       ??_C@_0DC@JDGM@addadmin?3?5deletes?5an?5admin?5with?5@ 1005d9c4     servercommands.obj
 0003:000129f8       ??_C@_0BP@GJM@useage?3?5admc?5deladmin?5?$DMwonid?$DO?6?$AA@ 1005d9f8     servercommands.obj
 0003:00012a18       ??_C@_08OBGP@deladmin?$AA@ 1005da18     servercommands.obj
 0003:00012a24       ??_C@_0DM@GAHG@addadmin?3?5creates?5an?5admin?5with?5@ 1005da24     servercommands.obj
 0003:00012a60       ??_C@_0CH@BPCO@useage?3?5admc?5addadmin?5?$DMwonid?$DO?5?$DMl@ 1005da60     servercommands.obj
 0003:00012a88       ??_C@_08KGP@addadmin?$AA@  1005da88     servercommands.obj
 0003:00012a98       ??_C@_0HD@GPO@AutoOP?5System?5info?6?9?9?9?9?9?9?9?9?9?9?9?9?9@ 1005da98     servercommands.obj
 0003:00012b0c       ??_C@_07IJP@sysinfo?$AA@   1005db0c     servercommands.obj
 0003:00012b14       ??_C@_0CC@GICP@AutoOP?5Shodan?5version?5?$CFs?0?5rev?5?$CFs@ 1005db14     servercommands.obj
 0003:00012b38       ??_C@_07BPOH@version?$AA@  1005db38     servercommands.obj
 0003:00012b40       ??_C@_0CN@NCJO@There?5is?5no?5reserved?5slot?5curren@ 1005db40     servercommands.obj
 0003:00012b70       ??_C@_0BK@DCFD@Reserved?5slot?5cancelled?4?6?$AA@ 1005db70     servercommands.obj
 0003:00012b8c       ??_C@_0O@MJAA@unreserveslot?$AA@ 1005db8c     servercommands.obj
 0003:00012b9c       ??_C@_0CF@DCEC@A?5Reserved?5slot?5set?5for?5?$CFd?5secon@ 1005db9c     servercommands.obj
 0003:00012bc8       ??_C@_0FF@BIPG@useage?3?5admc?5reserveslot?5?$DMsecond@ 1005dbc8     servercommands.obj
 0003:00012c20       ??_C@_0EE@PBK@There?5is?5already?5a?5reserved?5slot@ 1005dc20     servercommands.obj
 0003:00012c64       ??_C@_0M@HJBK@reserveslot?$AA@ 1005dc64     servercommands.obj
 0003:00012c70       ?g_SkinNames@@3PAPADA      1005dc70     skins.obj
 0003:00012cf8       ?g_WeaponSkinNames@@3PAPADA 1005dcf8     skins.obj
 0003:00012d80       ?SkinLibrary@@3PAUTFXSkin_s@@A 1005dd80     skins.obj
 0003:00014edc       ??_C@_0L@BDPF@aowskin033?$AA@ 1005fedc     skins.obj
 0003:00014ee8       ??_C@_0L@LJGC@aowskin032?$AA@ 1005fee8     skins.obj
 0003:00014ef4       ??_C@_0L@EGNL@aowskin031?$AA@ 1005fef4     skins.obj
 0003:00014f00       ??_C@_0L@OMEM@aowskin030?$AA@ 1005ff00     skins.obj
 0003:00014f0c       ??_C@_0L@EMJ@aowskin029?$AA@ 1005ff0c     skins.obj
 0003:00014f18       ??_C@_0L@KOFO@aowskin028?$AA@ 1005ff18     skins.obj
 0003:00014f24       ??_C@_0L@KPAD@aowskin027?$AA@ 1005ff24     skins.obj
 0003:00014f30       ??_C@_0L@FJE@aowskin026?$AA@ 1005ff30     skins.obj
 0003:00014f3c       ??_C@_0L@PKCN@aowskin025?$AA@ 1005ff3c     skins.obj
 0003:00014f48       ??_C@_0L@FALK@aowskin024?$AA@ 1005ff48     skins.obj
 0003:00014f54       ??_C@_0L@FFP@aowskin023?$AA@ 1005ff54     skins.obj
 0003:00014f60       ??_C@_0L@KPMI@aowskin022?$AA@ 1005ff60     skins.obj
 0003:00014f6c       ??_C@_0L@FAHB@aowskin021?$AA@ 1005ff6c     skins.obj
 0003:00014f78       ??_C@_0L@PKOG@aowskin020?$AA@ 1005ff78     skins.obj
 0003:00014f84       ??_C@_0L@DPDG@aowskin019?$AA@ 1005ff84     skins.obj
 0003:00014f90       ??_C@_0L@JFKB@aowskin018?$AA@ 1005ff90     skins.obj
 0003:00014f9c       ??_C@_0L@JEPM@aowskin017?$AA@ 1005ff9c     skins.obj
 0003:00014fa8       ??_C@_0L@DOGL@aowskin016?$AA@ 1005ffa8     skins.obj
 0003:00014fb4       ??_C@_0L@MBNC@aowskin015?$AA@ 1005ffb4     skins.obj
 0003:00014fc0       ??_C@_0L@GLEF@aowskin014?$AA@ 1005ffc0     skins.obj
 0003:00014fcc       ??_C@_0L@DOKA@aowskin013?$AA@ 1005ffcc     skins.obj
 0003:00014fd8       ??_C@_0L@JEDH@aowskin012?$AA@ 1005ffd8     skins.obj
 0003:00014fe4       ??_C@_0L@GLIO@aowskin011?$AA@ 1005ffe4     skins.obj
 0003:00014ff0       ??_C@_0L@MBBJ@aowskin010?$AA@ 1005fff0     skins.obj
 0003:00014ffc       ??_C@_0L@CJJM@aowskin009?$AA@ 1005fffc     skins.obj
 0003:00015008       ??_C@_0L@IDAL@aowskin008?$AA@ 10060008     skins.obj
 0003:00015014       ??_C@_0L@ICFG@aowskin007?$AA@ 10060014     skins.obj
 0003:00015020       ??_C@_0L@CIMB@aowskin006?$AA@ 10060020     skins.obj
 0003:0001502c       ??_C@_0L@NHHI@aowskin005?$AA@ 1006002c     skins.obj
 0003:00015038       ??_C@_0L@HNOP@aowskin004?$AA@ 10060038     skins.obj
 0003:00015044       ??_C@_0L@CIAK@aowskin003?$AA@ 10060044     skins.obj
 0003:00015050       ??_C@_0L@ICJN@aowskin002?$AA@ 10060050     skins.obj
 0003:0001505c       ??_C@_0L@HNCE@aowskin001?$AA@ 1006005c     skins.obj
 0003:00015068       ??_C@_0L@NHLD@aowskin000?$AA@ 10060068     skins.obj
 0003:00015074       ??_C@_09MIIA@aoskin033?$AA@ 10060074     skins.obj
 0003:00015080       ??_C@_09GCBH@aoskin032?$AA@ 10060080     skins.obj
 0003:0001508c       ??_C@_09JNKO@aoskin031?$AA@ 1006008c     skins.obj
 0003:00015098       ??_C@_09DHDJ@aoskin030?$AA@ 10060098     skins.obj
 0003:000150a4       ??_C@_09NPLM@aoskin029?$AA@ 100600a4     skins.obj
 0003:000150b0       ??_C@_09HFCL@aoskin028?$AA@ 100600b0     skins.obj
 0003:000150bc       ??_C@_09HEHG@aoskin027?$AA@ 100600bc     skins.obj
 0003:000150c8       ??_C@_09NOOB@aoskin026?$AA@ 100600c8     skins.obj
 0003:000150d4       ??_C@_09CBFI@aoskin025?$AA@ 100600d4     skins.obj
 0003:000150e0       ??_C@_09ILMP@aoskin024?$AA@ 100600e0     skins.obj
 0003:000150ec       ??_C@_09NOCK@aoskin023?$AA@ 100600ec     skins.obj
 0003:000150f8       ??_C@_09HELN@aoskin022?$AA@ 100600f8     skins.obj
 0003:00015104       ??_C@_09ILAE@aoskin021?$AA@ 10060104     skins.obj
 0003:00015110       ??_C@_09CBJD@aoskin020?$AA@ 10060110     skins.obj
 0003:0001511c       ??_C@_09OEED@aoskin019?$AA@ 1006011c     skins.obj
 0003:00015128       ??_C@_09EONE@aoskin018?$AA@ 10060128     skins.obj
 0003:00015134       ??_C@_09EPIJ@aoskin017?$AA@ 10060134     skins.obj
 0003:00015140       ??_C@_09OFBO@aoskin016?$AA@ 10060140     skins.obj
 0003:0001514c       ??_C@_09BKKH@aoskin015?$AA@ 1006014c     skins.obj
 0003:00015158       ??_C@_09LADA@aoskin014?$AA@ 10060158     skins.obj
 0003:00015164       ??_C@_09OFNF@aoskin013?$AA@ 10060164     skins.obj
 0003:00015170       ??_C@_09EPEC@aoskin012?$AA@ 10060170     skins.obj
 0003:0001517c       ??_C@_09LAPL@aoskin011?$AA@ 1006017c     skins.obj
 0003:00015188       ??_C@_09BKGM@aoskin010?$AA@ 10060188     skins.obj
 0003:00015194       ??_C@_09PCOJ@aoskin009?$AA@ 10060194     skins.obj
 0003:000151a0       ??_C@_09FIHO@aoskin008?$AA@ 100601a0     skins.obj
 0003:000151ac       ??_C@_09FJCD@aoskin007?$AA@ 100601ac     skins.obj
 0003:000151b8       ??_C@_09PDLE@aoskin006?$AA@ 100601b8     skins.obj
 0003:000151c4       ??_C@_09MAN@aoskin005?$AA@ 100601c4     skins.obj
 0003:000151d0       ??_C@_09KGJK@aoskin004?$AA@ 100601d0     skins.obj
 0003:000151dc       ??_C@_09PDHP@aoskin003?$AA@ 100601dc     skins.obj
 0003:000151e8       ??_C@_09FJOI@aoskin002?$AA@ 100601e8     skins.obj
 0003:000151f4       ??_C@_09KGFB@aoskin001?$AA@ 100601f4     skins.obj
 0003:00015200       ??_C@_09MMG@aoskin000?$AA@ 10060200     skins.obj
 0003:0001520c       ??_C@_0BG@MJOG@Skin?5number?5invalid?$CB?6?$AA@ 1006020c     skins.obj
 0003:00015224       ??_C@_0BM@OJAA@?$FLAUTOOP?$FN?5?$CFs?5put?5on?5a?5skin?4?6?$AA@ 10060224     skins.obj
 0003:00015240       ??_C@_0BG@BKJ@Skin?5?$CFd?5applied?5?$CI?$CFs?$CJ?6?$AA@ 10060240     skins.obj
 0003:00015258       ??_C@_02MECO@?$CFd?$AA@    10060258     skins.obj
 0003:0001525c       ??_C@_08JMNC@topcolor?$AA@ 1006025c     skins.obj
 0003:00015268       ??_C@_0BO@JMNI@?$FLAUTOOP?$FN?5?$CFs?5dropped?5a?5snark?4?6?$AA@ 10060268     snarks.obj
 0003:00015288       ??_C@_0BK@KKB@You?5have?5no?5snarks?5left?4?6?$AA@ 10060288     snarks.obj
 0003:000152a4       ??_C@_0O@GDHL@ao_snark_kill?$AA@ 100602a4     snarks.obj
 0003:000152b4       ??_C@_0CL@FOFC@?$FLAUTOOP?$FN?5?$CFs?5activated?5stealth?5ca@ 100602b4     stealth.obj
 0003:000152e0       ??_C@_0BD@KCOB@r_drawviewmodel?50?6?$AA@ 100602e0     stealth.obj
 0003:000152f4       ??_C@_0CB@EGBJ@Stealth?5camoflauge?5activated?4?4?4?6@ 100602f4     stealth.obj
 0003:00015318       ??_C@_0CA@NAPP@Health?5too?5low?5to?5use?5stealth?4?6?$AA@ 10060318     stealth.obj
 0003:00015338       ??_C@_0CN@HKAH@?$FLAUTOOP?$FN?5?$CFs?5deactivated?5stealth?5@ 10060338     stealth.obj
 0003:00015368       ??_C@_0BD@LEEL@r_drawviewmodel?51?6?$AA@ 10060368     stealth.obj
 0003:0001537c       ??_C@_0CD@PIBE@Stealth?5camoflauge?5deactivated?4?4@ 1006037c     stealth.obj
 0003:000153a0       ??_C@_0CF@BGKA@You?5started?5to?5charge?5a?5superfla@ 100603a0     superflame.obj
 0003:000153c8       ??_C@_0BN@KBIE@You?5cannot?5flame?5this?5area?4?6?$AA@ 100603c8     superflame.obj
 0003:000153e8       ??_C@_0CH@FJGI@Your?5last?5superflame?5is?5still?5ac@ 100603e8     superflame.obj
 0003:00015410       ??_C@_0BH@PHIF@SuperFlame?5Engaged?4?4?4?6?$AA@ 10060410     superflame.obj
 0003:00015428       ??_C@_0BP@LLBJ@10?5Seconds?5till?5superflame?4?4?4?6?$AA@ 10060428     superflame.obj
 0003:00015448       ??_C@_0BP@LEAB@20?5Seconds?5till?5superflame?4?4?4?6?$AA@ 10060448     superflame.obj
 0003:00015468       ??_C@_0BP@EOPG@30?5Seconds?5till?5superflame?4?4?4?6?$AA@ 10060468     superflame.obj
 0003:00015488       ??_C@_0CH@PBIO@You?5stopped?5charging?5your?5Superf@ 10060488     superflame.obj
 0003:000154b0       ??_C@_0O@HCCE@ao_tazar_kill?$AA@ 100604b0     tazar.obj
 0003:000154c0       ??_C@_0CC@ILBC@FireTazar?$CI?$CJ?3?5Player?5fired?5tazar?4@ 100604c0     tazar.obj
 0003:000154e4       ??_C@_0BF@IKNH@Teleporter?5created?4?6?$AA@ 100604e4     teleporters.obj
 0003:000154fc       ??_C@_0CL@OLIG@You?5must?5enter?5a?5name?5for?5the?5te@ 100604fc     teleporters.obj
 0003:00015528       ??_C@_0BN@NHAO@Destination?5already?5exists?4?6?$AA@ 10060528     teleporters.obj
 0003:00015548       ??_C@_0CB@GJAD@Teleporter?5destination?5created?4?6@ 10060548     teleporters.obj
 0003:0001556c       ??_C@_0BF@OKOC@Teleporters?5killed?4?6?$AA@ 1006056c     teleporters.obj
 0003:00015588       ?g_RedTargets@@3PAPADA     10060588     trainstuff.obj
 0003:00015948       ?g_BlueTargets@@3PAPADA    10060948     trainstuff.obj
 0003:00015d08       ?g_YellowTargets@@3PAPADA  10060d08     trainstuff.obj
 0003:000160c8       ?g_GreenTargets@@3PAPADA   100610c8     trainstuff.obj
 0003:00016488       ?g_TrainNames@@3PAPADA     10061488     trainstuff.obj
 0003:00016498       ??_C@_09PIIL@gtfxtrain?$AA@ 10061498     trainstuff.obj
 0003:000164a4       ??_C@_09EDPI@ytfxtrain?$AA@ 100614a4     trainstuff.obj
 0003:000164b0       ??_C@_09DDOD@btfxtrain?$AA@ 100614b0     trainstuff.obj
 0003:000164bc       ??_C@_09BHGB@rtfxtrain?$AA@ 100614bc     trainstuff.obj
 0003:000164c8       ??_C@_08JKNP@gtfxt240?$AA@ 100614c8     trainstuff.obj
 0003:000164d4       ??_C@_08FKF@gtfxt239?$AA@  100614d4     trainstuff.obj
 0003:000164e0       ??_C@_08KPDC@gtfxt238?$AA@ 100614e0     trainstuff.obj
 0003:000164ec       ??_C@_08KOGP@gtfxt237?$AA@ 100614ec     trainstuff.obj
 0003:000164f8       ??_C@_08EPI@gtfxt236?$AA@  100614f8     trainstuff.obj
 0003:00016504       ??_C@_08PLEB@gtfxt235?$AA@ 10061504     trainstuff.obj
 0003:00016510       ??_C@_08FBNG@gtfxt234?$AA@ 10061510     trainstuff.obj
 0003:0001651c       ??_C@_08EDD@gtfxt233?$AA@  1006151c     trainstuff.obj
 0003:00016528       ??_C@_08KOKE@gtfxt232?$AA@ 10061528     trainstuff.obj
 0003:00016534       ??_C@_08FBBN@gtfxt231?$AA@ 10061534     trainstuff.obj
 0003:00016540       ??_C@_08PLIK@gtfxt230?$AA@ 10061540     trainstuff.obj
 0003:0001654c       ??_C@_08BDAP@gtfxt229?$AA@ 1006154c     trainstuff.obj
 0003:00016558       ??_C@_08LJJI@gtfxt228?$AA@ 10061558     trainstuff.obj
 0003:00016564       ??_C@_08LIMF@gtfxt227?$AA@ 10061564     trainstuff.obj
 0003:00016570       ??_C@_08BCFC@gtfxt226?$AA@ 10061570     trainstuff.obj
 0003:0001657c       ??_C@_08ONOL@gtfxt225?$AA@ 1006157c     trainstuff.obj
 0003:00016588       ??_C@_08EHHM@gtfxt224?$AA@ 10061588     trainstuff.obj
 0003:00016594       ??_C@_08BCJJ@gtfxt223?$AA@ 10061594     trainstuff.obj
 0003:000165a0       ??_C@_08LIAO@gtfxt222?$AA@ 100615a0     trainstuff.obj
 0003:000165ac       ??_C@_08EHLH@gtfxt221?$AA@ 100615ac     trainstuff.obj
 0003:000165b8       ??_C@_08ONCA@gtfxt220?$AA@ 100615b8     trainstuff.obj
 0003:000165c4       ??_C@_08CIPA@gtfxt219?$AA@ 100615c4     trainstuff.obj
 0003:000165d0       ??_C@_08ICGH@gtfxt218?$AA@ 100615d0     trainstuff.obj
 0003:000165dc       ??_C@_08IDDK@gtfxt217?$AA@ 100615dc     trainstuff.obj
 0003:000165e8       ??_C@_08CJKN@gtfxt216?$AA@ 100615e8     trainstuff.obj
 0003:000165f4       ??_C@_08NGBE@gtfxt215?$AA@ 100615f4     trainstuff.obj
 0003:00016600       ??_C@_08HMID@gtfxt214?$AA@ 10061600     trainstuff.obj
 0003:0001660c       ??_C@_08CJGG@gtfxt213?$AA@ 1006160c     trainstuff.obj
 0003:00016618       ??_C@_09HJPJ@gtfxt2212?$AA@ 10061618     trainstuff.obj
 0003:00016624       ??_C@_08HMEI@gtfxt211?$AA@ 10061624     trainstuff.obj
 0003:00016630       ??_C@_08NGNP@gtfxt210?$AA@ 10061630     trainstuff.obj
 0003:0001663c       ??_C@_08DOFK@gtfxt209?$AA@ 1006163c     trainstuff.obj
 0003:00016648       ??_C@_08JEMN@gtfxt208?$AA@ 10061648     trainstuff.obj
 0003:00016654       ??_C@_08JFJA@gtfxt207?$AA@ 10061654     trainstuff.obj
 0003:00016660       ??_C@_08DPAH@gtfxt206?$AA@ 10061660     trainstuff.obj
 0003:0001666c       ??_C@_08MALO@gtfxt205?$AA@ 1006166c     trainstuff.obj
 0003:00016678       ??_C@_08GKCJ@gtfxt204?$AA@ 10061678     trainstuff.obj
 0003:00016684       ??_C@_08DPMM@gtfxt203?$AA@ 10061684     trainstuff.obj
 0003:00016690       ??_C@_08JFFL@gtfxt202?$AA@ 10061690     trainstuff.obj
 0003:0001669c       ??_C@_08GKOC@gtfxt201?$AA@ 1006169c     trainstuff.obj
 0003:000166a8       ??_C@_08MAHF@gtfxt200?$AA@ 100616a8     trainstuff.obj
 0003:000166b4       ??_C@_08GLJP@gtfxt199?$AA@ 100616b4     trainstuff.obj
 0003:000166c0       ??_C@_08MBAI@gtfxt198?$AA@ 100616c0     trainstuff.obj
 0003:000166cc       ??_C@_08MAFF@gtfxt197?$AA@ 100616cc     trainstuff.obj
 0003:000166d8       ??_C@_08GKMC@gtfxt196?$AA@ 100616d8     trainstuff.obj
 0003:000166e4       ??_C@_08JFHL@gtfxt195?$AA@ 100616e4     trainstuff.obj
 0003:000166f0       ??_C@_08DPOM@gtfxt194?$AA@ 100616f0     trainstuff.obj
 0003:000166fc       ??_C@_08GKAJ@gtfxt193?$AA@ 100616fc     trainstuff.obj
 0003:00016708       ??_C@_08MAJO@gtfxt192?$AA@ 10061708     trainstuff.obj
 0003:00016714       ??_C@_08DPCH@gtfxt191?$AA@ 10061714     trainstuff.obj
 0003:00016720       ??_C@_08JFLA@gtfxt190?$AA@ 10061720     trainstuff.obj
 0003:0001672c       ??_C@_08HNDF@gtfxt189?$AA@ 1006172c     trainstuff.obj
 0003:00016738       ??_C@_08NHKC@gtfxt188?$AA@ 10061738     trainstuff.obj
 0003:00016744       ??_C@_08NGPP@gtfxt187?$AA@ 10061744     trainstuff.obj
 0003:00016750       ??_C@_08HMGI@gtfxt186?$AA@ 10061750     trainstuff.obj
 0003:0001675c       ??_C@_08IDNB@gtfxt185?$AA@ 1006175c     trainstuff.obj
 0003:00016768       ??_C@_08CJEG@gtfxt184?$AA@ 10061768     trainstuff.obj
 0003:00016774       ??_C@_08HMKD@gtfxt183?$AA@ 10061774     trainstuff.obj
 0003:00016780       ??_C@_08NGDE@gtfxt182?$AA@ 10061780     trainstuff.obj
 0003:0001678c       ??_C@_08CJIN@gtfxt181?$AA@ 1006178c     trainstuff.obj
 0003:00016798       ??_C@_08IDBK@gtfxt180?$AA@ 10061798     trainstuff.obj
 0003:000167a4       ??_C@_08KJDE@gtfxt179?$AA@ 100617a4     trainstuff.obj
 0003:000167b0       ??_C@_08DKD@gtfxt178?$AA@  100617b0     trainstuff.obj
 0003:000167bc       ??_C@_08CPO@gtfxt177?$AA@  100617bc     trainstuff.obj
 0003:000167c8       ??_C@_08KIGJ@gtfxt176?$AA@ 100617c8     trainstuff.obj
 0003:000167d4       ??_C@_08FHNA@gtfxt175?$AA@ 100617d4     trainstuff.obj
 0003:000167e0       ??_C@_08PNEH@gtfxt174?$AA@ 100617e0     trainstuff.obj
 0003:000167ec       ??_C@_08KIKC@gtfxt173?$AA@ 100617ec     trainstuff.obj
 0003:000167f8       ??_C@_08CDF@gtfxt172?$AA@  100617f8     trainstuff.obj
 0003:00016804       ??_C@_08PNIM@gtfxt171?$AA@ 10061804     trainstuff.obj
 0003:00016810       ??_C@_08FHBL@gtfxt170?$AA@ 10061810     trainstuff.obj
 0003:0001681c       ??_C@_08LPJO@gtfxt169?$AA@ 1006181c     trainstuff.obj
 0003:00016828       ??_C@_08BFAJ@gtfxt168?$AA@ 10061828     trainstuff.obj
 0003:00016834       ??_C@_08BEFE@gtfxt167?$AA@ 10061834     trainstuff.obj
 0003:00016840       ??_C@_08LOMD@gtfxt166?$AA@ 10061840     trainstuff.obj
 0003:0001684c       ??_C@_08EBHK@gtfxt165?$AA@ 1006184c     trainstuff.obj
 0003:00016858       ??_C@_08OLON@gtfxt164?$AA@ 10061858     trainstuff.obj
 0003:00016864       ??_C@_08LOAI@gtfxt163?$AA@ 10061864     trainstuff.obj
 0003:00016870       ??_C@_08BEJP@gtfxt162?$AA@ 10061870     trainstuff.obj
 0003:0001687c       ??_C@_08OLCG@gtfxt161?$AA@ 1006187c     trainstuff.obj
 0003:00016888       ??_C@_08EBLB@gtfxt160?$AA@ 10061888     trainstuff.obj
 0003:00016894       ??_C@_08IEGB@gtfxt159?$AA@ 10061894     trainstuff.obj
 0003:000168a0       ??_C@_08COPG@gtfxt158?$AA@ 100618a0     trainstuff.obj
 0003:000168ac       ??_C@_08CPKL@gtfxt157?$AA@ 100618ac     trainstuff.obj
 0003:000168b8       ??_C@_08IFDM@gtfxt156?$AA@ 100618b8     trainstuff.obj
 0003:000168c4       ??_C@_08HKIF@gtfxt155?$AA@ 100618c4     trainstuff.obj
 0003:000168d0       ??_C@_08NABC@gtfxt154?$AA@ 100618d0     trainstuff.obj
 0003:000168dc       ??_C@_08IFPH@gtfxt153?$AA@ 100618dc     trainstuff.obj
 0003:000168e8       ??_C@_08CPGA@gtfxt152?$AA@ 100618e8     trainstuff.obj
 0003:000168f4       ??_C@_08NANJ@gtfxt151?$AA@ 100618f4     trainstuff.obj
 0003:00016900       ??_C@_08HKEO@gtfxt150?$AA@ 10061900     trainstuff.obj
 0003:0001690c       ??_C@_08JCML@gtfxt149?$AA@ 1006190c     trainstuff.obj
 0003:00016918       ??_C@_08DIFM@gtfxt148?$AA@ 10061918     trainstuff.obj
 0003:00016924       ??_C@_08DJAB@gtfxt147?$AA@ 10061924     trainstuff.obj
 0003:00016930       ??_C@_08JDJG@gtfxt146?$AA@ 10061930     trainstuff.obj
 0003:0001693c       ??_C@_08GMCP@gtfxt145?$AA@ 1006193c     trainstuff.obj
 0003:00016948       ??_C@_08MGLI@gtfxt144?$AA@ 10061948     trainstuff.obj
 0003:00016954       ??_C@_08JDFN@gtfxt143?$AA@ 10061954     trainstuff.obj
 0003:00016960       ??_C@_08DJMK@gtfxt142?$AA@ 10061960     trainstuff.obj
 0003:0001696c       ??_C@_08MGHD@gtfxt141?$AA@ 1006196c     trainstuff.obj
 0003:00016978       ??_C@_08GMOE@gtfxt140?$AA@ 10061978     trainstuff.obj
 0003:00016984       ??_C@_08PDJO@gtfxt139?$AA@ 10061984     trainstuff.obj
 0003:00016990       ??_C@_08FJAJ@gtfxt138?$AA@ 10061990     trainstuff.obj
 0003:0001699c       ??_C@_08FIFE@gtfxt137?$AA@ 1006199c     trainstuff.obj
 0003:000169a8       ??_C@_08PCMD@gtfxt136?$AA@ 100619a8     trainstuff.obj
 0003:000169b4       ??_C@_08NHK@gtfxt135?$AA@  100619b4     trainstuff.obj
 0003:000169c0       ??_C@_08KHON@gtfxt134?$AA@ 100619c0     trainstuff.obj
 0003:000169cc       ??_C@_08PCAI@gtfxt133?$AA@ 100619cc     trainstuff.obj
 0003:000169d8       ??_C@_08FIJP@gtfxt132?$AA@ 100619d8     trainstuff.obj
 0003:000169e4       ??_C@_08KHCG@gtfxt131?$AA@ 100619e4     trainstuff.obj
 0003:000169f0       ??_C@_08NLB@gtfxt130?$AA@  100619f0     trainstuff.obj
 0003:000169fc       ??_C@_08OFDE@gtfxt129?$AA@ 100619fc     trainstuff.obj
 0003:00016a08       ??_C@_08EPKD@gtfxt128?$AA@ 10061a08     trainstuff.obj
 0003:00016a14       ??_C@_08EOPO@gtfxt127?$AA@ 10061a14     trainstuff.obj
 0003:00016a20       ??_C@_08OEGJ@gtfxt126?$AA@ 10061a20     trainstuff.obj
 0003:00016a2c       ??_C@_08BLNA@gtfxt125?$AA@ 10061a2c     trainstuff.obj
 0003:00016a38       ??_C@_08LBEH@gtfxt124?$AA@ 10061a38     trainstuff.obj
 0003:00016a44       ??_C@_08OEKC@gtfxt123?$AA@ 10061a44     trainstuff.obj
 0003:00016a50       ??_C@_08EODF@gtfxt122?$AA@ 10061a50     trainstuff.obj
 0003:00016a5c       ??_C@_08LBIM@gtfxt121?$AA@ 10061a5c     trainstuff.obj
 0003:00016a68       ??_C@_08BLBL@gtfxt120?$AA@ 10061a68     trainstuff.obj
 0003:00016a74       ??_C@_08NOML@gtfxt119?$AA@ 10061a74     trainstuff.obj
 0003:00016a80       ??_C@_08HEFM@gtfxt118?$AA@ 10061a80     trainstuff.obj
 0003:00016a8c       ??_C@_08HFAB@gtfxt117?$AA@ 10061a8c     trainstuff.obj
 0003:00016a98       ??_C@_08NPJG@gtfxt116?$AA@ 10061a98     trainstuff.obj
 0003:00016aa4       ??_C@_08CACP@gtfxt115?$AA@ 10061aa4     trainstuff.obj
 0003:00016ab0       ??_C@_08IKLI@gtfxt114?$AA@ 10061ab0     trainstuff.obj
 0003:00016abc       ??_C@_08NPFN@gtfxt113?$AA@ 10061abc     trainstuff.obj
 0003:00016ac8       ??_C@_08HFMK@gtfxt112?$AA@ 10061ac8     trainstuff.obj
 0003:00016ad4       ??_C@_08IKHD@gtfxt111?$AA@ 10061ad4     trainstuff.obj
 0003:00016ae0       ??_C@_08CAOE@gtfxt110?$AA@ 10061ae0     trainstuff.obj
 0003:00016aec       ??_C@_08MIGB@gtfxt109?$AA@ 10061aec     trainstuff.obj
 0003:00016af8       ??_C@_08GCPG@gtfxt108?$AA@ 10061af8     trainstuff.obj
 0003:00016b04       ??_C@_08GDKL@gtfxt107?$AA@ 10061b04     trainstuff.obj
 0003:00016b10       ??_C@_08MJDM@gtfxt106?$AA@ 10061b10     trainstuff.obj
 0003:00016b1c       ??_C@_08DGIF@gtfxt105?$AA@ 10061b1c     trainstuff.obj
 0003:00016b28       ??_C@_08JMBC@gtfxt104?$AA@ 10061b28     trainstuff.obj
 0003:00016b34       ??_C@_08MJPH@gtfxt103?$AA@ 10061b34     trainstuff.obj
 0003:00016b40       ??_C@_08GDGA@gtfxt102?$AA@ 10061b40     trainstuff.obj
 0003:00016b4c       ??_C@_08JMNJ@gtfxt101?$AA@ 10061b4c     trainstuff.obj
 0003:00016b58       ??_C@_08DGEO@gtfxt100?$AA@ 10061b58     trainstuff.obj
 0003:00016b64       ??_C@_07JFBJ@gtfxt99?$AA@  10061b64     trainstuff.obj
 0003:00016b6c       ??_C@_07DPIO@gtfxt98?$AA@  10061b6c     trainstuff.obj
 0003:00016b74       ??_C@_07DOND@gtfxt97?$AA@  10061b74     trainstuff.obj
 0003:00016b7c       ??_C@_07JEEE@gtfxt96?$AA@  10061b7c     trainstuff.obj
 0003:00016b84       ??_C@_07GLPN@gtfxt95?$AA@  10061b84     trainstuff.obj
 0003:00016b8c       ??_C@_07MBGK@gtfxt94?$AA@  10061b8c     trainstuff.obj
 0003:00016b94       ??_C@_07JEIP@gtfxt93?$AA@  10061b94     trainstuff.obj
 0003:00016b9c       ??_C@_07DOBI@gtfxt92?$AA@  10061b9c     trainstuff.obj
 0003:00016ba4       ??_C@_07MBKB@gtfxt91?$AA@  10061ba4     trainstuff.obj
 0003:00016bac       ??_C@_07GLDG@gtfxt90?$AA@  10061bac     trainstuff.obj
 0003:00016bb4       ??_C@_07IDLD@gtfxt89?$AA@  10061bb4     trainstuff.obj
 0003:00016bbc       ??_C@_07CJCE@gtfxt88?$AA@  10061bbc     trainstuff.obj
 0003:00016bc4       ??_C@_07CIHJ@gtfxt87?$AA@  10061bc4     trainstuff.obj
 0003:00016bcc       ??_C@_07ICOO@gtfxt86?$AA@  10061bcc     trainstuff.obj
 0003:00016bd4       ??_C@_07HNFH@gtfxt85?$AA@  10061bd4     trainstuff.obj
 0003:00016bdc       ??_C@_07NHMA@gtfxt84?$AA@  10061bdc     trainstuff.obj
 0003:00016be4       ??_C@_07ICCF@gtfxt83?$AA@  10061be4     trainstuff.obj
 0003:00016bec       ??_C@_07CILC@gtfxt82?$AA@  10061bec     trainstuff.obj
 0003:00016bf4       ??_C@_07NHAL@gtfxt81?$AA@  10061bf4     trainstuff.obj
 0003:00016bfc       ??_C@_07HNJM@gtfxt80?$AA@  10061bfc     trainstuff.obj
 0003:00016c04       ??_C@_07FHLC@gtfxt79?$AA@  10061c04     trainstuff.obj
 0003:00016c0c       ??_C@_07PNCF@gtfxt78?$AA@  10061c0c     trainstuff.obj
 0003:00016c14       ??_C@_07PMHI@gtfxt77?$AA@  10061c14     trainstuff.obj
 0003:00016c1c       ??_C@_07FGOP@gtfxt76?$AA@  10061c1c     trainstuff.obj
 0003:00016c24       ??_C@_07KJFG@gtfxt75?$AA@  10061c24     trainstuff.obj
 0003:00016c2c       ??_C@_07DMB@gtfxt74?$AA@   10061c2c     trainstuff.obj
 0003:00016c34       ??_C@_07FGCE@gtfxt73?$AA@  10061c34     trainstuff.obj
 0003:00016c3c       ??_C@_07PMLD@gtfxt72?$AA@  10061c3c     trainstuff.obj
 0003:00016c44       ??_C@_07DAK@gtfxt71?$AA@   10061c44     trainstuff.obj
 0003:00016c4c       ??_C@_07KJJN@gtfxt70?$AA@  10061c4c     trainstuff.obj
 0003:00016c54       ??_C@_07EBBI@gtfxt69?$AA@  10061c54     trainstuff.obj
 0003:00016c5c       ??_C@_07OLIP@gtfxt68?$AA@  10061c5c     trainstuff.obj
 0003:00016c64       ??_C@_07OKNC@gtfxt67?$AA@  10061c64     trainstuff.obj
 0003:00016c6c       ??_C@_07EAEF@gtfxt66?$AA@  10061c6c     trainstuff.obj
 0003:00016c74       ??_C@_07LPPM@gtfxt65?$AA@  10061c74     trainstuff.obj
 0003:00016c7c       ??_C@_07BFGL@gtfxt64?$AA@  10061c7c     trainstuff.obj
 0003:00016c84       ??_C@_07EAIO@gtfxt63?$AA@  10061c84     trainstuff.obj
 0003:00016c8c       ??_C@_07OKBJ@gtfxt62?$AA@  10061c8c     trainstuff.obj
 0003:00016c94       ??_C@_07BFKA@gtfxt61?$AA@  10061c94     trainstuff.obj
 0003:00016c9c       ??_C@_07LPDH@gtfxt60?$AA@  10061c9c     trainstuff.obj
 0003:00016ca4       ??_C@_07HKOH@gtfxt59?$AA@  10061ca4     trainstuff.obj
 0003:00016cac       ??_C@_07NAHA@gtfxt58?$AA@  10061cac     trainstuff.obj
 0003:00016cb4       ??_C@_07NBCN@gtfxt57?$AA@  10061cb4     trainstuff.obj
 0003:00016cbc       ??_C@_07HLLK@gtfxt56?$AA@  10061cbc     trainstuff.obj
 0003:00016cc4       ??_C@_07IEAD@gtfxt55?$AA@  10061cc4     trainstuff.obj
 0003:00016ccc       ??_C@_07COJE@gtfxt54?$AA@  10061ccc     trainstuff.obj
 0003:00016cd4       ??_C@_07HLHB@gtfxt53?$AA@  10061cd4     trainstuff.obj
 0003:00016cdc       ??_C@_07NBOG@gtfxt52?$AA@  10061cdc     trainstuff.obj
 0003:00016ce4       ??_C@_07COFP@gtfxt51?$AA@  10061ce4     trainstuff.obj
 0003:00016cec       ??_C@_07IEMI@gtfxt50?$AA@  10061cec     trainstuff.obj
 0003:00016cf4       ??_C@_07GMEN@gtfxt49?$AA@  10061cf4     trainstuff.obj
 0003:00016cfc       ??_C@_07MGNK@gtfxt48?$AA@  10061cfc     trainstuff.obj
 0003:00016d04       ??_C@_07MHIH@gtfxt47?$AA@  10061d04     trainstuff.obj
 0003:00016d0c       ??_C@_07GNBA@gtfxt46?$AA@  10061d0c     trainstuff.obj
 0003:00016d14       ??_C@_07JCKJ@gtfxt45?$AA@  10061d14     trainstuff.obj
 0003:00016d1c       ??_C@_07DIDO@gtfxt44?$AA@  10061d1c     trainstuff.obj
 0003:00016d24       ??_C@_07GNNL@gtfxt43?$AA@  10061d24     trainstuff.obj
 0003:00016d2c       ??_C@_07MHEM@gtfxt42?$AA@  10061d2c     trainstuff.obj
 0003:00016d34       ??_C@_07DIPF@gtfxt41?$AA@  10061d34     trainstuff.obj
 0003:00016d3c       ??_C@_07JCGC@gtfxt40?$AA@  10061d3c     trainstuff.obj
 0003:00016d44       ??_C@_07NBI@gtfxt39?$AA@   10061d44     trainstuff.obj
 0003:00016d4c       ??_C@_07KHIP@gtfxt38?$AA@  10061d4c     trainstuff.obj
 0003:00016d54       ??_C@_07KGNC@gtfxt37?$AA@  10061d54     trainstuff.obj
 0003:00016d5c       ??_C@_07MEF@gtfxt36?$AA@   10061d5c     trainstuff.obj
 0003:00016d64       ??_C@_07PDPM@gtfxt35?$AA@  10061d64     trainstuff.obj
 0003:00016d6c       ??_C@_07FJGL@gtfxt34?$AA@  10061d6c     trainstuff.obj
 0003:00016d74       ??_C@_07MIO@gtfxt33?$AA@   10061d74     trainstuff.obj
 0003:00016d7c       ??_C@_07KGBJ@gtfxt32?$AA@  10061d7c     trainstuff.obj
 0003:00016d84       ??_C@_07FJKA@gtfxt31?$AA@  10061d84     trainstuff.obj
 0003:00016d8c       ??_C@_07PDDH@gtfxt30?$AA@  10061d8c     trainstuff.obj
 0003:00016d94       ??_C@_07BLLC@gtfxt29?$AA@  10061d94     trainstuff.obj
 0003:00016d9c       ??_C@_07LBCF@gtfxt28?$AA@  10061d9c     trainstuff.obj
 0003:00016da4       ??_C@_07LAHI@gtfxt27?$AA@  10061da4     trainstuff.obj
 0003:00016dac       ??_C@_07BKOP@gtfxt26?$AA@  10061dac     trainstuff.obj
 0003:00016db4       ??_C@_07OFFG@gtfxt25?$AA@  10061db4     trainstuff.obj
 0003:00016dbc       ??_C@_07EPMB@gtfxt24?$AA@  10061dbc     trainstuff.obj
 0003:00016dc4       ??_C@_07BKCE@gtfxt23?$AA@  10061dc4     trainstuff.obj
 0003:00016dcc       ??_C@_07LALD@gtfxt22?$AA@  10061dcc     trainstuff.obj
 0003:00016dd4       ??_C@_07EPAK@gtfxt21?$AA@  10061dd4     trainstuff.obj
 0003:00016ddc       ??_C@_07OFJN@gtfxt20?$AA@  10061ddc     trainstuff.obj
 0003:00016de4       ??_C@_07CAEN@gtfxt19?$AA@  10061de4     trainstuff.obj
 0003:00016dec       ??_C@_07IKNK@gtfxt18?$AA@  10061dec     trainstuff.obj
 0003:00016df4       ??_C@_07ILIH@gtfxt17?$AA@  10061df4     trainstuff.obj
 0003:00016dfc       ??_C@_07CBBA@gtfxt16?$AA@  10061dfc     trainstuff.obj
 0003:00016e04       ??_C@_07NOKJ@gtfxt15?$AA@  10061e04     trainstuff.obj
 0003:00016e0c       ??_C@_07HEDO@gtfxt14?$AA@  10061e0c     trainstuff.obj
 0003:00016e14       ??_C@_07CBNL@gtfxt13?$AA@  10061e14     trainstuff.obj
 0003:00016e1c       ??_C@_07ILEM@gtfxt12?$AA@  10061e1c     trainstuff.obj
 0003:00016e24       ??_C@_07HEPF@gtfxt11?$AA@  10061e24     trainstuff.obj
 0003:00016e2c       ??_C@_07NOGC@gtfxt10?$AA@  10061e2c     trainstuff.obj
 0003:00016e34       ??_C@_06KGJD@gtfxt9?$AA@   10061e34     trainstuff.obj
 0003:00016e3c       ??_C@_06MAE@gtfxt8?$AA@    10061e3c     trainstuff.obj
 0003:00016e44       ??_C@_06NFJ@gtfxt7?$AA@    10061e44     trainstuff.obj
 0003:00016e4c       ??_C@_06KHMO@gtfxt6?$AA@   10061e4c     trainstuff.obj
 0003:00016e54       ??_C@_06FIHH@gtfxt5?$AA@   10061e54     trainstuff.obj
 0003:00016e5c       ??_C@_06PCOA@gtfxt4?$AA@   10061e5c     trainstuff.obj
 0003:00016e64       ??_C@_06KHAF@gtfxt3?$AA@   10061e64     trainstuff.obj
 0003:00016e6c       ??_C@_06NJC@gtfxt2?$AA@    10061e6c     trainstuff.obj
 0003:00016e74       ??_C@_06PCCL@gtfxt1?$AA@   10061e74     trainstuff.obj
 0003:00016e7c       ??_C@_08OJKF@ytfxt240?$AA@ 10061e7c     trainstuff.obj
 0003:00016e88       ??_C@_08HGNP@ytfxt239?$AA@ 10061e88     trainstuff.obj
 0003:00016e94       ??_C@_08NMEI@ytfxt238?$AA@ 10061e94     trainstuff.obj
 0003:00016ea0       ??_C@_08NNBF@ytfxt237?$AA@ 10061ea0     trainstuff.obj
 0003:00016eac       ??_C@_08HHIC@ytfxt236?$AA@ 10061eac     trainstuff.obj
 0003:00016eb8       ??_C@_08IIDL@ytfxt235?$AA@ 10061eb8     trainstuff.obj
 0003:00016ec4       ??_C@_08CCKM@ytfxt234?$AA@ 10061ec4     trainstuff.obj
 0003:00016ed0       ??_C@_08HHEJ@ytfxt233?$AA@ 10061ed0     trainstuff.obj
 0003:00016edc       ??_C@_08NNNO@ytfxt232?$AA@ 10061edc     trainstuff.obj
 0003:00016ee8       ??_C@_08CCGH@ytfxt231?$AA@ 10061ee8     trainstuff.obj
 0003:00016ef4       ??_C@_08IIPA@ytfxt230?$AA@ 10061ef4     trainstuff.obj
 0003:00016f00       ??_C@_08GAHF@ytfxt229?$AA@ 10061f00     trainstuff.obj
 0003:00016f0c       ??_C@_08MKOC@ytfxt228?$AA@ 10061f0c     trainstuff.obj
 0003:00016f18       ??_C@_08MLLP@ytfxt227?$AA@ 10061f18     trainstuff.obj
 0003:00016f24       ??_C@_08GBCI@ytfxt226?$AA@ 10061f24     trainstuff.obj
 0003:00016f30       ??_C@_08JOJB@ytfxt225?$AA@ 10061f30     trainstuff.obj
 0003:00016f3c       ??_C@_08DEAG@ytfxt224?$AA@ 10061f3c     trainstuff.obj
 0003:00016f48       ??_C@_08GBOD@ytfxt223?$AA@ 10061f48     trainstuff.obj
 0003:00016f54       ??_C@_08MLHE@ytfxt222?$AA@ 10061f54     trainstuff.obj
 0003:00016f60       ??_C@_08DEMN@ytfxt221?$AA@ 10061f60     trainstuff.obj
 0003:00016f6c       ??_C@_08JOFK@ytfxt220?$AA@ 10061f6c     trainstuff.obj
 0003:00016f78       ??_C@_08FLIK@ytfxt219?$AA@ 10061f78     trainstuff.obj
 0003:00016f84       ??_C@_08PBBN@ytfxt218?$AA@ 10061f84     trainstuff.obj
 0003:00016f90       ??_C@_08PAEA@ytfxt217?$AA@ 10061f90     trainstuff.obj
 0003:00016f9c       ??_C@_08FKNH@ytfxt216?$AA@ 10061f9c     trainstuff.obj
 0003:00016fa8       ??_C@_08KFGO@ytfxt215?$AA@ 10061fa8     trainstuff.obj
 0003:00016fb4       ??_C@_08PPJ@ytfxt214?$AA@  10061fb4     trainstuff.obj
 0003:00016fc0       ??_C@_08FKBM@ytfxt213?$AA@ 10061fc0     trainstuff.obj
 0003:00016fcc       ??_C@_09MCIK@ytfxt2212?$AA@ 10061fcc     trainstuff.obj
 0003:00016fd8       ??_C@_08PDC@ytfxt211?$AA@  10061fd8     trainstuff.obj
 0003:00016fe4       ??_C@_08KFKF@ytfxt210?$AA@ 10061fe4     trainstuff.obj
 0003:00016ff0       ??_C@_08ENCA@ytfxt209?$AA@ 10061ff0     trainstuff.obj
 0003:00016ffc       ??_C@_08OHLH@ytfxt208?$AA@ 10061ffc     trainstuff.obj
 0003:00017008       ??_C@_08OGOK@ytfxt207?$AA@ 10062008     trainstuff.obj
 0003:00017014       ??_C@_08EMHN@ytfxt206?$AA@ 10062014     trainstuff.obj
 0003:00017020       ??_C@_08LDME@ytfxt205?$AA@ 10062020     trainstuff.obj
 0003:0001702c       ??_C@_08BJFD@ytfxt204?$AA@ 1006202c     trainstuff.obj
 0003:00017038       ??_C@_08EMLG@ytfxt203?$AA@ 10062038     trainstuff.obj
 0003:00017044       ??_C@_08OGCB@ytfxt202?$AA@ 10062044     trainstuff.obj
 0003:00017050       ??_C@_08BJJI@ytfxt201?$AA@ 10062050     trainstuff.obj
 0003:0001705c       ??_C@_08LDAP@ytfxt200?$AA@ 1006205c     trainstuff.obj
 0003:00017068       ??_C@_08BIOF@ytfxt199?$AA@ 10062068     trainstuff.obj
 0003:00017074       ??_C@_08LCHC@ytfxt198?$AA@ 10062074     trainstuff.obj
 0003:00017080       ??_C@_08LDCP@ytfxt197?$AA@ 10062080     trainstuff.obj
 0003:0001708c       ??_C@_08BJLI@ytfxt196?$AA@ 1006208c     trainstuff.obj
 0003:00017098       ??_C@_08OGAB@ytfxt195?$AA@ 10062098     trainstuff.obj
 0003:000170a4       ??_C@_08EMJG@ytfxt194?$AA@ 100620a4     trainstuff.obj
 0003:000170b0       ??_C@_08BJHD@ytfxt193?$AA@ 100620b0     trainstuff.obj
 0003:000170bc       ??_C@_08LDOE@ytfxt192?$AA@ 100620bc     trainstuff.obj
 0003:000170c8       ??_C@_08EMFN@ytfxt191?$AA@ 100620c8     trainstuff.obj
 0003:000170d4       ??_C@_08OGMK@ytfxt190?$AA@ 100620d4     trainstuff.obj
 0003:000170e0       ??_C@_08OEP@ytfxt189?$AA@  100620e0     trainstuff.obj
 0003:000170ec       ??_C@_08KENI@ytfxt188?$AA@ 100620ec     trainstuff.obj
 0003:000170f8       ??_C@_08KFIF@ytfxt187?$AA@ 100620f8     trainstuff.obj
 0003:00017104       ??_C@_08PBC@ytfxt186?$AA@  10062104     trainstuff.obj
 0003:00017110       ??_C@_08PAKL@ytfxt185?$AA@ 10062110     trainstuff.obj
 0003:0001711c       ??_C@_08FKDM@ytfxt184?$AA@ 1006211c     trainstuff.obj
 0003:00017128       ??_C@_08PNJ@ytfxt183?$AA@  10062128     trainstuff.obj
 0003:00017134       ??_C@_08KFEO@ytfxt182?$AA@ 10062134     trainstuff.obj
 0003:00017140       ??_C@_08FKPH@ytfxt181?$AA@ 10062140     trainstuff.obj
 0003:0001714c       ??_C@_08PAGA@ytfxt180?$AA@ 1006214c     trainstuff.obj
 0003:00017158       ??_C@_08NKEO@ytfxt179?$AA@ 10062158     trainstuff.obj
 0003:00017164       ??_C@_08HANJ@ytfxt178?$AA@ 10062164     trainstuff.obj
 0003:00017170       ??_C@_08HBIE@ytfxt177?$AA@ 10062170     trainstuff.obj
 0003:0001717c       ??_C@_08NLBD@ytfxt176?$AA@ 1006217c     trainstuff.obj
 0003:00017188       ??_C@_08CEKK@ytfxt175?$AA@ 10062188     trainstuff.obj
 0003:00017194       ??_C@_08IODN@ytfxt174?$AA@ 10062194     trainstuff.obj
 0003:000171a0       ??_C@_08NLNI@ytfxt173?$AA@ 100621a0     trainstuff.obj
 0003:000171ac       ??_C@_08HBEP@ytfxt172?$AA@ 100621ac     trainstuff.obj
 0003:000171b8       ??_C@_08IOPG@ytfxt171?$AA@ 100621b8     trainstuff.obj
 0003:000171c4       ??_C@_08CEGB@ytfxt170?$AA@ 100621c4     trainstuff.obj
 0003:000171d0       ??_C@_08MMOE@ytfxt169?$AA@ 100621d0     trainstuff.obj
 0003:000171dc       ??_C@_08GGHD@ytfxt168?$AA@ 100621dc     trainstuff.obj
 0003:000171e8       ??_C@_08GHCO@ytfxt167?$AA@ 100621e8     trainstuff.obj
 0003:000171f4       ??_C@_08MNLJ@ytfxt166?$AA@ 100621f4     trainstuff.obj
 0003:00017200       ??_C@_08DCAA@ytfxt165?$AA@ 10062200     trainstuff.obj
 0003:0001720c       ??_C@_08JIJH@ytfxt164?$AA@ 1006220c     trainstuff.obj
 0003:00017218       ??_C@_08MNHC@ytfxt163?$AA@ 10062218     trainstuff.obj
 0003:00017224       ??_C@_08GHOF@ytfxt162?$AA@ 10062224     trainstuff.obj
 0003:00017230       ??_C@_08JIFM@ytfxt161?$AA@ 10062230     trainstuff.obj
 0003:0001723c       ??_C@_08DCML@ytfxt160?$AA@ 1006223c     trainstuff.obj
 0003:00017248       ??_C@_08PHBL@ytfxt159?$AA@ 10062248     trainstuff.obj
 0003:00017254       ??_C@_08FNIM@ytfxt158?$AA@ 10062254     trainstuff.obj
 0003:00017260       ??_C@_08FMNB@ytfxt157?$AA@ 10062260     trainstuff.obj
 0003:0001726c       ??_C@_08PGEG@ytfxt156?$AA@ 1006226c     trainstuff.obj
 0003:00017278       ??_C@_08JPP@ytfxt155?$AA@  10062278     trainstuff.obj
 0003:00017284       ??_C@_08KDGI@ytfxt154?$AA@ 10062284     trainstuff.obj
 0003:00017290       ??_C@_08PGIN@ytfxt153?$AA@ 10062290     trainstuff.obj
 0003:0001729c       ??_C@_08FMBK@ytfxt152?$AA@ 1006229c     trainstuff.obj
 0003:000172a8       ??_C@_08KDKD@ytfxt151?$AA@ 100622a8     trainstuff.obj
 0003:000172b4       ??_C@_08JDE@ytfxt150?$AA@  100622b4     trainstuff.obj
 0003:000172c0       ??_C@_08OBLB@ytfxt149?$AA@ 100622c0     trainstuff.obj
 0003:000172cc       ??_C@_08ELCG@ytfxt148?$AA@ 100622cc     trainstuff.obj
 0003:000172d8       ??_C@_08EKHL@ytfxt147?$AA@ 100622d8     trainstuff.obj
 0003:000172e4       ??_C@_08OAOM@ytfxt146?$AA@ 100622e4     trainstuff.obj
 0003:000172f0       ??_C@_08BPFF@ytfxt145?$AA@ 100622f0     trainstuff.obj
 0003:000172fc       ??_C@_08LFMC@ytfxt144?$AA@ 100622fc     trainstuff.obj
 0003:00017308       ??_C@_08OACH@ytfxt143?$AA@ 10062308     trainstuff.obj
 0003:00017314       ??_C@_08EKLA@ytfxt142?$AA@ 10062314     trainstuff.obj
 0003:00017320       ??_C@_08LFAJ@ytfxt141?$AA@ 10062320     trainstuff.obj
 0003:0001732c       ??_C@_08BPJO@ytfxt140?$AA@ 1006232c     trainstuff.obj
 0003:00017338       ??_C@_08IAOE@ytfxt139?$AA@ 10062338     trainstuff.obj
 0003:00017344       ??_C@_08CKHD@ytfxt138?$AA@ 10062344     trainstuff.obj
 0003:00017350       ??_C@_08CLCO@ytfxt137?$AA@ 10062350     trainstuff.obj
 0003:0001735c       ??_C@_08IBLJ@ytfxt136?$AA@ 1006235c     trainstuff.obj
 0003:00017368       ??_C@_08HOAA@ytfxt135?$AA@ 10062368     trainstuff.obj
 0003:00017374       ??_C@_08NEJH@ytfxt134?$AA@ 10062374     trainstuff.obj
 0003:00017380       ??_C@_08IBHC@ytfxt133?$AA@ 10062380     trainstuff.obj
 0003:0001738c       ??_C@_08CLOF@ytfxt132?$AA@ 1006238c     trainstuff.obj
 0003:00017398       ??_C@_08NEFM@ytfxt131?$AA@ 10062398     trainstuff.obj
 0003:000173a4       ??_C@_08HOML@ytfxt130?$AA@ 100623a4     trainstuff.obj
 0003:000173b0       ??_C@_08JGEO@ytfxt129?$AA@ 100623b0     trainstuff.obj
 0003:000173bc       ??_C@_08DMNJ@ytfxt128?$AA@ 100623bc     trainstuff.obj
 0003:000173c8       ??_C@_08DNIE@ytfxt127?$AA@ 100623c8     trainstuff.obj
 0003:000173d4       ??_C@_08JHBD@ytfxt126?$AA@ 100623d4     trainstuff.obj
 0003:000173e0       ??_C@_08GIKK@ytfxt125?$AA@ 100623e0     trainstuff.obj
 0003:000173ec       ??_C@_08MCDN@ytfxt124?$AA@ 100623ec     trainstuff.obj
 0003:000173f8       ??_C@_08JHNI@ytfxt123?$AA@ 100623f8     trainstuff.obj
 0003:00017404       ??_C@_08DNEP@ytfxt122?$AA@ 10062404     trainstuff.obj
 0003:00017410       ??_C@_08MCPG@ytfxt121?$AA@ 10062410     trainstuff.obj
 0003:0001741c       ??_C@_08GIGB@ytfxt120?$AA@ 1006241c     trainstuff.obj
 0003:00017428       ??_C@_08KNLB@ytfxt119?$AA@ 10062428     trainstuff.obj
 0003:00017434       ??_C@_08HCG@ytfxt118?$AA@  10062434     trainstuff.obj
 0003:00017440       ??_C@_08GHL@ytfxt117?$AA@  10062440     trainstuff.obj
 0003:0001744c       ??_C@_08KMOM@ytfxt116?$AA@ 1006244c     trainstuff.obj
 0003:00017458       ??_C@_08FDFF@ytfxt115?$AA@ 10062458     trainstuff.obj
 0003:00017464       ??_C@_08PJMC@ytfxt114?$AA@ 10062464     trainstuff.obj
 0003:00017470       ??_C@_08KMCH@ytfxt113?$AA@ 10062470     trainstuff.obj
 0003:0001747c       ??_C@_08GLA@ytfxt112?$AA@  1006247c     trainstuff.obj
 0003:00017488       ??_C@_08PJAJ@ytfxt111?$AA@ 10062488     trainstuff.obj
 0003:00017494       ??_C@_08FDJO@ytfxt110?$AA@ 10062494     trainstuff.obj
 0003:000174a0       ??_C@_08LLBL@ytfxt109?$AA@ 100624a0     trainstuff.obj
 0003:000174ac       ??_C@_08BBIM@ytfxt108?$AA@ 100624ac     trainstuff.obj
 0003:000174b8       ??_C@_08BANB@ytfxt107?$AA@ 100624b8     trainstuff.obj
 0003:000174c4       ??_C@_08LKEG@ytfxt106?$AA@ 100624c4     trainstuff.obj
 0003:000174d0       ??_C@_08EFPP@ytfxt105?$AA@ 100624d0     trainstuff.obj
 0003:000174dc       ??_C@_08OPGI@ytfxt104?$AA@ 100624dc     trainstuff.obj
 0003:000174e8       ??_C@_08LKIN@ytfxt103?$AA@ 100624e8     trainstuff.obj
 0003:000174f4       ??_C@_08BABK@ytfxt102?$AA@ 100624f4     trainstuff.obj
 0003:00017500       ??_C@_08OPKD@ytfxt101?$AA@ 10062500     trainstuff.obj
 0003:0001750c       ??_C@_08EFDE@ytfxt100?$AA@ 1006250c     trainstuff.obj
 0003:00017518       ??_C@_07OPJD@ytfxt99?$AA@  10062518     trainstuff.obj
 0003:00017520       ??_C@_07EFAE@ytfxt98?$AA@  10062520     trainstuff.obj
 0003:00017528       ??_C@_07EEFJ@ytfxt97?$AA@  10062528     trainstuff.obj
 0003:00017530       ??_C@_07OOMO@ytfxt96?$AA@  10062530     trainstuff.obj
 0003:00017538       ??_C@_07BBHH@ytfxt95?$AA@  10062538     trainstuff.obj
 0003:00017540       ??_C@_07LLOA@ytfxt94?$AA@  10062540     trainstuff.obj
 0003:00017548       ??_C@_07OOAF@ytfxt93?$AA@  10062548     trainstuff.obj
 0003:00017550       ??_C@_07EEJC@ytfxt92?$AA@  10062550     trainstuff.obj
 0003:00017558       ??_C@_07LLCL@ytfxt91?$AA@  10062558     trainstuff.obj
 0003:00017560       ??_C@_07BBLM@ytfxt90?$AA@  10062560     trainstuff.obj
 0003:00017568       ??_C@_07PJDJ@ytfxt89?$AA@  10062568     trainstuff.obj
 0003:00017570       ??_C@_07FDKO@ytfxt88?$AA@  10062570     trainstuff.obj
 0003:00017578       ??_C@_07FCPD@ytfxt87?$AA@  10062578     trainstuff.obj
 0003:00017580       ??_C@_07PIGE@ytfxt86?$AA@  10062580     trainstuff.obj
 0003:00017588       ??_C@_07HNN@ytfxt85?$AA@   10062588     trainstuff.obj
 0003:00017590       ??_C@_07KNEK@ytfxt84?$AA@  10062590     trainstuff.obj
 0003:00017598       ??_C@_07PIKP@ytfxt83?$AA@  10062598     trainstuff.obj
 0003:000175a0       ??_C@_07FCDI@ytfxt82?$AA@  100625a0     trainstuff.obj
 0003:000175a8       ??_C@_07KNIB@ytfxt81?$AA@  100625a8     trainstuff.obj
 0003:000175b0       ??_C@_07HBG@ytfxt80?$AA@   100625b0     trainstuff.obj
 0003:000175b8       ??_C@_07CNDI@ytfxt79?$AA@  100625b8     trainstuff.obj
 0003:000175c0       ??_C@_07IHKP@ytfxt78?$AA@  100625c0     trainstuff.obj
 0003:000175c8       ??_C@_07IGPC@ytfxt77?$AA@  100625c8     trainstuff.obj
 0003:000175d0       ??_C@_07CMGF@ytfxt76?$AA@  100625d0     trainstuff.obj
 0003:000175d8       ??_C@_07NDNM@ytfxt75?$AA@  100625d8     trainstuff.obj
 0003:000175e0       ??_C@_07HJEL@ytfxt74?$AA@  100625e0     trainstuff.obj
 0003:000175e8       ??_C@_07CMKO@ytfxt73?$AA@  100625e8     trainstuff.obj
 0003:000175f0       ??_C@_07IGDJ@ytfxt72?$AA@  100625f0     trainstuff.obj
 0003:000175f8       ??_C@_07HJIA@ytfxt71?$AA@  100625f8     trainstuff.obj
 0003:00017600       ??_C@_07NDBH@ytfxt70?$AA@  10062600     trainstuff.obj
 0003:00017608       ??_C@_07DLJC@ytfxt69?$AA@  10062608     trainstuff.obj
 0003:00017610       ??_C@_07JBAF@ytfxt68?$AA@  10062610     trainstuff.obj
 0003:00017618       ??_C@_07JAFI@ytfxt67?$AA@  10062618     trainstuff.obj
 0003:00017620       ??_C@_07DKMP@ytfxt66?$AA@  10062620     trainstuff.obj
 0003:00017628       ??_C@_07MFHG@ytfxt65?$AA@  10062628     trainstuff.obj
 0003:00017630       ??_C@_07GPOB@ytfxt64?$AA@  10062630     trainstuff.obj
 0003:00017638       ??_C@_07DKAE@ytfxt63?$AA@  10062638     trainstuff.obj
 0003:00017640       ??_C@_07JAJD@ytfxt62?$AA@  10062640     trainstuff.obj
 0003:00017648       ??_C@_07GPCK@ytfxt61?$AA@  10062648     trainstuff.obj
 0003:00017650       ??_C@_07MFLN@ytfxt60?$AA@  10062650     trainstuff.obj
 0003:00017658       ??_C@_07GN@ytfxt59?$AA@    10062658     trainstuff.obj
 0003:00017660       ??_C@_07KKPK@ytfxt58?$AA@  10062660     trainstuff.obj
 0003:00017668       ??_C@_07KLKH@ytfxt57?$AA@  10062668     trainstuff.obj
 0003:00017670       ??_C@_07BDA@ytfxt56?$AA@   10062670     trainstuff.obj
 0003:00017678       ??_C@_07POIJ@ytfxt55?$AA@  10062678     trainstuff.obj
 0003:00017680       ??_C@_07FEBO@ytfxt54?$AA@  10062680     trainstuff.obj
 0003:00017688       ??_C@_07BPL@ytfxt53?$AA@   10062688     trainstuff.obj
 0003:00017690       ??_C@_07KLGM@ytfxt52?$AA@  10062690     trainstuff.obj
 0003:00017698       ??_C@_07FENF@ytfxt51?$AA@  10062698     trainstuff.obj
 0003:000176a0       ??_C@_07POEC@ytfxt50?$AA@  100626a0     trainstuff.obj
 0003:000176a8       ??_C@_07BGMH@ytfxt49?$AA@  100626a8     trainstuff.obj
 0003:000176b0       ??_C@_07LMFA@ytfxt48?$AA@  100626b0     trainstuff.obj
 0003:000176b8       ??_C@_07LNAN@ytfxt47?$AA@  100626b8     trainstuff.obj
 0003:000176c0       ??_C@_07BHJK@ytfxt46?$AA@  100626c0     trainstuff.obj
 0003:000176c8       ??_C@_07OICD@ytfxt45?$AA@  100626c8     trainstuff.obj
 0003:000176d0       ??_C@_07ECLE@ytfxt44?$AA@  100626d0     trainstuff.obj
 0003:000176d8       ??_C@_07BHFB@ytfxt43?$AA@  100626d8     trainstuff.obj
 0003:000176e0       ??_C@_07LNMG@ytfxt42?$AA@  100626e0     trainstuff.obj
 0003:000176e8       ??_C@_07ECHP@ytfxt41?$AA@  100626e8     trainstuff.obj
 0003:000176f0       ??_C@_07OIOI@ytfxt40?$AA@  100626f0     trainstuff.obj
 0003:000176f8       ??_C@_07HHJC@ytfxt39?$AA@  100626f8     trainstuff.obj
 0003:00017700       ??_C@_07NNAF@ytfxt38?$AA@  10062700     trainstuff.obj
 0003:00017708       ??_C@_07NMFI@ytfxt37?$AA@  10062708     trainstuff.obj
 0003:00017710       ??_C@_07HGMP@ytfxt36?$AA@  10062710     trainstuff.obj
 0003:00017718       ??_C@_07IJHG@ytfxt35?$AA@  10062718     trainstuff.obj
 0003:00017720       ??_C@_07CDOB@ytfxt34?$AA@  10062720     trainstuff.obj
 0003:00017728       ??_C@_07HGAE@ytfxt33?$AA@  10062728     trainstuff.obj
 0003:00017730       ??_C@_07NMJD@ytfxt32?$AA@  10062730     trainstuff.obj
 0003:00017738       ??_C@_07CDCK@ytfxt31?$AA@  10062738     trainstuff.obj
 0003:00017740       ??_C@_07IJLN@ytfxt30?$AA@  10062740     trainstuff.obj
 0003:00017748       ??_C@_07GBDI@ytfxt29?$AA@  10062748     trainstuff.obj
 0003:00017750       ??_C@_07MLKP@ytfxt28?$AA@  10062750     trainstuff.obj
 0003:00017758       ??_C@_07MKPC@ytfxt27?$AA@  10062758     trainstuff.obj
 0003:00017760       ??_C@_07GAGF@ytfxt26?$AA@  10062760     trainstuff.obj
 0003:00017768       ??_C@_07JPNM@ytfxt25?$AA@  10062768     trainstuff.obj
 0003:00017770       ??_C@_07DFEL@ytfxt24?$AA@  10062770     trainstuff.obj
 0003:00017778       ??_C@_07GAKO@ytfxt23?$AA@  10062778     trainstuff.obj
 0003:00017780       ??_C@_07MKDJ@ytfxt22?$AA@  10062780     trainstuff.obj
 0003:00017788       ??_C@_07DFIA@ytfxt21?$AA@  10062788     trainstuff.obj
 0003:00017790       ??_C@_07JPBH@ytfxt20?$AA@  10062790     trainstuff.obj
 0003:00017798       ??_C@_07FKMH@ytfxt19?$AA@  10062798     trainstuff.obj
 0003:000177a0       ??_C@_07PAFA@ytfxt18?$AA@  100627a0     trainstuff.obj
 0003:000177a8       ??_C@_07PBAN@ytfxt17?$AA@  100627a8     trainstuff.obj
 0003:000177b0       ??_C@_07FLJK@ytfxt16?$AA@  100627b0     trainstuff.obj
 0003:000177b8       ??_C@_07KECD@ytfxt15?$AA@  100627b8     trainstuff.obj
 0003:000177c0       ??_C@_07OLE@ytfxt14?$AA@   100627c0     trainstuff.obj
 0003:000177c8       ??_C@_07FLFB@ytfxt13?$AA@  100627c8     trainstuff.obj
 0003:000177d0       ??_C@_07PBMG@ytfxt12?$AA@  100627d0     trainstuff.obj
 0003:000177d8       ??_C@_07OHP@ytfxt11?$AA@   100627d8     trainstuff.obj
 0003:000177e0       ??_C@_07KEOI@ytfxt10?$AA@  100627e0     trainstuff.obj
 0003:000177e8       ??_C@_06CMFA@ytfxt9?$AA@   100627e8     trainstuff.obj
 0003:000177f0       ??_C@_06IGMH@ytfxt8?$AA@   100627f0     trainstuff.obj
 0003:000177f8       ??_C@_06IHJK@ytfxt7?$AA@   100627f8     trainstuff.obj
 0003:00017800       ??_C@_06CNAN@ytfxt6?$AA@   10062800     trainstuff.obj
 0003:00017808       ??_C@_06NCLE@ytfxt5?$AA@   10062808     trainstuff.obj
 0003:00017810       ??_C@_06HICD@ytfxt4?$AA@   10062810     trainstuff.obj
 0003:00017818       ??_C@_06CNMG@ytfxt3?$AA@   10062818     trainstuff.obj
 0003:00017820       ??_C@_06IHFB@ytfxt2?$AA@   10062820     trainstuff.obj
 0003:00017828       ??_C@_06HIOI@ytfxt1?$AA@   10062828     trainstuff.obj
 0003:00017830       ??_C@_08PCEL@btfxt240?$AA@ 10062830     trainstuff.obj
 0003:0001783c       ??_C@_08GNDB@btfxt239?$AA@ 1006283c     trainstuff.obj
 0003:00017848       ??_C@_08MHKG@btfxt238?$AA@ 10062848     trainstuff.obj
 0003:00017854       ??_C@_08MGPL@btfxt237?$AA@ 10062854     trainstuff.obj
 0003:00017860       ??_C@_08GMGM@btfxt236?$AA@ 10062860     trainstuff.obj
 0003:0001786c       ??_C@_08JDNF@btfxt235?$AA@ 1006286c     trainstuff.obj
 0003:00017878       ??_C@_08DJEC@btfxt234?$AA@ 10062878     trainstuff.obj
 0003:00017884       ??_C@_08GMKH@btfxt233?$AA@ 10062884     trainstuff.obj
 0003:00017890       ??_C@_08MGDA@btfxt232?$AA@ 10062890     trainstuff.obj
 0003:0001789c       ??_C@_08DJIJ@btfxt231?$AA@ 1006289c     trainstuff.obj
 0003:000178a8       ??_C@_08JDBO@btfxt230?$AA@ 100628a8     trainstuff.obj
 0003:000178b4       ??_C@_08HLJL@btfxt229?$AA@ 100628b4     trainstuff.obj
 0003:000178c0       ??_C@_08NBAM@btfxt228?$AA@ 100628c0     trainstuff.obj
 0003:000178cc       ??_C@_08NAFB@btfxt227?$AA@ 100628cc     trainstuff.obj
 0003:000178d8       ??_C@_08HKMG@btfxt226?$AA@ 100628d8     trainstuff.obj
 0003:000178e4       ??_C@_08IFHP@btfxt225?$AA@ 100628e4     trainstuff.obj
 0003:000178f0       ??_C@_08CPOI@btfxt224?$AA@ 100628f0     trainstuff.obj
 0003:000178fc       ??_C@_08HKAN@btfxt223?$AA@ 100628fc     trainstuff.obj
 0003:00017908       ??_C@_08NAJK@btfxt222?$AA@ 10062908     trainstuff.obj
 0003:00017914       ??_C@_08CPCD@btfxt221?$AA@ 10062914     trainstuff.obj
 0003:00017920       ??_C@_08IFLE@btfxt220?$AA@ 10062920     trainstuff.obj
 0003:0001792c       ??_C@_08EAGE@btfxt219?$AA@ 1006292c     trainstuff.obj
 0003:00017938       ??_C@_08OKPD@btfxt218?$AA@ 10062938     trainstuff.obj
 0003:00017944       ??_C@_08OLKO@btfxt217?$AA@ 10062944     trainstuff.obj
 0003:00017950       ??_C@_08EBDJ@btfxt216?$AA@ 10062950     trainstuff.obj
 0003:0001795c       ??_C@_08LOIA@btfxt215?$AA@ 1006295c     trainstuff.obj
 0003:00017968       ??_C@_08BEBH@btfxt214?$AA@ 10062968     trainstuff.obj
 0003:00017974       ??_C@_08EBPC@btfxt213?$AA@ 10062974     trainstuff.obj
 0003:00017980       ??_C@_09LCJB@btfxt2212?$AA@ 10062980     trainstuff.obj
 0003:0001798c       ??_C@_08BENM@btfxt211?$AA@ 1006298c     trainstuff.obj
 0003:00017998       ??_C@_08LOEL@btfxt210?$AA@ 10062998     trainstuff.obj
 0003:000179a4       ??_C@_08FGMO@btfxt209?$AA@ 100629a4     trainstuff.obj
 0003:000179b0       ??_C@_08PMFJ@btfxt208?$AA@ 100629b0     trainstuff.obj
 0003:000179bc       ??_C@_08PNAE@btfxt207?$AA@ 100629bc     trainstuff.obj
 0003:000179c8       ??_C@_08FHJD@btfxt206?$AA@ 100629c8     trainstuff.obj
 0003:000179d4       ??_C@_08KICK@btfxt205?$AA@ 100629d4     trainstuff.obj
 0003:000179e0       ??_C@_08CLN@btfxt204?$AA@  100629e0     trainstuff.obj
 0003:000179ec       ??_C@_08FHFI@btfxt203?$AA@ 100629ec     trainstuff.obj
 0003:000179f8       ??_C@_08PNMP@btfxt202?$AA@ 100629f8     trainstuff.obj
 0003:00017a04       ??_C@_08CHG@btfxt201?$AA@  10062a04     trainstuff.obj
 0003:00017a10       ??_C@_08KIOB@btfxt200?$AA@ 10062a10     trainstuff.obj
 0003:00017a1c       ??_C@_08DAL@btfxt199?$AA@  10062a1c     trainstuff.obj
 0003:00017a28       ??_C@_08KJJM@btfxt198?$AA@ 10062a28     trainstuff.obj
 0003:00017a34       ??_C@_08KIMB@btfxt197?$AA@ 10062a34     trainstuff.obj
 0003:00017a40       ??_C@_08CFG@btfxt196?$AA@  10062a40     trainstuff.obj
 0003:00017a4c       ??_C@_08PNOP@btfxt195?$AA@ 10062a4c     trainstuff.obj
 0003:00017a58       ??_C@_08FHHI@btfxt194?$AA@ 10062a58     trainstuff.obj
 0003:00017a64       ??_C@_08CJN@btfxt193?$AA@  10062a64     trainstuff.obj
 0003:00017a70       ??_C@_08KIAK@btfxt192?$AA@ 10062a70     trainstuff.obj
 0003:00017a7c       ??_C@_08FHLD@btfxt191?$AA@ 10062a7c     trainstuff.obj
 0003:00017a88       ??_C@_08PNCE@btfxt190?$AA@ 10062a88     trainstuff.obj
 0003:00017a94       ??_C@_08BFKB@btfxt189?$AA@ 10062a94     trainstuff.obj
 0003:00017aa0       ??_C@_08LPDG@btfxt188?$AA@ 10062aa0     trainstuff.obj
 0003:00017aac       ??_C@_08LOGL@btfxt187?$AA@ 10062aac     trainstuff.obj
 0003:00017ab8       ??_C@_08BEPM@btfxt186?$AA@ 10062ab8     trainstuff.obj
 0003:00017ac4       ??_C@_08OLEF@btfxt185?$AA@ 10062ac4     trainstuff.obj
 0003:00017ad0       ??_C@_08EBNC@btfxt184?$AA@ 10062ad0     trainstuff.obj
 0003:00017adc       ??_C@_08BEDH@btfxt183?$AA@ 10062adc     trainstuff.obj
 0003:00017ae8       ??_C@_08LOKA@btfxt182?$AA@ 10062ae8     trainstuff.obj
 0003:00017af4       ??_C@_08EBBJ@btfxt181?$AA@ 10062af4     trainstuff.obj
 0003:00017b00       ??_C@_08OLIO@btfxt180?$AA@ 10062b00     trainstuff.obj
 0003:00017b0c       ??_C@_08MBKA@btfxt179?$AA@ 10062b0c     trainstuff.obj
 0003:00017b18       ??_C@_08GLDH@btfxt178?$AA@ 10062b18     trainstuff.obj
 0003:00017b24       ??_C@_08GKGK@btfxt177?$AA@ 10062b24     trainstuff.obj
 0003:00017b30       ??_C@_08MAPN@btfxt176?$AA@ 10062b30     trainstuff.obj
 0003:00017b3c       ??_C@_08DPEE@btfxt175?$AA@ 10062b3c     trainstuff.obj
 0003:00017b48       ??_C@_08JFND@btfxt174?$AA@ 10062b48     trainstuff.obj
 0003:00017b54       ??_C@_08MADG@btfxt173?$AA@ 10062b54     trainstuff.obj
 0003:00017b60       ??_C@_08GKKB@btfxt172?$AA@ 10062b60     trainstuff.obj
 0003:00017b6c       ??_C@_08JFBI@btfxt171?$AA@ 10062b6c     trainstuff.obj
 0003:00017b78       ??_C@_08DPIP@btfxt170?$AA@ 10062b78     trainstuff.obj
 0003:00017b84       ??_C@_08NHAK@btfxt169?$AA@ 10062b84     trainstuff.obj
 0003:00017b90       ??_C@_08HNJN@btfxt168?$AA@ 10062b90     trainstuff.obj
 0003:00017b9c       ??_C@_08HMMA@btfxt167?$AA@ 10062b9c     trainstuff.obj
 0003:00017ba8       ??_C@_08NGFH@btfxt166?$AA@ 10062ba8     trainstuff.obj
 0003:00017bb4       ??_C@_08CJOO@btfxt165?$AA@ 10062bb4     trainstuff.obj
 0003:00017bc0       ??_C@_08IDHJ@btfxt164?$AA@ 10062bc0     trainstuff.obj
 0003:00017bcc       ??_C@_08NGJM@btfxt163?$AA@ 10062bcc     trainstuff.obj
 0003:00017bd8       ??_C@_08HMAL@btfxt162?$AA@ 10062bd8     trainstuff.obj
 0003:00017be4       ??_C@_08IDLC@btfxt161?$AA@ 10062be4     trainstuff.obj
 0003:00017bf0       ??_C@_08CJCF@btfxt160?$AA@ 10062bf0     trainstuff.obj
 0003:00017bfc       ??_C@_08OMPF@btfxt159?$AA@ 10062bfc     trainstuff.obj
 0003:00017c08       ??_C@_08EGGC@btfxt158?$AA@ 10062c08     trainstuff.obj
 0003:00017c14       ??_C@_08EHDP@btfxt157?$AA@ 10062c14     trainstuff.obj
 0003:00017c20       ??_C@_08ONKI@btfxt156?$AA@ 10062c20     trainstuff.obj
 0003:00017c2c       ??_C@_08BCBB@btfxt155?$AA@ 10062c2c     trainstuff.obj
 0003:00017c38       ??_C@_08LIIG@btfxt154?$AA@ 10062c38     trainstuff.obj
 0003:00017c44       ??_C@_08ONGD@btfxt153?$AA@ 10062c44     trainstuff.obj
 0003:00017c50       ??_C@_08EHPE@btfxt152?$AA@ 10062c50     trainstuff.obj
 0003:00017c5c       ??_C@_08LIEN@btfxt151?$AA@ 10062c5c     trainstuff.obj
 0003:00017c68       ??_C@_08BCNK@btfxt150?$AA@ 10062c68     trainstuff.obj
 0003:00017c74       ??_C@_08PKFP@btfxt149?$AA@ 10062c74     trainstuff.obj
 0003:00017c80       ??_C@_08FAMI@btfxt148?$AA@ 10062c80     trainstuff.obj
 0003:00017c8c       ??_C@_08FBJF@btfxt147?$AA@ 10062c8c     trainstuff.obj
 0003:00017c98       ??_C@_08PLAC@btfxt146?$AA@ 10062c98     trainstuff.obj
 0003:00017ca4       ??_C@_08ELL@btfxt145?$AA@  10062ca4     trainstuff.obj
 0003:00017cb0       ??_C@_08KOCM@btfxt144?$AA@ 10062cb0     trainstuff.obj
 0003:00017cbc       ??_C@_08PLMJ@btfxt143?$AA@ 10062cbc     trainstuff.obj
 0003:00017cc8       ??_C@_08FBFO@btfxt142?$AA@ 10062cc8     trainstuff.obj
 0003:00017cd4       ??_C@_08KOOH@btfxt141?$AA@ 10062cd4     trainstuff.obj
 0003:00017ce0       ??_C@_08EHA@btfxt140?$AA@  10062ce0     trainstuff.obj
 0003:00017cec       ??_C@_08JLAK@btfxt139?$AA@ 10062cec     trainstuff.obj
 0003:00017cf8       ??_C@_08DBJN@btfxt138?$AA@ 10062cf8     trainstuff.obj
 0003:00017d04       ??_C@_08DAMA@btfxt137?$AA@ 10062d04     trainstuff.obj
 0003:00017d10       ??_C@_08JKFH@btfxt136?$AA@ 10062d10     trainstuff.obj
 0003:00017d1c       ??_C@_08GFOO@btfxt135?$AA@ 10062d1c     trainstuff.obj
 0003:00017d28       ??_C@_08MPHJ@btfxt134?$AA@ 10062d28     trainstuff.obj
 0003:00017d34       ??_C@_08JKJM@btfxt133?$AA@ 10062d34     trainstuff.obj
 0003:00017d40       ??_C@_08DAAL@btfxt132?$AA@ 10062d40     trainstuff.obj
 0003:00017d4c       ??_C@_08MPLC@btfxt131?$AA@ 10062d4c     trainstuff.obj
 0003:00017d58       ??_C@_08GFCF@btfxt130?$AA@ 10062d58     trainstuff.obj
 0003:00017d64       ??_C@_08INKA@btfxt129?$AA@ 10062d64     trainstuff.obj
 0003:00017d70       ??_C@_08CHDH@btfxt128?$AA@ 10062d70     trainstuff.obj
 0003:00017d7c       ??_C@_08CGGK@btfxt127?$AA@ 10062d7c     trainstuff.obj
 0003:00017d88       ??_C@_08IMPN@btfxt126?$AA@ 10062d88     trainstuff.obj
 0003:00017d94       ??_C@_08HDEE@btfxt125?$AA@ 10062d94     trainstuff.obj
 0003:00017da0       ??_C@_08NJND@btfxt124?$AA@ 10062da0     trainstuff.obj
 0003:00017dac       ??_C@_08IMDG@btfxt123?$AA@ 10062dac     trainstuff.obj
 0003:00017db8       ??_C@_08CGKB@btfxt122?$AA@ 10062db8     trainstuff.obj
 0003:00017dc4       ??_C@_08NJBI@btfxt121?$AA@ 10062dc4     trainstuff.obj
 0003:00017dd0       ??_C@_08HDIP@btfxt120?$AA@ 10062dd0     trainstuff.obj
 0003:00017ddc       ??_C@_08LGFP@btfxt119?$AA@ 10062ddc     trainstuff.obj
 0003:00017de8       ??_C@_08BMMI@btfxt118?$AA@ 10062de8     trainstuff.obj
 0003:00017df4       ??_C@_08BNJF@btfxt117?$AA@ 10062df4     trainstuff.obj
 0003:00017e00       ??_C@_08LHAC@btfxt116?$AA@ 10062e00     trainstuff.obj
 0003:00017e0c       ??_C@_08EILL@btfxt115?$AA@ 10062e0c     trainstuff.obj
 0003:00017e18       ??_C@_08OCCM@btfxt114?$AA@ 10062e18     trainstuff.obj
 0003:00017e24       ??_C@_08LHMJ@btfxt113?$AA@ 10062e24     trainstuff.obj
 0003:00017e30       ??_C@_08BNFO@btfxt112?$AA@ 10062e30     trainstuff.obj
 0003:00017e3c       ??_C@_08OCOH@btfxt111?$AA@ 10062e3c     trainstuff.obj
 0003:00017e48       ??_C@_08EIHA@btfxt110?$AA@ 10062e48     trainstuff.obj
 0003:00017e54       ??_C@_08KAPF@btfxt109?$AA@ 10062e54     trainstuff.obj
 0003:00017e60       ??_C@_08KGC@btfxt108?$AA@  10062e60     trainstuff.obj
 0003:00017e6c       ??_C@_08LDP@btfxt107?$AA@  10062e6c     trainstuff.obj
 0003:00017e78       ??_C@_08KBKI@btfxt106?$AA@ 10062e78     trainstuff.obj
 0003:00017e84       ??_C@_08FOBB@btfxt105?$AA@ 10062e84     trainstuff.obj
 0003:00017e90       ??_C@_08PEIG@btfxt104?$AA@ 10062e90     trainstuff.obj
 0003:00017e9c       ??_C@_08KBGD@btfxt103?$AA@ 10062e9c     trainstuff.obj
 0003:00017ea8       ??_C@_08LPE@btfxt102?$AA@  10062ea8     trainstuff.obj
 0003:00017eb4       ??_C@_08PEEN@btfxt101?$AA@ 10062eb4     trainstuff.obj
 0003:00017ec0       ??_C@_08FONK@btfxt100?$AA@ 10062ec0     trainstuff.obj
 0003:00017ecc       ??_C@_07BNK@btfxt99?$AA@   10062ecc     trainstuff.obj
 0003:00017ed4       ??_C@_07KLEN@btfxt98?$AA@  10062ed4     trainstuff.obj
 0003:00017edc       ??_C@_07KKBA@btfxt97?$AA@  10062edc     trainstuff.obj
 0003:00017ee4       ??_C@_07IH@btfxt96?$AA@    10062ee4     trainstuff.obj
 0003:00017eec       ??_C@_07PPDO@btfxt95?$AA@  10062eec     trainstuff.obj
 0003:00017ef4       ??_C@_07FFKJ@btfxt94?$AA@  10062ef4     trainstuff.obj
 0003:00017efc       ??_C@_07EM@btfxt93?$AA@    10062efc     trainstuff.obj
 0003:00017f04       ??_C@_07KKNL@btfxt92?$AA@  10062f04     trainstuff.obj
 0003:00017f0c       ??_C@_07FFGC@btfxt91?$AA@  10062f0c     trainstuff.obj
 0003:00017f14       ??_C@_07PPPF@btfxt90?$AA@  10062f14     trainstuff.obj
 0003:00017f1c       ??_C@_07BHHA@btfxt89?$AA@  10062f1c     trainstuff.obj
 0003:00017f24       ??_C@_07LNOH@btfxt88?$AA@  10062f24     trainstuff.obj
 0003:00017f2c       ??_C@_07LMLK@btfxt87?$AA@  10062f2c     trainstuff.obj
 0003:00017f34       ??_C@_07BGCN@btfxt86?$AA@  10062f34     trainstuff.obj
 0003:00017f3c       ??_C@_07OJJE@btfxt85?$AA@  10062f3c     trainstuff.obj
 0003:00017f44       ??_C@_07EDAD@btfxt84?$AA@  10062f44     trainstuff.obj
 0003:00017f4c       ??_C@_07BGOG@btfxt83?$AA@  10062f4c     trainstuff.obj
 0003:00017f54       ??_C@_07LMHB@btfxt82?$AA@  10062f54     trainstuff.obj
 0003:00017f5c       ??_C@_07EDMI@btfxt81?$AA@  10062f5c     trainstuff.obj
 0003:00017f64       ??_C@_07OJFP@btfxt80?$AA@  10062f64     trainstuff.obj
 0003:00017f6c       ??_C@_07MDHB@btfxt79?$AA@  10062f6c     trainstuff.obj
 0003:00017f74       ??_C@_07GJOG@btfxt78?$AA@  10062f74     trainstuff.obj
 0003:00017f7c       ??_C@_07GILL@btfxt77?$AA@  10062f7c     trainstuff.obj
 0003:00017f84       ??_C@_07MCCM@btfxt76?$AA@  10062f84     trainstuff.obj
 0003:00017f8c       ??_C@_07DNJF@btfxt75?$AA@  10062f8c     trainstuff.obj
 0003:00017f94       ??_C@_07JHAC@btfxt74?$AA@  10062f94     trainstuff.obj
 0003:00017f9c       ??_C@_07MCOH@btfxt73?$AA@  10062f9c     trainstuff.obj
 0003:00017fa4       ??_C@_07GIHA@btfxt72?$AA@  10062fa4     trainstuff.obj
 0003:00017fac       ??_C@_07JHMJ@btfxt71?$AA@  10062fac     trainstuff.obj
 0003:00017fb4       ??_C@_07DNFO@btfxt70?$AA@  10062fb4     trainstuff.obj
 0003:00017fbc       ??_C@_07NFNL@btfxt69?$AA@  10062fbc     trainstuff.obj
 0003:00017fc4       ??_C@_07HPEM@btfxt68?$AA@  10062fc4     trainstuff.obj
 0003:00017fcc       ??_C@_07HOBB@btfxt67?$AA@  10062fcc     trainstuff.obj
 0003:00017fd4       ??_C@_07NEIG@btfxt66?$AA@  10062fd4     trainstuff.obj
 0003:00017fdc       ??_C@_07CLDP@btfxt65?$AA@  10062fdc     trainstuff.obj
 0003:00017fe4       ??_C@_07IBKI@btfxt64?$AA@  10062fe4     trainstuff.obj
 0003:00017fec       ??_C@_07NEEN@btfxt63?$AA@  10062fec     trainstuff.obj
 0003:00017ff4       ??_C@_07HONK@btfxt62?$AA@  10062ff4     trainstuff.obj
 0003:00017ffc       ??_C@_07IBGD@btfxt61?$AA@  10062ffc     trainstuff.obj
 0003:00018004       ??_C@_07CLPE@btfxt60?$AA@  10063004     trainstuff.obj
 0003:0001800c       ??_C@_07OOCE@btfxt59?$AA@  1006300c     trainstuff.obj
 0003:00018014       ??_C@_07EELD@btfxt58?$AA@  10063014     trainstuff.obj
 0003:0001801c       ??_C@_07EFOO@btfxt57?$AA@  1006301c     trainstuff.obj
 0003:00018024       ??_C@_07OPHJ@btfxt56?$AA@  10063024     trainstuff.obj
 0003:0001802c       ??_C@_07BAMA@btfxt55?$AA@  1006302c     trainstuff.obj
 0003:00018034       ??_C@_07LKFH@btfxt54?$AA@  10063034     trainstuff.obj
 0003:0001803c       ??_C@_07OPLC@btfxt53?$AA@  1006303c     trainstuff.obj
 0003:00018044       ??_C@_07EFCF@btfxt52?$AA@  10063044     trainstuff.obj
 0003:0001804c       ??_C@_07LKJM@btfxt51?$AA@  1006304c     trainstuff.obj
 0003:00018054       ??_C@_07BAAL@btfxt50?$AA@  10063054     trainstuff.obj
 0003:0001805c       ??_C@_07PIIO@btfxt49?$AA@  1006305c     trainstuff.obj
 0003:00018064       ??_C@_07FCBJ@btfxt48?$AA@  10063064     trainstuff.obj
 0003:0001806c       ??_C@_07FDEE@btfxt47?$AA@  1006306c     trainstuff.obj
 0003:00018074       ??_C@_07PJND@btfxt46?$AA@  10063074     trainstuff.obj
 0003:0001807c       ??_C@_07GGK@btfxt45?$AA@   1006307c     trainstuff.obj
 0003:00018084       ??_C@_07KMPN@btfxt44?$AA@  10063084     trainstuff.obj
 0003:0001808c       ??_C@_07PJBI@btfxt43?$AA@  1006308c     trainstuff.obj
 0003:00018094       ??_C@_07FDIP@btfxt42?$AA@  10063094     trainstuff.obj
 0003:0001809c       ??_C@_07KMDG@btfxt41?$AA@  1006309c     trainstuff.obj
 0003:000180a4       ??_C@_07GKB@btfxt40?$AA@   100630a4     trainstuff.obj
 0003:000180ac       ??_C@_07JJNL@btfxt39?$AA@  100630ac     trainstuff.obj
 0003:000180b4       ??_C@_07DDEM@btfxt38?$AA@  100630b4     trainstuff.obj
 0003:000180bc       ??_C@_07DCBB@btfxt37?$AA@  100630bc     trainstuff.obj
 0003:000180c4       ??_C@_07JIIG@btfxt36?$AA@  100630c4     trainstuff.obj
 0003:000180cc       ??_C@_07GHDP@btfxt35?$AA@  100630cc     trainstuff.obj
 0003:000180d4       ??_C@_07MNKI@btfxt34?$AA@  100630d4     trainstuff.obj
 0003:000180dc       ??_C@_07JIEN@btfxt33?$AA@  100630dc     trainstuff.obj
 0003:000180e4       ??_C@_07DCNK@btfxt32?$AA@  100630e4     trainstuff.obj
 0003:000180ec       ??_C@_07MNGD@btfxt31?$AA@  100630ec     trainstuff.obj
 0003:000180f4       ??_C@_07GHPE@btfxt30?$AA@  100630f4     trainstuff.obj
 0003:000180fc       ??_C@_07IPHB@btfxt29?$AA@  100630fc     trainstuff.obj
 0003:00018104       ??_C@_07CFOG@btfxt28?$AA@  10063104     trainstuff.obj
 0003:0001810c       ??_C@_07CELL@btfxt27?$AA@  1006310c     trainstuff.obj
 0003:00018114       ??_C@_07IOCM@btfxt26?$AA@  10063114     trainstuff.obj
 0003:0001811c       ??_C@_07HBJF@btfxt25?$AA@  1006311c     trainstuff.obj
 0003:00018124       ??_C@_07NLAC@btfxt24?$AA@  10063124     trainstuff.obj
 0003:0001812c       ??_C@_07IOOH@btfxt23?$AA@  1006312c     trainstuff.obj
 0003:00018134       ??_C@_07CEHA@btfxt22?$AA@  10063134     trainstuff.obj
 0003:0001813c       ??_C@_07NLMJ@btfxt21?$AA@  1006313c     trainstuff.obj
 0003:00018144       ??_C@_07HBFO@btfxt20?$AA@  10063144     trainstuff.obj
 0003:0001814c       ??_C@_07LEIO@btfxt19?$AA@  1006314c     trainstuff.obj
 0003:00018154       ??_C@_07BOBJ@btfxt18?$AA@  10063154     trainstuff.obj
 0003:0001815c       ??_C@_07BPEE@btfxt17?$AA@  1006315c     trainstuff.obj
 0003:00018164       ??_C@_07LFND@btfxt16?$AA@  10063164     trainstuff.obj
 0003:0001816c       ??_C@_07EKGK@btfxt15?$AA@  1006316c     trainstuff.obj
 0003:00018174       ??_C@_07OAPN@btfxt14?$AA@  10063174     trainstuff.obj
 0003:0001817c       ??_C@_07LFBI@btfxt13?$AA@  1006317c     trainstuff.obj
 0003:00018184       ??_C@_07BPIP@btfxt12?$AA@  10063184     trainstuff.obj
 0003:0001818c       ??_C@_07OADG@btfxt11?$AA@  1006318c     trainstuff.obj
 0003:00018194       ??_C@_07EKKB@btfxt10?$AA@  10063194     trainstuff.obj
 0003:0001819c       ??_C@_06GFLD@btfxt9?$AA@   1006319c     trainstuff.obj
 0003:000181a4       ??_C@_06MPCE@btfxt8?$AA@   100631a4     trainstuff.obj
 0003:000181ac       ??_C@_06MOHJ@btfxt7?$AA@   100631ac     trainstuff.obj
 0003:000181b4       ??_C@_06GEOO@btfxt6?$AA@   100631b4     trainstuff.obj
 0003:000181bc       ??_C@_06JLFH@btfxt5?$AA@   100631bc     trainstuff.obj
 0003:000181c4       ??_C@_06DBMA@btfxt4?$AA@   100631c4     trainstuff.obj
 0003:000181cc       ??_C@_06GECF@btfxt3?$AA@   100631cc     trainstuff.obj
 0003:000181d4       ??_C@_06MOLC@btfxt2?$AA@   100631d4     trainstuff.obj
 0003:000181dc       ??_C@_06DBAL@btfxt1?$AA@   100631dc     trainstuff.obj
 0003:000181e4       ??_C@_08HAKC@rtfxt240?$AA@ 100631e4     trainstuff.obj
 0003:000181f0       ??_C@_08OPNI@rtfxt239?$AA@ 100631f0     trainstuff.obj
 0003:000181fc       ??_C@_08EFEP@rtfxt238?$AA@ 100631fc     trainstuff.obj
 0003:00018208       ??_C@_08EEBC@rtfxt237?$AA@ 10063208     trainstuff.obj
 0003:00018214       ??_C@_08OOIF@rtfxt236?$AA@ 10063214     trainstuff.obj
 0003:00018220       ??_C@_08BBDM@rtfxt235?$AA@ 10063220     trainstuff.obj
 0003:0001822c       ??_C@_08LLKL@rtfxt234?$AA@ 1006322c     trainstuff.obj
 0003:00018238       ??_C@_08OOEO@rtfxt233?$AA@ 10063238     trainstuff.obj
 0003:00018244       ??_C@_08EENJ@rtfxt232?$AA@ 10063244     trainstuff.obj
 0003:00018250       ??_C@_08LLGA@rtfxt231?$AA@ 10063250     trainstuff.obj
 0003:0001825c       ??_C@_08BBPH@rtfxt230?$AA@ 1006325c     trainstuff.obj
 0003:00018268       ??_C@_08PJHC@rtfxt229?$AA@ 10063268     trainstuff.obj
 0003:00018274       ??_C@_08FDOF@rtfxt228?$AA@ 10063274     trainstuff.obj
 0003:00018280       ??_C@_08FCLI@rtfxt227?$AA@ 10063280     trainstuff.obj
 0003:0001828c       ??_C@_08PICP@rtfxt226?$AA@ 1006328c     trainstuff.obj
 0003:00018298       ??_C@_08HJG@rtfxt225?$AA@  10063298     trainstuff.obj
 0003:000182a4       ??_C@_08KNAB@rtfxt224?$AA@ 100632a4     trainstuff.obj
 0003:000182b0       ??_C@_08PIOE@rtfxt223?$AA@ 100632b0     trainstuff.obj
 0003:000182bc       ??_C@_08FCHD@rtfxt222?$AA@ 100632bc     trainstuff.obj
 0003:000182c8       ??_C@_08KNMK@rtfxt221?$AA@ 100632c8     trainstuff.obj
 0003:000182d4       ??_C@_08HFN@rtfxt220?$AA@  100632d4     trainstuff.obj
 0003:000182e0       ??_C@_08MCIN@rtfxt219?$AA@ 100632e0     trainstuff.obj
 0003:000182ec       ??_C@_08GIBK@rtfxt218?$AA@ 100632ec     trainstuff.obj
 0003:000182f8       ??_C@_08GJEH@rtfxt217?$AA@ 100632f8     trainstuff.obj
 0003:00018304       ??_C@_08MDNA@rtfxt216?$AA@ 10063304     trainstuff.obj
 0003:00018310       ??_C@_08DMGJ@rtfxt215?$AA@ 10063310     trainstuff.obj
 0003:0001831c       ??_C@_08JGPO@rtfxt214?$AA@ 1006331c     trainstuff.obj
 0003:00018328       ??_C@_08MDBL@rtfxt213?$AA@ 10063328     trainstuff.obj
 0003:00018334       ??_C@_09JGBD@rtfxt2212?$AA@ 10063334     trainstuff.obj
 0003:00018340       ??_C@_08JGDF@rtfxt211?$AA@ 10063340     trainstuff.obj
 0003:0001834c       ??_C@_08DMKC@rtfxt210?$AA@ 1006334c     trainstuff.obj
 0003:00018358       ??_C@_08NECH@rtfxt209?$AA@ 10063358     trainstuff.obj
 0003:00018364       ??_C@_08HOLA@rtfxt208?$AA@ 10063364     trainstuff.obj
 0003:00018370       ??_C@_08HPON@rtfxt207?$AA@ 10063370     trainstuff.obj
 0003:0001837c       ??_C@_08NFHK@rtfxt206?$AA@ 1006337c     trainstuff.obj
 0003:00018388       ??_C@_08CKMD@rtfxt205?$AA@ 10063388     trainstuff.obj
 0003:00018394       ??_C@_08IAFE@rtfxt204?$AA@ 10063394     trainstuff.obj
 0003:000183a0       ??_C@_08NFLB@rtfxt203?$AA@ 100633a0     trainstuff.obj
 0003:000183ac       ??_C@_08HPCG@rtfxt202?$AA@ 100633ac     trainstuff.obj
 0003:000183b8       ??_C@_08IAJP@rtfxt201?$AA@ 100633b8     trainstuff.obj
 0003:000183c4       ??_C@_08CKAI@rtfxt200?$AA@ 100633c4     trainstuff.obj
 0003:000183d0       ??_C@_08IBOC@rtfxt199?$AA@ 100633d0     trainstuff.obj
 0003:000183dc       ??_C@_08CLHF@rtfxt198?$AA@ 100633dc     trainstuff.obj
 0003:000183e8       ??_C@_08CKCI@rtfxt197?$AA@ 100633e8     trainstuff.obj
 0003:000183f4       ??_C@_08IALP@rtfxt196?$AA@ 100633f4     trainstuff.obj
 0003:00018400       ??_C@_08HPAG@rtfxt195?$AA@ 10063400     trainstuff.obj
 0003:0001840c       ??_C@_08NFJB@rtfxt194?$AA@ 1006340c     trainstuff.obj
 0003:00018418       ??_C@_08IAHE@rtfxt193?$AA@ 10063418     trainstuff.obj
 0003:00018424       ??_C@_08CKOD@rtfxt192?$AA@ 10063424     trainstuff.obj
 0003:00018430       ??_C@_08NFFK@rtfxt191?$AA@ 10063430     trainstuff.obj
 0003:0001843c       ??_C@_08HPMN@rtfxt190?$AA@ 1006343c     trainstuff.obj
 0003:00018448       ??_C@_08JHEI@rtfxt189?$AA@ 10063448     trainstuff.obj
 0003:00018454       ??_C@_08DNNP@rtfxt188?$AA@ 10063454     trainstuff.obj
 0003:00018460       ??_C@_08DMIC@rtfxt187?$AA@ 10063460     trainstuff.obj
 0003:0001846c       ??_C@_08JGBF@rtfxt186?$AA@ 1006346c     trainstuff.obj
 0003:00018478       ??_C@_08GJKM@rtfxt185?$AA@ 10063478     trainstuff.obj
 0003:00018484       ??_C@_08MDDL@rtfxt184?$AA@ 10063484     trainstuff.obj
 0003:00018490       ??_C@_08JGNO@rtfxt183?$AA@ 10063490     trainstuff.obj
 0003:0001849c       ??_C@_08DMEJ@rtfxt182?$AA@ 1006349c     trainstuff.obj
 0003:000184a8       ??_C@_08MDPA@rtfxt181?$AA@ 100634a8     trainstuff.obj
 0003:000184b4       ??_C@_08GJGH@rtfxt180?$AA@ 100634b4     trainstuff.obj
 0003:000184c0       ??_C@_08EDEJ@rtfxt179?$AA@ 100634c0     trainstuff.obj
 0003:000184cc       ??_C@_08OJNO@rtfxt178?$AA@ 100634cc     trainstuff.obj
 0003:000184d8       ??_C@_08OIID@rtfxt177?$AA@ 100634d8     trainstuff.obj
 0003:000184e4       ??_C@_08ECBE@rtfxt176?$AA@ 100634e4     trainstuff.obj
 0003:000184f0       ??_C@_08LNKN@rtfxt175?$AA@ 100634f0     trainstuff.obj
 0003:000184fc       ??_C@_08BHDK@rtfxt174?$AA@ 100634fc     trainstuff.obj
 0003:00018508       ??_C@_08ECNP@rtfxt173?$AA@ 10063508     trainstuff.obj
 0003:00018514       ??_C@_08OIEI@rtfxt172?$AA@ 10063514     trainstuff.obj
 0003:00018520       ??_C@_08BHPB@rtfxt171?$AA@ 10063520     trainstuff.obj
 0003:0001852c       ??_C@_08LNGG@rtfxt170?$AA@ 1006352c     trainstuff.obj
 0003:00018538       ??_C@_08FFOD@rtfxt169?$AA@ 10063538     trainstuff.obj
 0003:00018544       ??_C@_08PPHE@rtfxt168?$AA@ 10063544     trainstuff.obj
 0003:00018550       ??_C@_08POCJ@rtfxt167?$AA@ 10063550     trainstuff.obj
 0003:0001855c       ??_C@_08FELO@rtfxt166?$AA@ 1006355c     trainstuff.obj
 0003:00018568       ??_C@_08KLAH@rtfxt165?$AA@ 10063568     trainstuff.obj
 0003:00018574       ??_C@_08BJA@rtfxt164?$AA@  10063574     trainstuff.obj
 0003:00018580       ??_C@_08FEHF@rtfxt163?$AA@ 10063580     trainstuff.obj
 0003:0001858c       ??_C@_08POOC@rtfxt162?$AA@ 1006358c     trainstuff.obj
 0003:00018598       ??_C@_08BFL@rtfxt161?$AA@  10063598     trainstuff.obj
 0003:000185a4       ??_C@_08KLMM@rtfxt160?$AA@ 100635a4     trainstuff.obj
 0003:000185b0       ??_C@_08GOBM@rtfxt159?$AA@ 100635b0     trainstuff.obj
 0003:000185bc       ??_C@_08MEIL@rtfxt158?$AA@ 100635bc     trainstuff.obj
 0003:000185c8       ??_C@_08MFNG@rtfxt157?$AA@ 100635c8     trainstuff.obj
 0003:000185d4       ??_C@_08GPEB@rtfxt156?$AA@ 100635d4     trainstuff.obj
 0003:000185e0       ??_C@_08JAPI@rtfxt155?$AA@ 100635e0     trainstuff.obj
 0003:000185ec       ??_C@_08DKGP@rtfxt154?$AA@ 100635ec     trainstuff.obj
 0003:000185f8       ??_C@_08GPIK@rtfxt153?$AA@ 100635f8     trainstuff.obj
 0003:00018604       ??_C@_08MFBN@rtfxt152?$AA@ 10063604     trainstuff.obj
 0003:00018610       ??_C@_08DKKE@rtfxt151?$AA@ 10063610     trainstuff.obj
 0003:0001861c       ??_C@_08JADD@rtfxt150?$AA@ 1006361c     trainstuff.obj
 0003:00018628       ??_C@_08HILG@rtfxt149?$AA@ 10063628     trainstuff.obj
 0003:00018634       ??_C@_08NCCB@rtfxt148?$AA@ 10063634     trainstuff.obj
 0003:00018640       ??_C@_08NDHM@rtfxt147?$AA@ 10063640     trainstuff.obj
 0003:0001864c       ??_C@_08HJOL@rtfxt146?$AA@ 1006364c     trainstuff.obj
 0003:00018658       ??_C@_08IGFC@rtfxt145?$AA@ 10063658     trainstuff.obj
 0003:00018664       ??_C@_08CMMF@rtfxt144?$AA@ 10063664     trainstuff.obj
 0003:00018670       ??_C@_08HJCA@rtfxt143?$AA@ 10063670     trainstuff.obj
 0003:0001867c       ??_C@_08NDLH@rtfxt142?$AA@ 1006367c     trainstuff.obj
 0003:00018688       ??_C@_08CMAO@rtfxt141?$AA@ 10063688     trainstuff.obj
 0003:00018694       ??_C@_08IGJJ@rtfxt140?$AA@ 10063694     trainstuff.obj
 0003:000186a0       ??_C@_08BJOD@rtfxt139?$AA@ 100636a0     trainstuff.obj
 0003:000186ac       ??_C@_08LDHE@rtfxt138?$AA@ 100636ac     trainstuff.obj
 0003:000186b8       ??_C@_08LCCJ@rtfxt137?$AA@ 100636b8     trainstuff.obj
 0003:000186c4       ??_C@_08BILO@rtfxt136?$AA@ 100636c4     trainstuff.obj
 0003:000186d0       ??_C@_08OHAH@rtfxt135?$AA@ 100636d0     trainstuff.obj
 0003:000186dc       ??_C@_08ENJA@rtfxt134?$AA@ 100636dc     trainstuff.obj
 0003:000186e8       ??_C@_08BIHF@rtfxt133?$AA@ 100636e8     trainstuff.obj
 0003:000186f4       ??_C@_08LCOC@rtfxt132?$AA@ 100636f4     trainstuff.obj
 0003:00018700       ??_C@_08ENFL@rtfxt131?$AA@ 10063700     trainstuff.obj
 0003:0001870c       ??_C@_08OHMM@rtfxt130?$AA@ 1006370c     trainstuff.obj
 0003:00018718       ??_C@_08PEJ@rtfxt129?$AA@  10063718     trainstuff.obj
 0003:00018724       ??_C@_08KFNO@rtfxt128?$AA@ 10063724     trainstuff.obj
 0003:00018730       ??_C@_08KEID@rtfxt127?$AA@ 10063730     trainstuff.obj
 0003:0001873c       ??_C@_08OBE@rtfxt126?$AA@  1006373c     trainstuff.obj
 0003:00018748       ??_C@_08PBKN@rtfxt125?$AA@ 10063748     trainstuff.obj
 0003:00018754       ??_C@_08FLDK@rtfxt124?$AA@ 10063754     trainstuff.obj
 0003:00018760       ??_C@_08ONP@rtfxt123?$AA@  10063760     trainstuff.obj
 0003:0001876c       ??_C@_08KEEI@rtfxt122?$AA@ 1006376c     trainstuff.obj
 0003:00018778       ??_C@_08FLPB@rtfxt121?$AA@ 10063778     trainstuff.obj
 0003:00018784       ??_C@_08PBGG@rtfxt120?$AA@ 10063784     trainstuff.obj
 0003:00018790       ??_C@_08DELG@rtfxt119?$AA@ 10063790     trainstuff.obj
 0003:0001879c       ??_C@_08JOCB@rtfxt118?$AA@ 1006379c     trainstuff.obj
 0003:000187a8       ??_C@_08JPHM@rtfxt117?$AA@ 100637a8     trainstuff.obj
 0003:000187b4       ??_C@_08DFOL@rtfxt116?$AA@ 100637b4     trainstuff.obj
 0003:000187c0       ??_C@_08MKFC@rtfxt115?$AA@ 100637c0     trainstuff.obj
 0003:000187cc       ??_C@_08GAMF@rtfxt114?$AA@ 100637cc     trainstuff.obj
 0003:000187d8       ??_C@_08DFCA@rtfxt113?$AA@ 100637d8     trainstuff.obj
 0003:000187e4       ??_C@_08JPLH@rtfxt112?$AA@ 100637e4     trainstuff.obj
 0003:000187f0       ??_C@_08GAAO@rtfxt111?$AA@ 100637f0     trainstuff.obj
 0003:000187fc       ??_C@_08MKJJ@rtfxt110?$AA@ 100637fc     trainstuff.obj
 0003:00018808       ??_C@_08CCBM@rtfxt109?$AA@ 10063808     trainstuff.obj
 0003:00018814       ??_C@_08IIIL@rtfxt108?$AA@ 10063814     trainstuff.obj
 0003:00018820       ??_C@_08IJNG@rtfxt107?$AA@ 10063820     trainstuff.obj
 0003:0001882c       ??_C@_08CDEB@rtfxt106?$AA@ 1006382c     trainstuff.obj
 0003:00018838       ??_C@_08NMPI@rtfxt105?$AA@ 10063838     trainstuff.obj
 0003:00018844       ??_C@_08HGGP@rtfxt104?$AA@ 10063844     trainstuff.obj
 0003:00018850       ??_C@_08CDIK@rtfxt103?$AA@ 10063850     trainstuff.obj
 0003:0001885c       ??_C@_08IJBN@rtfxt102?$AA@ 1006385c     trainstuff.obj
 0003:00018868       ??_C@_08HGKE@rtfxt101?$AA@ 10063868     trainstuff.obj
 0003:00018874       ??_C@_08NMDD@rtfxt100?$AA@ 10063874     trainstuff.obj
 0003:00018880       ??_C@_07OIIA@rtfxt99?$AA@  10063880     trainstuff.obj
 0003:00018888       ??_C@_07ECBH@rtfxt98?$AA@  10063888     trainstuff.obj
 0003:00018890       ??_C@_07EDEK@rtfxt97?$AA@  10063890     trainstuff.obj
 0003:00018898       ??_C@_07OJNN@rtfxt96?$AA@  10063898     trainstuff.obj
 0003:000188a0       ??_C@_07BGGE@rtfxt95?$AA@  100638a0     trainstuff.obj
 0003:000188a8       ??_C@_07LMPD@rtfxt94?$AA@  100638a8     trainstuff.obj
 0003:000188b0       ??_C@_07OJBG@rtfxt93?$AA@  100638b0     trainstuff.obj
 0003:000188b8       ??_C@_07EDIB@rtfxt92?$AA@  100638b8     trainstuff.obj
 0003:000188c0       ??_C@_07LMDI@rtfxt91?$AA@  100638c0     trainstuff.obj
 0003:000188c8       ??_C@_07BGKP@rtfxt90?$AA@  100638c8     trainstuff.obj
 0003:000188d0       ??_C@_07POCK@rtfxt89?$AA@  100638d0     trainstuff.obj
 0003:000188d8       ??_C@_07FELN@rtfxt88?$AA@  100638d8     trainstuff.obj
 0003:000188e0       ??_C@_07FFOA@rtfxt87?$AA@  100638e0     trainstuff.obj
 0003:000188e8       ??_C@_07PPHH@rtfxt86?$AA@  100638e8     trainstuff.obj
 0003:000188f0       ??_C@_07MO@rtfxt85?$AA@    100638f0     trainstuff.obj
 0003:000188f8       ??_C@_07KKFJ@rtfxt84?$AA@  100638f8     trainstuff.obj
 0003:00018900       ??_C@_07PPLM@rtfxt83?$AA@  10063900     trainstuff.obj
 0003:00018908       ??_C@_07FFCL@rtfxt82?$AA@  10063908     trainstuff.obj
 0003:00018910       ??_C@_07KKJC@rtfxt81?$AA@  10063910     trainstuff.obj
 0003:00018918       ??_C@_074rtfxt80?$AA@      10063918     trainstuff.obj
 0003:00018920       ??_C@_07CKCL@rtfxt79?$AA@  10063920     trainstuff.obj
 0003:00018928       ??_C@_07IALM@rtfxt78?$AA@  10063928     trainstuff.obj
 0003:00018930       ??_C@_07IBOB@rtfxt77?$AA@  10063930     trainstuff.obj
 0003:00018938       ??_C@_07CLHG@rtfxt76?$AA@  10063938     trainstuff.obj
 0003:00018940       ??_C@_07NEMP@rtfxt75?$AA@  10063940     trainstuff.obj
 0003:00018948       ??_C@_07HOFI@rtfxt74?$AA@  10063948     trainstuff.obj
 0003:00018950       ??_C@_07CLLN@rtfxt73?$AA@  10063950     trainstuff.obj
 0003:00018958       ??_C@_07IBCK@rtfxt72?$AA@  10063958     trainstuff.obj
 0003:00018960       ??_C@_07HOJD@rtfxt71?$AA@  10063960     trainstuff.obj
 0003:00018968       ??_C@_07NEAE@rtfxt70?$AA@  10063968     trainstuff.obj
 0003:00018970       ??_C@_07DMIB@rtfxt69?$AA@  10063970     trainstuff.obj
 0003:00018978       ??_C@_07JGBG@rtfxt68?$AA@  10063978     trainstuff.obj
 0003:00018980       ??_C@_07JHEL@rtfxt67?$AA@  10063980     trainstuff.obj
 0003:00018988       ??_C@_07DNNM@rtfxt66?$AA@  10063988     trainstuff.obj
 0003:00018990       ??_C@_07MCGF@rtfxt65?$AA@  10063990     trainstuff.obj
 0003:00018998       ??_C@_07GIPC@rtfxt64?$AA@  10063998     trainstuff.obj
 0003:000189a0       ??_C@_07DNBH@rtfxt63?$AA@  100639a0     trainstuff.obj
 0003:000189a8       ??_C@_07JHIA@rtfxt62?$AA@  100639a8     trainstuff.obj
 0003:000189b0       ??_C@_07GIDJ@rtfxt61?$AA@  100639b0     trainstuff.obj
 0003:000189b8       ??_C@_07MCKO@rtfxt60?$AA@  100639b8     trainstuff.obj
 0003:000189c0       ??_C@_07HHO@rtfxt59?$AA@   100639c0     trainstuff.obj
 0003:000189c8       ??_C@_07KNOJ@rtfxt58?$AA@  100639c8     trainstuff.obj
 0003:000189d0       ??_C@_07KMLE@rtfxt57?$AA@  100639d0     trainstuff.obj
 0003:000189d8       ??_C@_07GCD@rtfxt56?$AA@   100639d8     trainstuff.obj
 0003:000189e0       ??_C@_07PJJK@rtfxt55?$AA@  100639e0     trainstuff.obj
 0003:000189e8       ??_C@_07FDAN@rtfxt54?$AA@  100639e8     trainstuff.obj
 0003:000189f0       ??_C@_07GOI@rtfxt53?$AA@   100639f0     trainstuff.obj
 0003:000189f8       ??_C@_07KMHP@rtfxt52?$AA@  100639f8     trainstuff.obj
 0003:00018a00       ??_C@_07FDMG@rtfxt51?$AA@  10063a00     trainstuff.obj
 0003:00018a08       ??_C@_07PJFB@rtfxt50?$AA@  10063a08     trainstuff.obj
 0003:00018a10       ??_C@_07BBNE@rtfxt49?$AA@  10063a10     trainstuff.obj
 0003:00018a18       ??_C@_07LLED@rtfxt48?$AA@  10063a18     trainstuff.obj
 0003:00018a20       ??_C@_07LKBO@rtfxt47?$AA@  10063a20     trainstuff.obj
 0003:00018a28       ??_C@_07BAIJ@rtfxt46?$AA@  10063a28     trainstuff.obj
 0003:00018a30       ??_C@_07OPDA@rtfxt45?$AA@  10063a30     trainstuff.obj
 0003:00018a38       ??_C@_07EFKH@rtfxt44?$AA@  10063a38     trainstuff.obj
 0003:00018a40       ??_C@_07BAEC@rtfxt43?$AA@  10063a40     trainstuff.obj
 0003:00018a48       ??_C@_07LKNF@rtfxt42?$AA@  10063a48     trainstuff.obj
 0003:00018a50       ??_C@_07EFGM@rtfxt41?$AA@  10063a50     trainstuff.obj
 0003:00018a58       ??_C@_07OPPL@rtfxt40?$AA@  10063a58     trainstuff.obj
 0003:00018a60       ??_C@_07HAIB@rtfxt39?$AA@  10063a60     trainstuff.obj
 0003:00018a68       ??_C@_07NKBG@rtfxt38?$AA@  10063a68     trainstuff.obj
 0003:00018a70       ??_C@_07NLEL@rtfxt37?$AA@  10063a70     trainstuff.obj
 0003:00018a78       ??_C@_07HBNM@rtfxt36?$AA@  10063a78     trainstuff.obj
 0003:00018a80       ??_C@_07IOGF@rtfxt35?$AA@  10063a80     trainstuff.obj
 0003:00018a88       ??_C@_07CEPC@rtfxt34?$AA@  10063a88     trainstuff.obj
 0003:00018a90       ??_C@_07HBBH@rtfxt33?$AA@  10063a90     trainstuff.obj
 0003:00018a98       ??_C@_07NLIA@rtfxt32?$AA@  10063a98     trainstuff.obj
 0003:00018aa0       ??_C@_07CEDJ@rtfxt31?$AA@  10063aa0     trainstuff.obj
 0003:00018aa8       ??_C@_07IOKO@rtfxt30?$AA@  10063aa8     trainstuff.obj
 0003:00018ab0       ??_C@_07GGCL@rtfxt29?$AA@  10063ab0     trainstuff.obj
 0003:00018ab8       ??_C@_07MMLM@rtfxt28?$AA@  10063ab8     trainstuff.obj
 0003:00018ac0       ??_C@_07MNOB@rtfxt27?$AA@  10063ac0     trainstuff.obj
 0003:00018ac8       ??_C@_07GHHG@rtfxt26?$AA@  10063ac8     trainstuff.obj
 0003:00018ad0       ??_C@_07JIMP@rtfxt25?$AA@  10063ad0     trainstuff.obj
 0003:00018ad8       ??_C@_07DCFI@rtfxt24?$AA@  10063ad8     trainstuff.obj
 0003:00018ae0       ??_C@_07GHLN@rtfxt23?$AA@  10063ae0     trainstuff.obj
 0003:00018ae8       ??_C@_07MNCK@rtfxt22?$AA@  10063ae8     trainstuff.obj
 0003:00018af0       ??_C@_07DCJD@rtfxt21?$AA@  10063af0     trainstuff.obj
 0003:00018af8       ??_C@_07JIAE@rtfxt20?$AA@  10063af8     trainstuff.obj
 0003:00018b00       ??_C@_07FNNE@rtfxt19?$AA@  10063b00     trainstuff.obj
 0003:00018b08       ??_C@_07PHED@rtfxt18?$AA@  10063b08     trainstuff.obj
 0003:00018b10       ??_C@_07PGBO@rtfxt17?$AA@  10063b10     trainstuff.obj
 0003:00018b18       ??_C@_07FMIJ@rtfxt16?$AA@  10063b18     trainstuff.obj
 0003:00018b20       ??_C@_07KDDA@rtfxt15?$AA@  10063b20     trainstuff.obj
 0003:00018b28       ??_C@_07JKH@rtfxt14?$AA@   10063b28     trainstuff.obj
 0003:00018b30       ??_C@_07FMEC@rtfxt13?$AA@  10063b30     trainstuff.obj
 0003:00018b38       ??_C@_07PGNF@rtfxt12?$AA@  10063b38     trainstuff.obj
 0003:00018b40       ??_C@_07JGM@rtfxt11?$AA@   10063b40     trainstuff.obj
 0003:00018b48       ??_C@_07KDPL@rtfxt10?$AA@  10063b48     trainstuff.obj
 0003:00018b50       ??_C@_06DPLB@rtfxt9?$AA@   10063b50     trainstuff.obj
 0003:00018b58       ??_C@_06JFCG@rtfxt8?$AA@   10063b58     trainstuff.obj
 0003:00018b60       ??_C@_06JEHL@rtfxt7?$AA@   10063b60     trainstuff.obj
 0003:00018b68       ??_C@_06DOOM@rtfxt6?$AA@   10063b68     trainstuff.obj
 0003:00018b70       ??_C@_06MBFF@rtfxt5?$AA@   10063b70     trainstuff.obj
 0003:00018b78       ??_C@_06GLMC@rtfxt4?$AA@   10063b78     trainstuff.obj
 0003:00018b80       ??_C@_06DOCH@rtfxt3?$AA@   10063b80     trainstuff.obj
 0003:00018b88       ??_C@_06JELA@rtfxt2?$AA@   10063b88     trainstuff.obj
 0003:00018b90       ??_C@_06GLAJ@rtfxt1?$AA@   10063b90     trainstuff.obj
 0003:00018b98       ??_C@_0BI@JNBI@Now?5laying?5?$CC?$CFs?$CC?5track?4?6?$AA@ 10063b98     trainstuff.obj
 0003:00018bb0       ??_C@_0BM@FPDD@Track?5?$CC?$CFs?$CC?5already?5exists?4?6?$AA@ 10063bb0     trainstuff.obj
 0003:00018bcc       ??_C@_0CG@KNGM@Track?5?$CC?$CFs?$CC?5is?5currently?5being?5dr@ 10063bcc     trainstuff.obj
 0003:00018bf4       ??_C@_0BP@JHPB@?$CC?$CFs?$CC?5is?5an?5invalid?5trackname?4?6?$AA@ 10063bf4     trainstuff.obj
 0003:00018c14       ??_C@_05DOGI@green?$AA@    10063c14     trainstuff.obj
 0003:00018c1c       ??_C@_06GNCM@yellow?$AA@   10063c1c     trainstuff.obj
 0003:00018c24       ??_C@_04FEG@blue?$AA@      10063c24     trainstuff.obj
 0003:00018c2c       ??_C@_03CMLD@red?$AA@      10063c2c     trainstuff.obj
 0003:00018c30       ??_C@_0BM@BMPF@Node?5?$CFd?5out?5of?5240?5placed?4?6?$AA@ 10063c30     trainstuff.obj
 0003:00018c4c       ??_C@_0CB@MABF@You?5completed?5laying?5the?5track?4?6@ 10063c4c     trainstuff.obj
 0003:00018c70       ??_C@_0DP@FKFD@You?5must?5select?5an?5entity?5into?5s@ 10063c70     trainstuff.obj
 0003:00018cb0       ??_C@_0CB@GCEM@?$CC?$CFs?$CC?5is?5an?5invalid?5track?5color?4?6@ 10063cb0     trainstuff.obj
 0003:00018cd4       ??_C@_0BF@EJJA@Track?5?$CC?$CFs?$CC?5deleted?4?6?$AA@ 10063cd4     trainstuff.obj
 0003:00018cec       ??_C@_0BP@IGMI@?$FLAUTOOP?$FN?5?$CFs?5placed?5a?5tripmine?6?$AA@ 10063cec     tripmine.obj
 0003:00018d0c       ??_C@_0CD@HDEI@You?5cannot?5place?5a?5tripmine?5here@ 10063d0c     tripmine.obj
 0003:00018d30       ??_C@_0DH@EFBJ@You?5cannot?5have?5more?5than?53?6trip@ 10063d30     tripmine.obj
 0003:00018d68       ??_C@_0BN@GPMK@You?5have?5no?5tripmines?5left?4?6?$AA@ 10063d68     tripmine.obj
 0003:00018d88       ??_C@_0BL@KPBJ@weapon_ao_tripminedetonate?$AA@ 10063d88     tripmine.obj
 0003:00018da4       ??_C@_0CA@PODI@Your?5tripmines?5were?5destroyed?4?6?$AA@ 10063da4     tripmine.obj
 0003:00018dc4       ??_C@_0CJ@IKEM@?$FLAUTOOP?$FN?5?$CFs?8s?5tripmines?5were?5des@ 10063dc4     tripmine.obj
 0003:00018df0       ??_C@_02DILL@?$CFs?$AA@    10063df0     util.obj
 0003:00018df4       ??_C@_09JDJH@classname?$AA@ 10063df4     util.obj
 0003:00018e00       ??_C@_0L@OBGK@ScreenFade?$AA@ 10063e00     util.obj
 0003:00018e0c       ??_C@_0M@PCMK@ScreenShake?$AA@ 10063e0c     util.obj
 0003:00018e18       ??_C@_0L@PMO@targetname?$AA@ 10063e18     util.obj
 0003:00018e24       ??_C@_0CB@GDJD@No?5player?5match?5found?5for?5?$CC?$CFs?$CC?4?6@ 10063e24     util.obj
 0003:00018e48       ??_C@_0EB@GJAE@Player?5search?5?$CC?$CFs?$CC?5returned?5too?5@ 10063e48     util.obj
 0003:00018e8c       ??_C@_0CD@IDIB@You?5are?5not?5pointing?5at?5a?5player@ 10063e8c     util.obj
 0003:00018eb0       ??_C@_06EMGK@?$CBpoint?$AA@ 10063eb0     util.obj
 0003:00018eb8       ??_C@_05CFPH@?$CBself?$AA@ 10063eb8     util.obj
 0003:00018ec0       ??_C@_06ILDP@Damage?$AA@   10063ec0     util.obj
 0003:00018ec8       ??_C@_0CM@JIAD@Skipping?5?$CFs?5from?5mapcycle?0?5not?5a@ 10063ec8     util.obj
 0003:00018ef4       ??_C@_0BA@FEK@violence_ablood?$AA@ 10063ef4     util.obj
 0003:00018f04       ??_C@_0BA@DNOL@violence_hblood?$AA@ 10063f04     util.obj
 0003:00018f14       ??_C@_0DL@PGEO@1?5Turret?5built?5by?3?5?$CFp1?62?5?5?5?5Heal@ 10063f14     util.obj
 0003:00018f50       ??_C@_0DL@MFMA@1?5Sensor?5built?5by?3?5?$CFp1?62?5?5?5?5Heal@ 10063f50     util.obj
 0003:00018f8c       ??_C@_0L@KAL@WeaponList?$AA@ 10063f8c     util.obj
 0003:00018f98       ??_C@_08FEII@ShowMenu?$AA@ 10063f98     util.obj
 0003:00018fa4       ??_C@_0BE@BAMK@Sentrygun?5rotated?4?6?$AA@ 10063fa4     util.obj
 0003:00018fb8       ??_C@_0DE@LKDP@You?5must?5look?5at?5the?5sentrygun?6y@ 10063fb8     util.obj
 0003:00018fec       ??_C@_0CI@KGMG@That?5sentrygun?5does?5not?5belong?5t@ 10063fec     util.obj
 0003:00019014       ??_C@_0CB@JMFH@AutoDJ?5?9?5Playing?5loop?5number?5?$CFd?6@ 10064014     util.obj
 0003:00019038       ??_C@_04MPDF@?4wav?$AA@    10064038     util.obj
 0003:00019040       ??_C@_0M@GJCL@autoop?1loop?$AA@ 10064040     util.obj
 0003:0001904c       ??_C@_0CB@CJNF@?$FLAUTOOP?$FN?5ICQ?3?5Sent?5sucessfully?4?6@ 1006404c     util.obj
 0003:00019070       ??_C@_0CI@OGCM@?$FLAUTOOP?$FN?5ICQ?3?5Unable?5to?5create?5s@ 10064070     util.obj
 0003:00019098       ??_C@_0DA@JNAO@?$FLAUTOOP?$FN?5ICQ?3?5Unable?5to?5resolve?5@ 10064098     util.obj
 0003:000190c8       ??_C@_0M@BJHO@wwp?4icq?4com?$AA@ 100640c8     util.obj
 0003:000190d4       ??_C@_0BO@KEAO@GET?5?1scripts?1WWPMsg?4dll?$DPfrom?$DN?$AA@ 100640d4     util.obj
 0003:000190f4       ??_C@_04NPPE@?$CGto?$DN?$AA@ 100640f4     util.obj
 0003:000190fc       ??_C@_06DMPP@?$CGbody?$DN?$AA@ 100640fc     util.obj
 0003:00019104       ??_C@_09LOEA@?$CGsubject?$DN?$AA@ 10064104     util.obj
 0003:00019110       ??_C@_0M@IPAA@?$CGfromemail?$DN?$AA@ 10064110     util.obj
 0003:0001911c       ??_C@_0CG@KFLK@?$FLAUTOOP?$FN?5ICQ?3?5Unable?5to?5open?5soc@ 1006411c     util.obj
 0003:00019144       ??_C@_0L@IGMH@SendICQ?$CI?$CJ?6?$AA@ 10064144     util.obj
 0003:00019150       ??_C@_03PHGM@N?1A?$AA@     10064150     util.obj
 0003:00019154       ??_C@_0BJ@DCNG@tfc?2autoop?2icqnotify?4txt?$AA@ 10064154     util.obj
 0003:00019170       ??_C@_09GFBF@Shodan?5?9?5?$AA@ 10064170     util.obj
 0003:00019180       ?gDecals@@3PAUDLL_DECALLIST@@A 10064180     world.obj
 0003:000192d0       ??_C@_0L@IFAI@?$HLmommablob?$AA@ 100642d0     world.obj
 0003:000192dc       ??_C@_0L@HJBP@?$HLsmscorch3?$AA@ 100642dc     world.obj
 0003:000192e8       ??_C@_0L@NDII@?$HLsmscorch2?$AA@ 100642e8     world.obj
 0003:000192f4       ??_C@_0L@CMDB@?$HLsmscorch1?$AA@ 100642f4     world.obj
 0003:00019300       ??_C@_0L@NPPG@?$HLgargstomp?$AA@ 10064300     world.obj
 0003:0001930c       ??_C@_08GIMN@?$HLbproof1?$AA@ 1006430c     world.obj
 0003:00019318       ??_C@_06DFFK@?$HLspit2?$AA@ 10064318     world.obj
 0003:00019320       ??_C@_06MKOD@?$HLspit1?$AA@ 10064320     world.obj
 0003:00019328       ??_C@_09EKCB@?$HLbigshot5?$AA@ 10064328     world.obj
 0003:00019334       ??_C@_09OALG@?$HLbigshot4?$AA@ 10064334     world.obj
 0003:00019340       ??_C@_09LFFD@?$HLbigshot3?$AA@ 10064340     world.obj
 0003:0001934c       ??_C@_09BPME@?$HLbigshot2?$AA@ 1006434c     world.obj
 0003:00019358       ??_C@_09OAHN@?$HLbigshot1?$AA@ 10064358     world.obj
 0003:00019364       ??_C@_07PPI@?$HLbreak3?$AA@ 10064364     world.obj
 0003:0001936c       ??_C@_07KFGP@?$HLbreak2?$AA@ 1006436c     world.obj
 0003:00019374       ??_C@_07FKNG@?$HLbreak1?$AA@ 10064374     world.obj
 0003:0001937c       ??_C@_08EMNG@?$HLyblood6?$AA@ 1006437c     world.obj
 0003:00019388       ??_C@_08LDGP@?$HLyblood5?$AA@ 10064388     world.obj
 0003:00019394       ??_C@_08BJPI@?$HLyblood4?$AA@ 10064394     world.obj
 0003:000193a0       ??_C@_08EMBN@?$HLyblood3?$AA@ 100643a0     world.obj
 0003:000193ac       ??_C@_08OGIK@?$HLyblood2?$AA@ 100643ac     world.obj
 0003:000193b8       ??_C@_08BJDD@?$HLyblood1?$AA@ 100643b8     world.obj
 0003:000193c4       ??_C@_07EGE@?$HLblood6?$AA@ 100643c4     world.obj
 0003:000193cc       ??_C@_07PLNN@?$HLblood5?$AA@ 100643cc     world.obj
 0003:000193d4       ??_C@_07FBEK@?$HLblood4?$AA@ 100643d4     world.obj
 0003:000193dc       ??_C@_07EKP@?$HLblood3?$AA@ 100643dc     world.obj
 0003:000193e4       ??_C@_07KODI@?$HLblood2?$AA@ 100643e4     world.obj
 0003:000193ec       ??_C@_07FBIB@?$HLblood1?$AA@ 100643ec     world.obj
 0003:000193f4       ??_C@_08ECHJ@?$HLscorch2?$AA@ 100643f4     world.obj
 0003:00019400       ??_C@_08LNMA@?$HLscorch1?$AA@ 10064400     world.obj
 0003:0001940c       ??_C@_09CHIC@?$HLlambda06?$AA@ 1006440c     world.obj
 0003:00019418       ??_C@_09NIDL@?$HLlambda05?$AA@ 10064418     world.obj
 0003:00019424       ??_C@_09HCKM@?$HLlambda04?$AA@ 10064424     world.obj
 0003:00019430       ??_C@_09CHEJ@?$HLlambda03?$AA@ 10064430     world.obj
 0003:0001943c       ??_C@_09INNO@?$HLlambda02?$AA@ 1006443c     world.obj
 0003:00019448       ??_C@_09HCGH@?$HLlambda01?$AA@ 10064448     world.obj
 0003:00019454       ??_C@_06PDHJ@?$HLshot5?$AA@ 10064454     world.obj
 0003:0001945c       ??_C@_06FJOO@?$HLshot4?$AA@ 1006445c     world.obj
 0003:00019464       ??_C@_06MAL@?$HLshot3?$AA@ 10064464     world.obj
 0003:0001946c       ??_C@_06KGJM@?$HLshot2?$AA@ 1006446c     world.obj
 0003:00019474       ??_C@_06FJCF@?$HLshot1?$AA@ 10064474     world.obj
 0003:0001947c       __fltused                  1006447c     LIBCMT:fpinit.obj
 0003:00019480       __ldused                   10064480     LIBCMT:fpinit.obj
 0003:00019484       __FPinit                   10064484     LIBCMT:fpinit.obj
 0003:00019488       __FPmtinit                 10064488     LIBCMT:fpinit.obj
 0003:0001948c       __FPmtterm                 1006448c     LIBCMT:fpinit.obj
 0003:00019490       __NLG_Destination          10064490     LIBCMT:exsup.obj
 0003:000194b0       __aexit_rtn                100644b0     LIBCMT:dllcrt0.obj
 0003:000194b8       __iob                      100644b8     LIBCMT:_file.obj
 0003:00019738       ___nullstring              10064738     LIBCMT:output.obj
 0003:0001973c       ___wnullstring             1006473c     LIBCMT:output.obj
 0003:00019740       __cfltcvt_tab              10064740     LIBCMT:cmiscdat.obj
 0003:00019758       __pctype                   10064758     LIBCMT:ctype.obj
 0003:0001975c       __pwctype                  1006475c     LIBCMT:ctype.obj
 0003:00019760       __ctype                    10064760     LIBCMT:ctype.obj
 0003:00019964       ___mb_cur_max              10064964     LIBCMT:nlsdata1.obj
 0003:00019968       ___decimal_point           10064968     LIBCMT:nlsdata1.obj
 0003:0001996c       ___decimal_point_length    1006496c     LIBCMT:nlsdata1.obj
 0003:00019970       __locktable                10064970     LIBCMT:mlock.obj
 0003:00019b40       ___tlsindex                10064b40     LIBCMT:tidtable.obj
 0003:00019b44       ?__pInconsistency@@3P6AXXZA 10064b44     LIBCMT:hooks.obj
 0003:00019d90       __d_inf                    10064d90     LIBCMT:util.obj
 0003:00019d98       __d_ind                    10064d98     LIBCMT:util.obj
 0003:00019da0       __d_max                    10064da0     LIBCMT:util.obj
 0003:00019da8       __d_min                    10064da8     LIBCMT:util.obj
 0003:00019db0       __d_mzero                  10064db0     LIBCMT:util.obj
 0003:00019de0       ___badioinfo               10064de0     LIBCMT:ioinit.obj
 0003:00019e04       __amblksiz                 10064e04     LIBCMT:heapinit.obj
 0003:00019e98       ___sbh_threshold           10064e98     LIBCMT:sbheap.obj
 0003:00019ed0       __XcptActTab               10064ed0     LIBCMT:winxfltr.obj
 0003:00019f48       __First_FPE_Indx           10064f48     LIBCMT:winxfltr.obj
 0003:00019f4c       __Num_FPE                  10064f4c     LIBCMT:winxfltr.obj
 0003:00019f50       __XcptActTabSize           10064f50     LIBCMT:winxfltr.obj
 0003:00019f54       __XcptActTabCount          10064f54     LIBCMT:winxfltr.obj
 0003:00019f58       __matherr_flag             10064f58     LIBCMT:matherr.obj
 0003:0001a058       ___lc_time_curr            10065058     LIBCMT:strftime.obj
 0003:0001a060       ___lc_time_c               10065060     LIBCMT:strftime.obj
 0003:0001a110       ___lconv_static_decimal    10065110     LIBCMT:lconv.obj
 0003:0001a118       ___lconv_c                 10065118     LIBCMT:lconv.obj
 0003:0001a148       ___lconv                   10065148     LIBCMT:lconv.obj
 0003:0001a14c       __timezone                 1006514c     LIBCMT:timeset.obj
 0003:0001a150       __daylight                 10065150     LIBCMT:timeset.obj
 0003:0001a154       __dstbias                  10065154     LIBCMT:timeset.obj
 0003:0001a1d8       __tzname                   100651d8     LIBCMT:timeset.obj
 0003:0001a200       __pow10pos                 10065200     LIBCMT:constpow.obj
 0003:0001a360       __pow10neg                 10065360     LIBCMT:constpow.obj
 0003:0001a4bc       __lpdays                   100654bc     LIBCMT:days.obj
 0003:0001a4f0       __days                     100654f0     LIBCMT:days.obj
 0003:0001a530       ??_R0?AVexception@@@8      10065530     libcpmt:string.obj
 0003:0001a548       ??_R0?AVlogic_error@std@@@8 10065548     libcpmt:string.obj
 0003:0001a568       ??_R0?AVlength_error@std@@@8 10065568     libcpmt:string.obj
 0003:0001a588       ??_R0?AVout_of_range@std@@@8 10065588     libcpmt:string.obj
 0003:0001a5a8       ?_Init_cnt@Init@ios_base@std@@0HA 100655a8     libcpmt:iostream.obj
 0003:0001a5b0       ??_R0?AVios_base@std@@@8   100655b0     libcpmt:iostream.obj
 0003:0001a5d0       ??_R0?AV?$basic_ios@DU?$char_traits@D@std@@@std@@@8 100655d0     libcpmt:iostream.obj
 0003:0001a608       ??_R0?AV?$basic_istream@DU?$char_traits@D@std@@@std@@@8 10065608     libcpmt:iostream.obj
 0003:0001a648       ??_R0?AV?$basic_ostream@DU?$char_traits@D@std@@@std@@@8 10065648     libcpmt:iostream.obj
 0003:0001a688       ??_R0?AV?$basic_streambuf@DU?$char_traits@D@std@@@std@@@8 10065688     libcpmt:iostream.obj
 0003:0001a6c8       ??_R0?AV?$basic_filebuf@DU?$char_traits@D@std@@@std@@@8 100656c8     libcpmt:iostream.obj
 0003:0001a704       ?_Init_cnt@_Winit@std@@0HA 10065704     libcpmt:wiostrea.obj
 0003:0001a708       ??_R0?AV?$basic_ios@GU?$char_traits@G@std@@@std@@@8 10065708     libcpmt:wiostrea.obj
 0003:0001a740       ??_R0?AV?$basic_istream@GU?$char_traits@G@std@@@std@@@8 10065740     libcpmt:wiostrea.obj
 0003:0001a780       ??_R0?AV?$basic_ostream@GU?$char_traits@G@std@@@std@@@8 10065780     libcpmt:wiostrea.obj
 0003:0001a7c0       ??_R0?AV?$basic_filebuf@GU?$char_traits@G@std@@@std@@@8 100657c0     libcpmt:wiostrea.obj
 0003:0001a800       ??_R0?AV?$basic_streambuf@GU?$char_traits@G@std@@@std@@@8 10065800     libcpmt:wiostrea.obj
 0003:0001a83c       ?_Sync@ios_base@std@@0_NA  1006583c     libcpmt:ios.obj
 0003:0001a840       ??_R0?AVruntime_error@std@@@8 10065840     libcpmt:ios.obj
 0003:0001a860       ??_R0?AVfailure@ios_base@std@@@8 10065860     libcpmt:ios.obj
 0003:0001a888       ??_R0?AVfacet@locale@std@@@8 10065888     libcpmt:locale0.obj
 0003:0001a8a8       ??_R0?AV_Locimp@locale@std@@@8 100658a8     libcpmt:locale0.obj
 0003:0001a8d0       ??_R0?AVtype_info@@@8      100658d0     LIBCMT:typinfo.obj
 0003:0001a8e8       ?__pMyUnhandledExceptionFilter@@3PAXA 100658e8     LIBCMT:throw.obj
 0003:0001a8f0       ??_C@_00A@?$AA@            100658f0     3rdperson.obj
 0003:0001a8f4       ?logfile@@3PAU_iobuf@@A    100658f4     basiccommands.obj
 0003:0001a918       ?QUAD_CREDS@@3HA           10065918     buying.obj
 0003:0001a91c       ?GOD_CREDS@@3HA            1006591c     buying.obj
 0003:0001a920       ?INVIS_CREDS@@3HA          10065920     buying.obj
 0003:0001a924       ?GRAV_CREDS@@3HA           10065924     buying.obj
 0003:0001a928       ?SPEED_CREDS@@3HA          10065928     buying.obj
 0003:0001a92c       ?CIV_CREDS@@3HA            1006592c     buying.obj
 0003:0001a930       ?HEAL_CREDS@@3HA           10065930     buying.obj
 0003:0001a934       ?MAPVOTE_CREDS@@3HA        10065934     buying.obj
 0003:0001a938       ?TRAIL_CREDS@@3HA          10065938     buying.obj
 0003:0001a93c       ?ADMINSKIN_CREDS@@3HA      1006593c     buying.obj
 0003:0001a940       ?AMMO_NAILS_CREDS@@3HA     10065940     buying.obj
 0003:0001a944       ?AMMO_SHELLS_CREDS@@3HA    10065944     buying.obj
 0003:0001a948       ?AMMO_ROCKETS_CREDS@@3HA   10065948     buying.obj
 0003:0001a94c       ?AMMO_CELLS_CREDS@@3HA     1006594c     buying.obj
 0003:0001a950       ?AMMO_GREN1_CREDS@@3HA     10065950     buying.obj
 0003:0001a954       ?AMMO_GREN2_CREDS@@3HA     10065954     buying.obj
 0003:0001a958       ?GUN_CREDS@@3HA            10065958     buying.obj
 0003:0001a95c       ?SPEECH_CREDS@@3HA         1006595c     buying.obj
 0003:0001a960       ?BUILD_CREDS@@3HA          10065960     buying.obj
 0003:0001a968       ?LastConnected@@3PADA      10065968     dll.obj
 0003:0001a9b0       ?LastSaid@@3PADA           100659b0     dll.obj
 0003:0001aa78       ?other_gFunctionTable@@3UDLL_FUNCTIONS@@A 10065a78     dll.obj
 0003:0001ab40       ?g_vecZero@@3VVector@@B    10065b40     dll.obj
 0003:0001ab4c       ?team_limits@@3PAHA        10065b4c     dll.obj
 0003:0001ab60       ?PlayerInfo@@3PAUAOPlayerInfo_s@@A 10065b60     dll.obj
 0003:00028898       ?Features@@3UTFXFeatureEnabled_s@@A 10073898     dll.obj
 0003:00028964       ?team_allies@@3PAHA        10073964     dll.obj
 0003:00028974       ?LastPlayer@@3PADA         10073974     dll.obj
 0003:000289a8       ?fp@@3PAU_iobuf@@A         100739a8     dll.obj
 0003:000289ac       ?mapcycle@@3Umapcycle_s@@A 100739ac     dll.obj
 0003:000289b4       ?NextMapChange@@3PADA      100739b4     dll.obj
 0003:000289c8       ?team_available@@3PAHA     100739c8     dll.obj
 0003:000289dc       ?VoteStatus@@3HA           100739dc     dll.obj
 0003:000289e0       ?iKickUser@@3HA            100739e0     dll.obj
 0003:000289e4       ?MapLastCalled@@3MA        100739e4     dll.obj
 0003:000289e8       ?UsedSlots@@3HA            100739e8     dll.obj
 0003:000289ec       ?MapVoteStat@@3HA          100739ec     dll.obj
 0003:000289f0       ?MapChange@@3MA            100739f0     dll.obj
 0003:000289f4       ?NightTime@@3HA            100739f4     dll.obj
 0003:000289f8       ?SniperMap@@3HA            100739f8     dll.obj
 0003:000289fc       ?team1_admins@@3HA         100739fc     dll.obj
 0003:00028a00       ?team2_admins@@3HA         10073a00     dll.obj
 0003:00028a04       ?team3_admins@@3HA         10073a04     dll.obj
 0003:00028a08       ?team4_admins@@3HA         10073a08     dll.obj
 0003:00028a0c       ?mod_id@@3HA               10073a0c     dll.obj
 0003:00028a10       ?ConnectCount@@3HA         10073a10     dll.obj
 0003:00028a14       ?pBuilding@@3PAUedict_s@@A 10073a14     dll.obj
 0003:00028a18       ?DoneEndMapSound@@3_NA     10073a18     dll.obj
 0003:00028a50       ?AoMsgIndex@@3HA           10073a50     engine.obj
 0003:00028a5c       ?AOMsgType@@3HA            10073a5c     engine.obj
 0003:00028a60       ?message_CurWeapon@@3HA    10073a60     engine.obj
 0003:00028a64       ?message_DeathMsg@@3HA     10073a64     engine.obj
 0003:00028a68       ?message_StatusText@@3HA   10073a68     engine.obj
 0003:00028a6c       ?message_StatusValue@@3HA  10073a6c     engine.obj
 0003:00028a70       ?AoMsgFunction@@3P6AXPAXH@ZA 10073a70     engine.obj
 0003:00028a74       ?AoMsgEndFunction@@3P6AXPAXH@ZA 10073a74     engine.obj
 0003:00028a78       ?debug_engine@@3HA         10073a78     engine.obj
 0003:00028aa0       ?SndFreq@@3PAY01MA         10073aa0     generalstuff.obj
 0003:000297b8       ?g_engfuncs@@3Uenginefuncs_s@@A 100747b8     h_export.obj
 0003:000299f8       ?other_GiveFnptrsToDll@@3P6GXPAUenginefuncs_s@@PAUglobalvars_t@@@ZA 100749f8     h_export.obj
 0003:000299fc       ?other_GetEntityAPI@@3P6AHPAUDLL_FUNCTIONS@@H@ZA 100749fc     h_export.obj
 0003:00029a00       ?gpGlobals@@3PAUglobalvars_t@@A 10074a00     h_export.obj
 0003:00029a04       ?h_Library@@3PAUHINSTANCE__@@A 10074a04     h_export.obj
 0003:00029a08       ?MV_EXTENDWIN@@3PADA       10074a08     inisettings.obj
 0003:00029aa0       ?MV_WINNER@@3PADA          10074aa0     inisettings.obj
 0003:00029b38       ?MV_CANTSTART@@3PADA       10074b38     inisettings.obj
 0003:00029bd0       ?BOT_NAME@@3PADA           10074bd0     inisettings.obj
 0003:00029c68       ?TIMELEFT_STRING@@3PADA    10074c68     inisettings.obj
 0003:00029d00       ?NEXTMAP_STRING@@3PADA     10074d00     inisettings.obj
 0003:00029d98       ?BOT_NAME2@@3PADA          10074d98     inisettings.obj
 0003:00029e30       ?SK_REMOVED@@3PADA         10074e30     inisettings.obj
 0003:00029ec8       ?MV_MAXED@@3PADA           10074ec8     inisettings.obj
 0003:00029f60       ?MV_NOVOTES@@3PADA         10074f60     inisettings.obj
 0003:00029ff8       ?MV_CASTVOTE@@3PADA        10074ff8     inisettings.obj
 0003:0002a090       ?MV_ALREADYVOTING@@3PADA   10075090     inisettings.obj
 0003:0002a128       ?SK_FATALERROR@@3PADA      10075128     inisettings.obj
 0003:0002a1c0       ?KV_VOTEYES@@3PADA         100751c0     inisettings.obj
 0003:0002a258       ?SK_APPLIED@@3PADA         10075258     inisettings.obj
 0003:0002a2f0       ?CLIENTPACK_STRING@@3PADA  100752f0     inisettings.obj
 0003:0002a388       ?MV_NOTENOUGHVOTES@@3PADA  10075388     inisettings.obj
 0003:0002a420       ?KV_VOTENO@@3PADA          10075420     inisettings.obj
 0003:0002a4b8       ?SK_CURRENT@@3PADA         100754b8     inisettings.obj
 0003:0002a550       ?MV_CANCELLED@@3PADA       10075550     inisettings.obj
 0003:0002a5e8       ?KV_VOTESTART@@3PADA       100755e8     inisettings.obj
 0003:0002a680       ?KV_VOTEEND@@3PADA         10075680     inisettings.obj
 0003:0002a718       ?SK_NOCURRENT@@3PADA       10075718     inisettings.obj
 0003:0002a7b0       ?SK_NOACCESS@@3PADA        100757b0     inisettings.obj
 0003:0002a848       ?CMD_UNKNOWN@@3PADA        10075848     inisettings.obj
 0003:0002a8e0       ?CMD_NO_CHEAT@@3PADA       100758e0     inisettings.obj
 0003:0002a978       ?CMD_NO_ACCESS@@3PADA      10075978     inisettings.obj
 0003:0002aa10       ?MV_EXTENDLEAD@@3PADA      10075a10     inisettings.obj
 0003:0002aaa8       ?KV_CANTSTART@@3PADA       10075aa8     inisettings.obj
 0003:0002ab40       ?MV_NOTFOUND@@3PADA        10075b40     inisettings.obj
 0003:0002abd8       ?MV_NOWINNER@@3PADA        10075bd8     inisettings.obj
 0003:0002ac70       ?SK_NOSNIPERS@@3PADA       10075c70     inisettings.obj
 0003:0002ad08       ?SPAM_STRING@@3PADA        10075d08     inisettings.obj
 0003:0002ada0       ?MV_REMOVEDVOTE@@3PADA     10075da0     inisettings.obj
 0003:0002ae38       ??_C@_01A@?$AA?$AA@        10075e38     inisettings.obj
 0003:0002bc18       ?VotedMaps@@3PAUMapVoteItem_s@@A 10076c18     mapvoting.obj
 0003:0002c438       ?m_Chain@@3HA              10077438     modelprecache.obj
 0003:0002c43c       ?m_Fire@@3FA               1007743c     modelprecache.obj
 0003:0002c43e       ?g_sModelIndexBloodSpray@@3FA 1007743e     modelprecache.obj
 0003:0002c440       ?g_sModelIndexBloodDrop@@3FA 10077440     modelprecache.obj
 0003:0002d018       ?plugin_interface@@3Ushodanfuncs_s@@A 10078018     plugin_api.obj
 0003:0002d2c8       ?m_dwa@@3PAPAUHINSTANCE__@@A 100782c8     plugins.obj
 0003:0002d390       ?iNextFreeSpace@@3HA       10078390     plugins.obj
 0003:0002e974       ?gmsgTextMsg@@3HA          10079974     util.obj
 0003:0002e978       ___fastflag                10079978     LIBCMT:fpinit.obj
 0003:0002e97c       __adjust_fdiv              1007997c     LIBCMT:fpinit.obj
 0003:0002e980       __umaskval                 10079980     LIBCMT:crt0dat.obj
 0003:0002e984       __osver                    10079984     LIBCMT:crt0dat.obj
 0003:0002e988       __winver                   10079988     LIBCMT:crt0dat.obj
 0003:0002e98c       __winmajor                 1007998c     LIBCMT:crt0dat.obj
 0003:0002e990       __winminor                 10079990     LIBCMT:crt0dat.obj
 0003:0002e994       ___argc                    10079994     LIBCMT:crt0dat.obj
 0003:0002e998       ___argv                    10079998     LIBCMT:crt0dat.obj
 0003:0002e99c       ___wargv                   1007999c     LIBCMT:crt0dat.obj
 0003:0002e9a0       __environ                  100799a0     LIBCMT:crt0dat.obj
 0003:0002e9a4       ___initenv                 100799a4     LIBCMT:crt0dat.obj
 0003:0002e9a8       __wenviron                 100799a8     LIBCMT:crt0dat.obj
 0003:0002e9ac       ___winitenv                100799ac     LIBCMT:crt0dat.obj
 0003:0002e9b0       __pgmptr                   100799b0     LIBCMT:crt0dat.obj
 0003:0002e9b4       __wpgmptr                  100799b4     LIBCMT:crt0dat.obj
 0003:0002e9b8       __exitflag                 100799b8     LIBCMT:crt0dat.obj
 0003:0002e9bc       __C_Termination_Done       100799bc     LIBCMT:crt0dat.obj
 0003:0002e9c0       __C_Exit_Done              100799c0     LIBCMT:crt0dat.obj
 0003:0002e9c8       __aenvptr                  100799c8     LIBCMT:dllcrt0.obj
 0003:0002e9cc       __wenvptr                  100799cc     LIBCMT:dllcrt0.obj
 0003:0002e9d0       ___error_mode              100799d0     LIBCMT:dllcrt0.obj
 0003:0002e9d4       ___app_type                100799d4     LIBCMT:dllcrt0.obj
 0003:0002e9d8       __cflush                   100799d8     LIBCMT:_file.obj
 0003:0002e9dc       __stdbuf                   100799dc     LIBCMT:_sftbuf.obj
 0003:0002ea48       ___lc_handle               10079a48     LIBCMT:nlsdata2.obj
 0003:0002ea60       ___lc_codepage             10079a60     LIBCMT:nlsdata2.obj
 0003:0002ea64       ___lc_collate_cp           10079a64     LIBCMT:nlsdata2.obj
 0003:0002eb80       __adbgmsg                  10079b80     LIBCMT:crt0msg.obj
 0003:0002eb84       __commode                  10079b84     LIBCMT:ncommode.obj
 0003:0002eb8c       ___lc_time_intl            10079b8c     LIBCMT:inittime.obj
 0003:0002eba8       ___lc_id                   10079ba8     LIBCMT:nlsdata3.obj
 0003:0002ebf4       ?_pnhHeap@@3P6AHI@ZA       10079bf4     LIBCMT:handler.obj
 0003:0002ebf8       __newmode                  10079bf8     LIBCMT:_newmode.obj
 0003:0002ec0c       __fmode                    10079c0c     LIBCMT:txtmode.obj
 0003:0002ec2c       ___lconv_static_null       10079c2c     LIBCMT:lconv.obj
 0003:0002ed00       ?clog@std@@3V?$basic_ostream@DU?$char_traits@D@std@@@1@A 10079d00     libcpmt:iostream.obj
 0003:0002ed90       ?cout@std@@3V?$basic_ostream@DU?$char_traits@D@std@@@1@A 10079d90     libcpmt:iostream.obj
 0003:0002ee20       ?cin@std@@3V?$basic_istream@DU?$char_traits@D@std@@@1@A 10079e20     libcpmt:iostream.obj
 0003:0002eeb8       ?cerr@std@@3V?$basic_ostream@DU?$char_traits@D@std@@@1@A 10079eb8     libcpmt:iostream.obj
 0003:0002eef0       ?wcerr@std@@3V?$basic_ostream@GU?$char_traits@G@std@@@1@A 10079ef0     libcpmt:wiostrea.obj
 0003:0002ef30       ?wclog@std@@3V?$basic_ostream@GU?$char_traits@G@std@@@1@A 10079f30     libcpmt:wiostrea.obj
 0003:0002ef68       ?wcin@std@@3V?$basic_istream@GU?$char_traits@G@std@@@1@A 10079f68     libcpmt:wiostrea.obj
 0003:0002f058       ?wcout@std@@3V?$basic_ostream@GU?$char_traits@G@std@@@1@A 1007a058     libcpmt:wiostrea.obj
 0003:0002f104       ?_Index@ios_base@std@@0HA  1007a104     libcpmt:ios.obj
 0003:0002f13c       ?_Clocptr@_Locimp@locale@std@@0PAV123@A 1007a13c     libcpmt:locale0.obj
 0003:0002f140       ?_Global@_Locimp@locale@std@@0PAV123@A 1007a140     libcpmt:locale0.obj
 0003:0002f144       ?_Id_cnt@id@locale@std@@0HA 1007a144     libcpmt:locale0.obj
 0003:0002f148       ?_Cltab@?$ctype@D@std@@0PBFB 1007a148     libcpmt:locale0.obj
 0003:0002f16c       ??_B?1???id@?$ctype@G@std@@$D@@9@51 1007a16c     <common>
 0003:0002f170       ___mbcodepage              1007a170     <common>
 0003:0002f180       ___mbulinfo                1007a180     <common>
 0003:0002f18c       ___ismbcodepage            1007a18c     <common>
 0003:0002f1a0       __mbcasemap                1007a1a0     <common>
 0003:0002f2a0       __mbctype                  1007a2a0     <common>
 0003:0002f3a4       ___mblcid                  1007a3a4     <common>
 0003:0002f3a8       ___sbh_sizeHeaderList      1007a3a8     <common>
 0003:0002f3ac       ___sbh_indGroupDefer       1007a3ac     <common>
 0003:0002f3b0       ___sbh_pHeaderScan         1007a3b0     <common>
 0003:0002f3b4       ___sbh_pHeaderDefer        1007a3b4     <common>
 0003:0002f3b8       ___sbh_cntHeaderList       1007a3b8     <common>
 0003:0002f3bc       ___sbh_pHeaderList         1007a3bc     <common>
 0003:0002f3c0       __crtheap                  1007a3c0     <common>
 0003:0002f3e0       ___pioinfo                 1007a3e0     <common>
 0003:0002f4e0       __nhandle                  1007a4e0     <common>
 0003:0002f4e4       ___setlc_active            1007a4e4     <common>
 0003:0002f4e8       ___unguarded_readlc_active 1007a4e8     <common>
 0003:0002f4ec       ___piob                    1007a4ec     <common>
 0003:0002f500       __bufin                    1007a500     <common>
 0003:00030500       __nstream                  1007b500     <common>
 0003:00030504       __acmdln                   1007b504     <common>
 0003:00030508       __pRawDllMain              1007b508     <common>
 0003:0003050c       ___env_initialized         1007b50c     <common>
 0003:00030510       ___mbctype_initialized     1007b510     <common>
 0003:00030514       ___onexitend               1007b514     <common>
 0003:00030518       ___onexitbegin             1007b518     <common>
 0003:0003051c       ?_Stinit@?1??_Init@?$basic_filebuf@GU?$char_traits@G@std@@@std@@IAEXPAU_iobuf@@W4_Initfl@23@@Z@4HA 1007b51c     <common>
 0003:00030520       ?_Stinit@?1??_Init@?$basic_filebuf@DU?$char_traits@D@std@@@std@@IAEXPAU_iobuf@@W4_Initfl@23@@Z@4HA 1007b520     <common>
 0003:00030524       ?_Stz@?$fpos@H@std@@0HA    1007b524     <common>
 0003:00030528       ??_B?1???id@?$collate@D@std@@$D@@9@51 1007b528     <common>

 entry point at        0001:00038fd8

 Static symbols

 0001:00034910       ?FixedUnsigned16@@YAGMM@Z  10035910 f   util.obj
 0001:00034940       ?FixedSigned16@@YAFMM@Z    10035940 f   util.obj
 0001:00034910       ?FixedUnsigned216@@YAGMM@Z 10035910 f   util.obj
 0001:0001a250       _$E37                      1001b250 f   inisettings.obj
 0001:0001a270       _$E36                      1001b270 f   inisettings.obj
 0001:0001a280       _$E24                      1001b280 f   inisettings.obj
 0001:0001a290       _$E21                      1001b290 f   inisettings.obj
 0001:0001a2a0       _$E23                      1001b2a0 f   inisettings.obj
 0001:0001a2b0       _$E22                      1001b2b0 f   inisettings.obj
 0001:0001a2c0       _$E30                      1001b2c0 f   inisettings.obj
 0001:0001a2d0       _$E27                      1001b2d0 f   inisettings.obj
 0001:0001a2e0       _$E29                      1001b2e0 f   inisettings.obj
 0001:0001a2f0       _$E28                      1001b2f0 f   inisettings.obj
 0001:00017220       _$E19                      10018220 f   h_export.obj
 0001:00017240       _$E18                      10018240 f   h_export.obj
 0001:0000f150       _$E9                       10010150 f   dll.obj
 0001:0000f160       _$E8                       10010160 f   dll.obj
 0001:0000f180       _$E12                      10010180 f   dll.obj
 0001:0000f190       _$E11                      10010190 f   dll.obj
 0001:0000a690       _$E19                      1000b690 f   CIniFile.obj
 0001:0000a6b0       _$E18                      1000b6b0 f   CIniFile.obj
 0001:00001690       _$E26                      10002690 f   admincommands.obj
 0001:000016b0       _$E25                      100026b0 f   admincommands.obj
 0001:0004097a       _siglookup                 1004197a f   LIBCMT:winsig.obj
 0001:00040403       _getSystemCP               10041403 f   LIBCMT:mbctype.obj
 0001:0004044d       _CPtoLCID                  1004144d f   LIBCMT:mbctype.obj
 0001:00040480       _setSBCS                   10041480 f   LIBCMT:mbctype.obj
 0001:000404a9       _setSBUpLow                100414a9 f   LIBCMT:mbctype.obj
 0001:0003f000       __abstract_cw              10040000 f   LIBCMT:ieee87.obj
 0001:0003f092       __hw_cw                    10040092 f   LIBCMT:ieee87.obj
 0001:0003d717       _parse_cmdline             1003e717 f   LIBCMT:stdargv.obj
 0001:0003d242       __hextodec                 1003e242 f   LIBCMT:input.obj
 0001:0003d279       __inc                      1003e279 f   LIBCMT:input.obj
 0001:0003d293       __un_inc                   1003e293 f   LIBCMT:input.obj
 0001:0003d2aa       __whiteout                 1003e2aa f   LIBCMT:input.obj
 0001:0003c7f2       _strncnt                   1003d7f2 f   LIBCMT:a_map.obj
 0001:0003c390       __get_fname                1003d390 f   LIBCMT:fpexcept.obj
 0001:0003b7f0       LeadUp1                    1003c7f0 f   LIBCMT:memcpy.obj
 0001:0003b81c       LeadUp2                    1003c81c f   LIBCMT:memcpy.obj
 0001:0003b840       LeadUp3                    1003c840 f   LIBCMT:memcpy.obj
 0001:0003b8bf       UnwindUp0                  1003c8bf f   LIBCMT:memcpy.obj
 0001:0003b8ac       UnwindUp1                  1003c8ac f   LIBCMT:memcpy.obj
 0001:0003b8a4       UnwindUp2                  1003c8a4 f   LIBCMT:memcpy.obj
 0001:0003b89c       UnwindUp3                  1003c89c f   LIBCMT:memcpy.obj
 0001:0003b894       UnwindUp4                  1003c894 f   LIBCMT:memcpy.obj
 0001:0003b88c       UnwindUp5                  1003c88c f   LIBCMT:memcpy.obj
 0001:0003b884       UnwindUp6                  1003c884 f   LIBCMT:memcpy.obj
 0001:0003b87c       UnwindUp7                  1003c87c f   LIBCMT:memcpy.obj
 0001:0003b8d8       TrailUp0                   1003c8d8 f   LIBCMT:memcpy.obj
 0001:0003b8e0       TrailUp1                   1003c8e0 f   LIBCMT:memcpy.obj
 0001:0003b8ec       TrailUp2                   1003c8ec f   LIBCMT:memcpy.obj
 0001:0003b900       TrailUp3                   1003c900 f   LIBCMT:memcpy.obj
 0001:0003b978       LeadDown1                  1003c978 f   LIBCMT:memcpy.obj
 0001:0003b998       LeadDown2                  1003c998 f   LIBCMT:memcpy.obj
 0001:0003b9c0       LeadDown3                  1003c9c0 f   LIBCMT:memcpy.obj
 0001:0003ba14       UnwindDown7                1003ca14 f   LIBCMT:memcpy.obj
 0001:0003ba1c       UnwindDown6                1003ca1c f   LIBCMT:memcpy.obj
 0001:0003ba24       UnwindDown5                1003ca24 f   LIBCMT:memcpy.obj
 0001:0003ba2c       UnwindDown4                1003ca2c f   LIBCMT:memcpy.obj
 0001:0003ba34       UnwindDown3                1003ca34 f   LIBCMT:memcpy.obj
 0001:0003ba3c       UnwindDown2                1003ca3c f   LIBCMT:memcpy.obj
 0001:0003ba44       UnwindDown1                1003ca44 f   LIBCMT:memcpy.obj
 0001:0003ba57       UnwindDown0                1003ca57 f   LIBCMT:memcpy.obj
 0001:0003ba70       TrailDown0                 1003ca70 f   LIBCMT:memcpy.obj
 0001:0003ba78       TrailDown1                 1003ca78 f   LIBCMT:memcpy.obj
 0001:0003ba88       TrailDown2                 1003ca88 f   LIBCMT:memcpy.obj
 0001:0003ba9c       TrailDown3                 1003ca9c f   LIBCMT:memcpy.obj
 0001:0003a6aa       ?FindHandler@@YAXPAUEHExceptionRecord@@PAUEHRegistrationNode@@PAU_CONTEXT@@PAXPBU_s_FuncInfo@@EH1@Z 1003b6aa f   LIBCMT:frame.obj
 0001:0003a85d       ?FindHandlerForForeignException@@YAXPAUEHExceptionRecord@@PAUEHRegistrationNode@@PAU_CONTEXT@@PAXPBU_s_FuncInfo@@HH1@Z 1003b85d f   LIBCMT:frame.obj
 0001:0003a907       ?TypeMatch@@YAHPBU_s_HandlerType@@PBU_s_CatchableType@@PBU_s_ThrowInfo@@@Z 1003b907 f   LIBCMT:frame.obj
 0001:0003aa02       ?FrameUnwindFilter@@YAHPAU_EXCEPTION_POINTERS@@@Z 1003ba02 f   LIBCMT:frame.obj
 0001:0003aa18       ?CatchIt@@YAXPAUEHExceptionRecord@@PAUEHRegistrationNode@@PAU_CONTEXT@@PAXPBU_s_FuncInfo@@PBU_s_HandlerType@@PBU_s_CatchableType@@PBU_s_TryBlockMapEntry@@H1E@Z 1003ba18 f   LIBCMT:frame.obj
 0001:0003aa93       ?CallCatchBlock@@YAPAXPAUEHExceptionRecord@@PAUEHRegistrationNode@@PAU_CONTEXT@@PBU_s_FuncInfo@@PAXHK@Z 1003ba93 f   LIBCMT:frame.obj
 0001:0003abae       ?ExFilterRethrow@@YAHPAU_EXCEPTION_POINTERS@@@Z 1003bbae f   LIBCMT:frame.obj
 0001:0003abd8       ?BuildCatchObject@@YAXPAUEHExceptionRecord@@PAUEHRegistrationNode@@PBU_s_HandlerType@@PBU_s_CatchableType@@@Z 1003bbd8 f   LIBCMT:frame.obj
 0001:0003ae03       ?AdjustPointer@@YAPAXPAXABUPMD@@@Z 1003be03 f   LIBCMT:frame.obj
 0001:0003a192       __cftoe2                   1003b192 f   LIBCMT:cvt.obj
 0001:0003a2a9       __cftof2                   1003b2a9 f   LIBCMT:cvt.obj
 0001:0003a434       __shift                    1003b434 f   LIBCMT:cvt.obj
 0001:00039cb9       _write_char                1003acb9 f   LIBCMT:output.obj
 0001:00039cee       _write_multi_char          1003acee f   LIBCMT:output.obj
 0001:00039d1f       _write_string              1003ad1f f   LIBCMT:output.obj
 0001:00039d57       _get_int_arg               1003ad57 f   LIBCMT:output.obj
 0001:00039d64       _get_int64_arg             1003ad64 f   LIBCMT:output.obj
 0001:00039d74       _get_short_arg             1003ad74 f   LIBCMT:output.obj
 0001:0003941d       _flsall                    1003a41d f   LIBCMT:fflush.obj
 0001:00038e79       _xtoa                      10039e79 f   LIBCMT:xtoa.obj
 0001:00038769       _doexit                    10039769 f   LIBCMT:crt0dat.obj
 0001:00038820       __initterm                 10039820 f   LIBCMT:crt0dat.obj
 0001:000380f0       LeadUp1                    100390f0 f   LIBCMT:memmove.obj
 0001:0003811c       LeadUp2                    1003911c f   LIBCMT:memmove.obj
 0001:00038140       LeadUp3                    10039140 f   LIBCMT:memmove.obj
 0001:000381bf       UnwindUp0                  100391bf f   LIBCMT:memmove.obj
 0001:000381ac       UnwindUp1                  100391ac f   LIBCMT:memmove.obj
 0001:000381a4       UnwindUp2                  100391a4 f   LIBCMT:memmove.obj
 0001:0003819c       UnwindUp3                  1003919c f   LIBCMT:memmove.obj
 0001:00038194       UnwindUp4                  10039194 f   LIBCMT:memmove.obj
 0001:0003818c       UnwindUp5                  1003918c f   LIBCMT:memmove.obj
 0001:00038184       UnwindUp6                  10039184 f   LIBCMT:memmove.obj
 0001:0003817c       UnwindUp7                  1003917c f   LIBCMT:memmove.obj
 0001:000381d8       TrailUp0                   100391d8 f   LIBCMT:memmove.obj
 0001:000381e0       TrailUp1                   100391e0 f   LIBCMT:memmove.obj
 0001:000381ec       TrailUp2                   100391ec f   LIBCMT:memmove.obj
 0001:00038200       TrailUp3                   10039200 f   LIBCMT:memmove.obj
 0001:00038278       LeadDown1                  10039278 f   LIBCMT:memmove.obj
 0001:00038298       LeadDown2                  10039298 f   LIBCMT:memmove.obj
 0001:000382c0       LeadDown3                  100392c0 f   LIBCMT:memmove.obj
 0001:00038314       UnwindDown7                10039314 f   LIBCMT:memmove.obj
 0001:0003831c       UnwindDown6                1003931c f   LIBCMT:memmove.obj
 0001:00038324       UnwindDown5                10039324 f   LIBCMT:memmove.obj
 0001:0003832c       UnwindDown4                1003932c f   LIBCMT:memmove.obj
 0001:00038334       UnwindDown3                10039334 f   LIBCMT:memmove.obj
 0001:0003833c       UnwindDown2                1003933c f   LIBCMT:memmove.obj
 0001:00038344       UnwindDown1                10039344 f   LIBCMT:memmove.obj
 0001:00038357       UnwindDown0                10039357 f   LIBCMT:memmove.obj
 0001:00038370       TrailDown0                 10039370 f   LIBCMT:memmove.obj
 0001:00038378       TrailDown1                 10039378 f   LIBCMT:memmove.obj
 0001:00038388       TrailDown2                 10039388 f   LIBCMT:memmove.obj
 0001:0003839c       TrailDown3                 1003939c f   LIBCMT:memmove.obj
 0001:00037c40       _gu_return                 10038c40 f   LIBCMT:exsup.obj
 0001:00037c48       __unwind_handler           10038c48 f   LIBCMT:exsup.obj
 0001:00037a5c       ?CatchGuardHandler@@YA?AW4_EXCEPTION_DISPOSITION@@PAUEHExceptionRecord@@PAUCatchGuardRN@@PAX2@Z 10038a5c f   LIBCMT:trnsctrl.obj
 0001:00037b37       ?TranslatorGuardHandler@@YA?AW4_EXCEPTION_DISPOSITION@@PAUEHExceptionRecord@@PAUTranslatorGuardRN@@PAX2@Z 10038b37 f   LIBCMT:trnsctrl.obj
 0001:00043a57       __Mbrtowc_lk               10044a57 f   libcpmt:xmbtowc.obj
 0001:00043743       _$E18                      10044743 f   libcpmt:locale0.obj
 0001:0004374d       _$E15                      1004474d f   libcpmt:locale0.obj
 0001:0004374e       _$E17                      1004474e f   libcpmt:locale0.obj
 0001:0004375a       _$E16                      1004475a f   libcpmt:locale0.obj
 0001:000439b2       _$E29                      100449b2 f   libcpmt:locale0.obj
 0001:000439dc       _$E25                      100449dc f   libcpmt:locale0.obj
 0001:000439e8       _$E28                      100449e8 f   libcpmt:locale0.obj
 0001:0004334c       ?_CleanUp@std@@YAXXZ       1004434c f   libcpmt:xlock.obj
 0001:0004252a       _$E18                      1004352a f   libcpmt:wiostrea.obj
 0001:00042534       _$E15                      10043534 f   libcpmt:wiostrea.obj
 0001:0004253e       _$E17                      1004353e f   libcpmt:wiostrea.obj
 0001:0004254a       _$E16                      1004354a f   libcpmt:wiostrea.obj
 0001:00042554       _$E24                      10043554 f   libcpmt:wiostrea.obj
 0001:0004255e       _$E21                      1004355e f   libcpmt:wiostrea.obj
 0001:00042568       _$E23                      10043568 f   libcpmt:wiostrea.obj
 0001:00042574       _$E22                      10043574 f   libcpmt:wiostrea.obj
 0001:0004257e       _$E29                      1004357e f   libcpmt:wiostrea.obj
 0001:00042588       _$E26                      10043588 f   libcpmt:wiostrea.obj
 0001:00042595       _$E28                      10043595 f   libcpmt:wiostrea.obj
 0001:000425a1       _$E27                      100435a1 f   libcpmt:wiostrea.obj
 0001:000425ab       _$E34                      100435ab f   libcpmt:wiostrea.obj
 0001:000425b5       _$E31                      100435b5 f   libcpmt:wiostrea.obj
 0001:000425c2       _$E33                      100435c2 f   libcpmt:wiostrea.obj
 0001:000425ce       _$E32                      100435ce f   libcpmt:wiostrea.obj
 0001:000425d8       _$E39                      100435d8 f   libcpmt:wiostrea.obj
 0001:000425e2       _$E36                      100435e2 f   libcpmt:wiostrea.obj
 0001:000425ef       _$E38                      100435ef f   libcpmt:wiostrea.obj
 0001:000425fb       _$E37                      100435fb f   libcpmt:wiostrea.obj
 0001:00042605       _$E44                      10043605 f   libcpmt:wiostrea.obj
 0001:0004260f       _$E41                      1004360f f   libcpmt:wiostrea.obj
 0001:0004261e       _$E43                      1004361e f   libcpmt:wiostrea.obj
 0001:0004262a       _$E42                      1004362a f   libcpmt:wiostrea.obj
 0001:00042649       _$E49                      10043649 f   libcpmt:wiostrea.obj
 0001:00042653       _$E46                      10043653 f   libcpmt:wiostrea.obj
 0001:00042662       _$E48                      10043662 f   libcpmt:wiostrea.obj
 0001:0004266e       _$E47                      1004366e f   libcpmt:wiostrea.obj
 0001:0004268d       _$E54                      1004368d f   libcpmt:wiostrea.obj
 0001:00042697       _$E51                      10043697 f   libcpmt:wiostrea.obj
 0001:000426a6       _$E53                      100436a6 f   libcpmt:wiostrea.obj
 0001:000426b2       _$E52                      100436b2 f   libcpmt:wiostrea.obj
 0001:000426bc       _$E59                      100436bc f   libcpmt:wiostrea.obj
 0001:000426c6       _$E56                      100436c6 f   libcpmt:wiostrea.obj
 0001:000426d5       _$E58                      100436d5 f   libcpmt:wiostrea.obj
 0001:000426e1       _$E57                      100436e1 f   libcpmt:wiostrea.obj
 0001:0004328c       _$E70                      1004428c f   libcpmt:wiostrea.obj
 0001:000432b6       _$E66                      100442b6 f   libcpmt:wiostrea.obj
 0001:000432c2       _$E69                      100442c2 f   libcpmt:wiostrea.obj
 0001:00041674       _$E18                      10042674 f   libcpmt:iostream.obj
 0001:0004167e       _$E15                      1004267e f   libcpmt:iostream.obj
 0001:0004168b       _$E17                      1004268b f   libcpmt:iostream.obj
 0001:00041697       _$E16                      10042697 f   libcpmt:iostream.obj
 0001:000416a1       _$E23                      100426a1 f   libcpmt:iostream.obj
 0001:000416ab       _$E20                      100426ab f   libcpmt:iostream.obj
 0001:000416b8       _$E22                      100426b8 f   libcpmt:iostream.obj
 0001:000416c4       _$E21                      100426c4 f   libcpmt:iostream.obj
 0001:000416ce       _$E28                      100426ce f   libcpmt:iostream.obj
 0001:000416d8       _$E25                      100426d8 f   libcpmt:iostream.obj
 0001:000416e7       _$E27                      100426e7 f   libcpmt:iostream.obj
 0001:000416f3       _$E26                      100426f3 f   libcpmt:iostream.obj
 0001:00041712       _$E33                      10042712 f   libcpmt:iostream.obj
 0001:0004171c       _$E30                      1004271c f   libcpmt:iostream.obj
 0001:0004172b       _$E32                      1004272b f   libcpmt:iostream.obj
 0001:00041737       _$E31                      10042737 f   libcpmt:iostream.obj
 0001:00041756       _$E38                      10042756 f   libcpmt:iostream.obj
 0001:00041760       _$E35                      10042760 f   libcpmt:iostream.obj
 0001:0004176d       _$E37                      1004276d f   libcpmt:iostream.obj
 0001:00041779       _$E36                      10042779 f   libcpmt:iostream.obj
 0001:00041783       _$E43                      10042783 f   libcpmt:iostream.obj
 0001:0004178d       _$E40                      1004278d f   libcpmt:iostream.obj
 0001:0004179c       _$E42                      1004279c f   libcpmt:iostream.obj
 0001:000417a8       _$E41                      100427a8 f   libcpmt:iostream.obj
 0001:000417b2       _$E48                      100427b2 f   libcpmt:iostream.obj
 0001:000417bc       _$E45                      100427bc f   libcpmt:iostream.obj
 0001:000417cb       _$E47                      100427cb f   libcpmt:iostream.obj
 0001:000417d7       _$E46                      100427d7 f   libcpmt:iostream.obj
 0001:000424e8       _$E60                      100434e8 f   libcpmt:iostream.obj
 0001:00042512       _$E56                      10043512 f   libcpmt:iostream.obj
 0001:0004251e       _$E59                      1004351e f   libcpmt:iostream.obj
 0001:00041631       _$E24                      10042631 f   libcpmt:string.obj
 0001:0004165b       _$E20                      1004265b f   libcpmt:string.obj
 0001:00041667       _$E23                      10042667 f   libcpmt:string.obj

 1150 bytes saved through ICF

